
c:/Users/mikeh/IOT_Project/Power_monitor/ArgonCode/target/4.0.1/argon/ArgonCode.elf:     file format elf32-littlearm

Sections:
Idx Name          Size      VMA       LMA       File off  Algn
  0 .module_info  00000018  000b4000  000b4000  00004000  2**0
                  CONTENTS, ALLOC, LOAD, READONLY, DATA
  1 .dynalib      00000004  000b4018  000b4018  00004018  2**2
                  CONTENTS, ALLOC, LOAD, READONLY, DATA
  2 .text         000087a0  000b4020  000b4020  00004020  2**3
                  CONTENTS, ALLOC, LOAD, READONLY, CODE
  3 .note.gnu.build-id 00000024  000bc7c0  000bc7c0  0000c7c0  2**2
                  CONTENTS, ALLOC, LOAD, READONLY, DATA
  4 .backup       00000004  2003f400  000bc7e4  0000f400  2**2
                  CONTENTS, ALLOC, LOAD, DATA
  5 .data         00000208  2003d954  000bc7e8  0001d954  2**2
                  CONTENTS, ALLOC, LOAD, DATA
  6 .bss          00000c94  2003db60  2003db60  0002db60  2**3
                  ALLOC
  7 .module_info_suffix 00000028  000bc9f0  000bc9f0  0002c9f0  2**0
                  CONTENTS, ALLOC, LOAD, READONLY, DATA
  8 .module_info_crc 00000004  000bca18  000bca18  0002ca18  2**0
                  CONTENTS, ALLOC, LOAD, READONLY, DATA
  9 .debug_info   001445fb  00000000  00000000  0002ca1c  2**0
                  CONTENTS, READONLY, DEBUGGING, OCTETS
 10 .debug_abbrev 00015fbb  00000000  00000000  00171017  2**0
                  CONTENTS, READONLY, DEBUGGING, OCTETS
 11 .debug_loc    0003db85  00000000  00000000  00186fd2  2**0
                  CONTENTS, READONLY, DEBUGGING, OCTETS
 12 .debug_aranges 00003668  00000000  00000000  001c4b57  2**0
                  CONTENTS, READONLY, DEBUGGING, OCTETS
 13 .debug_ranges 0000b618  00000000  00000000  001c81bf  2**0
                  CONTENTS, READONLY, DEBUGGING, OCTETS
 14 .debug_macro  0003d93c  00000000  00000000  001d37d7  2**0
                  CONTENTS, READONLY, DEBUGGING, OCTETS
 15 .debug_line   00048884  00000000  00000000  00211113  2**0
                  CONTENTS, READONLY, DEBUGGING, OCTETS
 16 .debug_str    0013b08c  00000000  00000000  00259997  2**0
                  CONTENTS, READONLY, DEBUGGING, OCTETS
 17 .debug_frame  00009fc0  00000000  00000000  00394a24  2**2
                  CONTENTS, READONLY, DEBUGGING, OCTETS

Disassembly of section .text:

000b4020 <module_user_pre_init>:
/**
 * Initializes this user module. Returns the start of the heap.
 */
void* module_user_pre_init() {

    if ( (&link_global_data_start!=&link_global_data_initial_values) && (link_global_data_size != 0))
   b4020:	4809      	ldr	r0, [pc, #36]	; (b4048 <module_user_pre_init+0x28>)
   b4022:	490a      	ldr	r1, [pc, #40]	; (b404c <module_user_pre_init+0x2c>)
   b4024:	4288      	cmp	r0, r1
void* module_user_pre_init() {
   b4026:	b508      	push	{r3, lr}
    if ( (&link_global_data_start!=&link_global_data_initial_values) && (link_global_data_size != 0))
   b4028:	d005      	beq.n	b4036 <module_user_pre_init+0x16>
   b402a:	4a09      	ldr	r2, [pc, #36]	; (b4050 <module_user_pre_init+0x30>)
   b402c:	4282      	cmp	r2, r0
   b402e:	d002      	beq.n	b4036 <module_user_pre_init+0x16>
    {
        memcpy(&link_global_data_start, &link_global_data_initial_values, link_global_data_size);
   b4030:	1a12      	subs	r2, r2, r0
   b4032:	f005 fb6e 	bl	b9712 <memcpy>
    }

    memset(&link_bss_location, 0, link_bss_size );
   b4036:	4807      	ldr	r0, [pc, #28]	; (b4054 <module_user_pre_init+0x34>)
   b4038:	4a07      	ldr	r2, [pc, #28]	; (b4058 <module_user_pre_init+0x38>)
   b403a:	2100      	movs	r1, #0
   b403c:	1a12      	subs	r2, r2, r0
   b403e:	f005 fb90 	bl	b9762 <memset>
    return &link_global_data_start;
}
   b4042:	4801      	ldr	r0, [pc, #4]	; (b4048 <module_user_pre_init+0x28>)
   b4044:	bd08      	pop	{r3, pc}
   b4046:	bf00      	nop
   b4048:	2003d954 	.word	0x2003d954
   b404c:	000bc7e8 	.word	0x000bc7e8
   b4050:	2003db5c 	.word	0x2003db5c
   b4054:	2003db60 	.word	0x2003db60
   b4058:	2003e7f1 	.word	0x2003e7f1

000b405c <module_user_init>:
extern constructor_ptr_t link_constructors_location[];
extern constructor_ptr_t link_constructors_end;
#define link_constructors_size   ((unsigned long)&link_constructors_end  -  (unsigned long)&link_constructors_location )

void module_user_init()
{
   b405c:	b570      	push	{r4, r5, r6, lr}
    module_user_init_hook();

    // invoke constructors
    for (size_t ctor_num=0; ctor_num < link_constructors_size/sizeof(constructor_ptr_t); ctor_num++ )
   b405e:	4e07      	ldr	r6, [pc, #28]	; (b407c <module_user_init+0x20>)
   b4060:	4c07      	ldr	r4, [pc, #28]	; (b4080 <module_user_init+0x24>)
    module_user_init_hook();
   b4062:	f003 fe1f 	bl	b7ca4 <module_user_init_hook>
    for (size_t ctor_num=0; ctor_num < link_constructors_size/sizeof(constructor_ptr_t); ctor_num++ )
   b4066:	1ba4      	subs	r4, r4, r6
   b4068:	08a4      	lsrs	r4, r4, #2
   b406a:	2500      	movs	r5, #0
   b406c:	42ac      	cmp	r4, r5
   b406e:	d100      	bne.n	b4072 <module_user_init+0x16>
    {
        link_constructors_location[ctor_num]();
    }
}
   b4070:	bd70      	pop	{r4, r5, r6, pc}
        link_constructors_location[ctor_num]();
   b4072:	f856 3b04 	ldr.w	r3, [r6], #4
   b4076:	4798      	blx	r3
    for (size_t ctor_num=0; ctor_num < link_constructors_size/sizeof(constructor_ptr_t); ctor_num++ )
   b4078:	3501      	adds	r5, #1
   b407a:	e7f7      	b.n	b406c <module_user_init+0x10>
   b407c:	000bc78c 	.word	0x000bc78c
   b4080:	000bc7b4 	.word	0x000bc7b4

000b4084 <module_user_setup>:

/**
 * Export these functions with a fuller name so they don't clash with the setup/loop wrappers in the system module.
 */
void module_user_setup() {
    setup();
   b4084:	f000 bd8e 	b.w	b4ba4 <setup>

000b4088 <module_user_loop>:
}

void module_user_loop() {
   b4088:	b508      	push	{r3, lr}
    loop();
   b408a:	f000 fe81 	bl	b4d90 <loop>
    _post_loop();
}
   b408e:	e8bd 4008 	ldmia.w	sp!, {r3, lr}
    _post_loop();
   b4092:	f003 bdbf 	b.w	b7c14 <_post_loop>

000b4096 <_Znwj>:
 * Implement C++ new/delete operators using the heap
 */

void *operator new(size_t size)
{
	return malloc(size);
   b4096:	f001 bd03 	b.w	b5aa0 <malloc>

000b409a <_Znaj>:
   b409a:	f001 bd01 	b.w	b5aa0 <malloc>

000b409e <_ZdlPvj>:
	free(p);
}

void operator delete(void *p, size_t size)
{
	free(p);
   b409e:	f001 bd07 	b.w	b5ab0 <free>

000b40a2 <__cxa_guard_acquire>:

/* Provide default implemenation for __cxa_guard_acquire() and
 * __cxa_guard_release(). Note: these must be revisited if a multitasking
 * OS is ported to this platform. */
__extension__ typedef int __guard __attribute__((mode (__DI__)));
int __cxa_guard_acquire(__guard *g) {return !*(char *)(g);};
   b40a2:	7800      	ldrb	r0, [r0, #0]
   b40a4:	fab0 f080 	clz	r0, r0
   b40a8:	0940      	lsrs	r0, r0, #5
   b40aa:	4770      	bx	lr

000b40ac <__cxa_guard_release>:
void __cxa_guard_release (__guard *g) {*(char *)g = 1;};
   b40ac:	2301      	movs	r3, #1
   b40ae:	7003      	strb	r3, [r0, #0]
   b40b0:	4770      	bx	lr
	...

000b40b4 <_Z20BLEOnConnectcallbackRKN8particle13BlePeerDeviceEPv>:
}
/**
 * @brief    Sets a flag when a new BLE connection is established
 */
void BLEOnConnectcallback(const BlePeerDevice &peer, void *context)
{
   b40b4:	b508      	push	{r3, lr}
    NewBLEConnection = true;
   b40b6:	4b04      	ldr	r3, [pc, #16]	; (b40c8 <_Z20BLEOnConnectcallbackRKN8particle13BlePeerDeviceEPv+0x14>)
   b40b8:	2201      	movs	r2, #1
   b40ba:	701a      	strb	r2, [r3, #0]

#ifdef __cplusplus
extern "C" {
#endif

inline system_tick_t millis(void) { return HAL_Timer_Get_Milli_Seconds(); }
   b40bc:	f001 fa0a 	bl	b54d4 <HAL_Timer_Get_Milli_Seconds>
    last_connect = millis();
   b40c0:	4b02      	ldr	r3, [pc, #8]	; (b40cc <_Z20BLEOnConnectcallbackRKN8particle13BlePeerDeviceEPv+0x18>)
   b40c2:	6018      	str	r0, [r3, #0]
}
   b40c4:	bd08      	pop	{r3, pc}
   b40c6:	bf00      	nop
   b40c8:	2003db7d 	.word	0x2003db7d
   b40cc:	2003dca8 	.word	0x2003dca8

000b40d0 <_Z13handle_sensorv>:
/**
 * @brief    IRQ handler for the KW sensor. This function is called every time the KW sensor detects a pulse.
 */
void handle_sensor(void)
{
   b40d0:	b508      	push	{r3, lr}
   b40d2:	f001 f9ff 	bl	b54d4 <HAL_Timer_Get_Milli_Seconds>
    static unsigned long last_read = 0;
    unsigned long current_reading = millis();
    unsigned long delta = current_reading - last_read;
   b40d6:	490c      	ldr	r1, [pc, #48]	; (b4108 <_Z13handle_sensorv+0x38>)
   b40d8:	680b      	ldr	r3, [r1, #0]
   b40da:	1ac3      	subs	r3, r0, r3

    // Check if we have a valid reading. I.e. at least 100 ms since last reading, which is equal to 36kW
    if (delta > 100)
   b40dc:	2b64      	cmp	r3, #100	; 0x64
   b40de:	d911      	bls.n	b4104 <_Z13handle_sensorv+0x34>
    {
        // We have a valid reading
        calc_power = WATT_CONVERSION_CONSTANT / delta;
   b40e0:	4a0a      	ldr	r2, [pc, #40]	; (b410c <_Z13handle_sensorv+0x3c>)
   b40e2:	fbb2 f3f3 	udiv	r3, r2, r3
   b40e6:	4a0a      	ldr	r2, [pc, #40]	; (b4110 <_Z13handle_sensorv+0x40>)
        last_read = current_reading;
   b40e8:	6008      	str	r0, [r1, #0]
        calc_power = WATT_CONVERSION_CONSTANT / delta;
   b40ea:	6013      	str	r3, [r2, #0]

        // One flash from sensor equals 1 Whr - Add to total
        wh_today[currentHour] += 1;
   b40ec:	4b09      	ldr	r3, [pc, #36]	; (b4114 <_Z13handle_sensorv+0x44>)
   b40ee:	7819      	ldrb	r1, [r3, #0]
   b40f0:	4b09      	ldr	r3, [pc, #36]	; (b4118 <_Z13handle_sensorv+0x48>)
   b40f2:	681a      	ldr	r2, [r3, #0]
   b40f4:	f852 3021 	ldr.w	r3, [r2, r1, lsl #2]
   b40f8:	3301      	adds	r3, #1
   b40fa:	f842 3021 	str.w	r3, [r2, r1, lsl #2]

        // Update flag - Transmit sensor values
        TRANSMIT_SENSOR = true;
   b40fe:	4b07      	ldr	r3, [pc, #28]	; (b411c <_Z13handle_sensorv+0x4c>)
   b4100:	2201      	movs	r2, #1
   b4102:	701a      	strb	r2, [r3, #0]
    }
}
   b4104:	bd08      	pop	{r3, pc}
   b4106:	bf00      	nop
   b4108:	2003dc2c 	.word	0x2003dc2c
   b410c:	0036ee80 	.word	0x0036ee80
   b4110:	2003dc94 	.word	0x2003dc94
   b4114:	2003dca4 	.word	0x2003dca4
   b4118:	2003e1b8 	.word	0x2003e1b8
   b411c:	2003db82 	.word	0x2003db82

000b4120 <_ZN5Timer7timeoutEv>:
     * Subclasses can either provide a callback function, or override
     * this timeout method.
     */
    virtual void timeout()
    {
        if (callback) {
   b4120:	6943      	ldr	r3, [r0, #20]
   b4122:	b113      	cbz	r3, b412a <_ZN5Timer7timeoutEv+0xa>
    function<_Res(_ArgTypes...)>::
    operator()(_ArgTypes... __args) const
    {
      if (_M_empty())
	__throw_bad_function_call();
      return _M_invoker(_M_functor, std::forward<_ArgTypes>(__args)...);
   b4124:	6983      	ldr	r3, [r0, #24]
   b4126:	300c      	adds	r0, #12
   b4128:	4718      	bx	r3
            callback();
        }
    }
   b412a:	4770      	bx	lr

000b412c <_ZN5Timer12invoke_timerEPv>:
private:
	volatile bool running;
    os_timer_t handle;
    timer_callback_fn callback;

    static void invoke_timer(os_timer_t timer)
   b412c:	b513      	push	{r0, r1, r4, lr}
typedef std::function<os_thread_return_t(void)> wiring_thread_fn_t;

class SingleThreadedSection {
public:
    SingleThreadedSection() {
        os_thread_scheduling(false, NULL);
   b412e:	2100      	movs	r1, #0
   b4130:	4604      	mov	r4, r0
   b4132:	4608      	mov	r0, r1
   b4134:	f001 fa70 	bl	b5618 <os_thread_scheduling>
    {
        Timer* t = nullptr;
        SINGLE_THREADED_BLOCK() {
            void* id = nullptr;
   b4138:	2300      	movs	r3, #0
            os_timer_get_id(timer, &id);
   b413a:	4620      	mov	r0, r4
   b413c:	a901      	add	r1, sp, #4
            void* id = nullptr;
   b413e:	9301      	str	r3, [sp, #4]
            os_timer_get_id(timer, &id);
   b4140:	f001 fa82 	bl	b5648 <os_timer_get_id>
            t = static_cast<Timer*>(id);
   b4144:	9c01      	ldr	r4, [sp, #4]
            if (t) {
   b4146:	b10c      	cbz	r4, b414c <_ZN5Timer12invoke_timerEPv+0x20>
                t->running = true;
   b4148:	2301      	movs	r3, #1
   b414a:	7123      	strb	r3, [r4, #4]
    }

    ~SingleThreadedSection() {
        os_thread_scheduling(true, NULL);
   b414c:	2100      	movs	r1, #0
   b414e:	2001      	movs	r0, #1
   b4150:	f001 fa62 	bl	b5618 <os_thread_scheduling>
            }
        }
        if (t) {
   b4154:	b12c      	cbz	r4, b4162 <_ZN5Timer12invoke_timerEPv+0x36>
            t->timeout();
   b4156:	6823      	ldr	r3, [r4, #0]
   b4158:	4620      	mov	r0, r4
   b415a:	689b      	ldr	r3, [r3, #8]
   b415c:	4798      	blx	r3
            t->running = false;
   b415e:	2300      	movs	r3, #0
   b4160:	7123      	strb	r3, [r4, #4]
        }
    }
   b4162:	b002      	add	sp, #8
   b4164:	bd10      	pop	{r4, pc}

000b4166 <_ZNSt17_Function_handlerIFvvEPS0_E10_M_managerERSt9_Any_dataRKS3_St18_Manager_operation>:
	switch (__op)
   b4166:	2a01      	cmp	r2, #1
   b4168:	d102      	bne.n	b4170 <_ZNSt17_Function_handlerIFvvEPS0_E10_M_managerERSt9_Any_dataRKS3_St18_Manager_operation+0xa>
	    __dest._M_access<_Functor*>() = _Base::_M_get_pointer(__source);
   b416a:	6001      	str	r1, [r0, #0]
      }
   b416c:	2000      	movs	r0, #0
   b416e:	4770      	bx	lr
	  switch (__op)
   b4170:	2a02      	cmp	r2, #2
	  ::new (__dest._M_access()) _Functor(__source._M_access<_Functor>());
   b4172:	bf04      	itt	eq
   b4174:	680b      	ldreq	r3, [r1, #0]
   b4176:	6003      	streq	r3, [r0, #0]
	      break;
   b4178:	e7f8      	b.n	b416c <_ZNSt17_Function_handlerIFvvEPS0_E10_M_managerERSt9_Any_dataRKS3_St18_Manager_operation+0x6>

000b417a <_ZNSt17_Function_handlerIFvvEPS0_E9_M_invokeERKSt9_Any_data>:
    { return static_cast<_Up&&>(__t); }

  template<typename _Res, typename _Fn, typename... _Args>
    constexpr _Res
    __invoke_impl(__invoke_other, _Fn&& __f, _Args&&... __args)
    { return std::forward<_Fn>(__f)(std::forward<_Args>(__args)...); }
   b417a:	6803      	ldr	r3, [r0, #0]
   b417c:	4718      	bx	r3

000b417e <_ZN5Timer4stopEj.isra.0>:
    bool stop(unsigned block=default_wait) { return _stop(block, false); }
   b417e:	b507      	push	{r0, r1, r2, lr}
        return handle ? !os_timer_change(handle, OS_TIMER_CHANGE_STOP, fromISR, 0, block, nullptr) : false;
   b4180:	6880      	ldr	r0, [r0, #8]
   b4182:	b130      	cbz	r0, b4192 <_ZN5Timer4stopEj.isra.0+0x14>
   b4184:	2300      	movs	r3, #0
   b4186:	e9cd 1300 	strd	r1, r3, [sp]
   b418a:	461a      	mov	r2, r3
   b418c:	2102      	movs	r1, #2
   b418e:	f001 fa63 	bl	b5658 <os_timer_change>
    bool stop(unsigned block=default_wait) { return _stop(block, false); }
   b4192:	b003      	add	sp, #12
   b4194:	f85d fb04 	ldr.w	pc, [sp], #4

000b4198 <_ZN5Timer6_startEjb.isra.0>:
    bool _start(unsigned block, bool fromISR=false)
   b4198:	b530      	push	{r4, r5, lr}
   b419a:	4605      	mov	r5, r0
   b419c:	b085      	sub	sp, #20
   b419e:	460c      	mov	r4, r1
        stop(fromISR);
   b41a0:	4611      	mov	r1, r2
   b41a2:	9203      	str	r2, [sp, #12]
   b41a4:	f7ff ffeb 	bl	b417e <_ZN5Timer4stopEj.isra.0>
        return handle ? !os_timer_change(handle, OS_TIMER_CHANGE_START, fromISR, 0, block, nullptr) : false;
   b41a8:	68a8      	ldr	r0, [r5, #8]
   b41aa:	b130      	cbz	r0, b41ba <_ZN5Timer6_startEjb.isra.0+0x22>
   b41ac:	2300      	movs	r3, #0
   b41ae:	e9cd 4300 	strd	r4, r3, [sp]
   b41b2:	9a03      	ldr	r2, [sp, #12]
   b41b4:	4619      	mov	r1, r3
   b41b6:	f001 fa4f 	bl	b5658 <os_timer_change>
    }
   b41ba:	b005      	add	sp, #20
   b41bc:	bd30      	pop	{r4, r5, pc}
	...

000b41c0 <_Z10check_timev>:
}
/**
 * @brief     Checks the current time and decides if it is time to update the prices, update watt hours or rotate price and watt hour arrays.
 */
void check_time(void)
{
   b41c0:	e92d 41f3 	stmdb	sp!, {r0, r1, r4, r5, r6, r7, r8, lr}
    currentHour = Time.hour();
   b41c4:	f003 fcac 	bl	b7b20 <_ZN9TimeClass4hourEv>
   b41c8:	4f26      	ldr	r7, [pc, #152]	; (b4264 <_Z10check_timev+0xa4>)

    // Set new countdown to aim for xx:00:01 within a second (+1 for safe side)
    countdown = ((60 - currentMinute) * 60000) - (currentSecond + 1);

    // Start timer again with new countdown
    timer.stop();
   b41ca:	f8df 809c 	ldr.w	r8, [pc, #156]	; b4268 <_Z10check_timev+0xa8>
    currentHour = Time.hour();
   b41ce:	7038      	strb	r0, [r7, #0]
    uint8_t currentMinute = Time.minute();
   b41d0:	f003 fcb2 	bl	b7b38 <_ZN9TimeClass6minuteEv>
   b41d4:	b2c6      	uxtb	r6, r0
    uint8_t currentSecond = Time.second();
   b41d6:	f003 fcbb 	bl	b7b50 <_ZN9TimeClass6secondEv>
   b41da:	4605      	mov	r5, r0
    uint8_t currentDay = Time.day();
   b41dc:	f003 fcc4 	bl	b7b68 <_ZN9TimeClass3dayEv>
    timer.stop();
   b41e0:	f06f 4100 	mvn.w	r1, #2147483648	; 0x80000000
    uint8_t currentDay = Time.day();
   b41e4:	4604      	mov	r4, r0
    timer.stop();
   b41e6:	4640      	mov	r0, r8
   b41e8:	f7ff ffc9 	bl	b417e <_ZN5Timer4stopEj.isra.0>
         return handle ? !os_timer_change(handle, OS_TIMER_CHANGE_PERIOD, fromISR, period, block, nullptr) : false;
   b41ec:	f8d8 0008 	ldr.w	r0, [r8, #8]
   b41f0:	b178      	cbz	r0, b4212 <_Z10check_timev+0x52>
   b41f2:	f06f 4100 	mvn.w	r1, #2147483648	; 0x80000000
    countdown = ((60 - currentMinute) * 60000) - (currentSecond + 1);
   b41f6:	b2ed      	uxtb	r5, r5
   b41f8:	2200      	movs	r2, #0
   b41fa:	e9cd 1200 	strd	r1, r2, [sp]
   b41fe:	f1c6 033c 	rsb	r3, r6, #60	; 0x3c
   b4202:	f64e 2160 	movw	r1, #60000	; 0xea60
   b4206:	43ed      	mvns	r5, r5
   b4208:	fb01 5303 	mla	r3, r1, r3, r5
   b420c:	2103      	movs	r1, #3
   b420e:	f001 fa23 	bl	b5658 <os_timer_change>
    bool start(unsigned block=default_wait) { return _start(block, false); }
   b4212:	4815      	ldr	r0, [pc, #84]	; (b4268 <_Z10check_timev+0xa8>)
   b4214:	2200      	movs	r2, #0
   b4216:	f06f 4100 	mvn.w	r1, #2147483648	; 0x80000000
   b421a:	f7ff ffbd 	bl	b4198 <_ZN5Timer6_startEjb.isra.0>
    timer.changePeriod(countdown);
    timer.start();

    if ((currentHour == PULL_TIME_1) && currentDay != oneShotGuard)
   b421e:	783b      	ldrb	r3, [r7, #0]
   b4220:	2b0d      	cmp	r3, #13
   b4222:	d114      	bne.n	b424e <_Z10check_timev+0x8e>
   b4224:	4a11      	ldr	r2, [pc, #68]	; (b426c <_Z10check_timev+0xac>)
   b4226:	6811      	ldr	r1, [r2, #0]
   b4228:	b2e4      	uxtb	r4, r4
   b422a:	42a1      	cmp	r1, r4
   b422c:	d003      	beq.n	b4236 <_Z10check_timev+0x76>
    {
        oneShotGuard = currentDay;
   b422e:	6014      	str	r4, [r2, #0]
        GET_DATA = true;
   b4230:	4a0f      	ldr	r2, [pc, #60]	; (b4270 <_Z10check_timev+0xb0>)
    }
    if ((currentHour == PULL_TIME_2) && currentDay != oneShotGuard2)
    {
        oneShotGuard2 = currentDay;

        ROTATE = true;
   b4232:	2101      	movs	r1, #1
   b4234:	7011      	strb	r1, [r2, #0]
    }
    if (currentMinute == 0 && currentHour != oneShotGuard3)
   b4236:	b93e      	cbnz	r6, b4248 <_Z10check_timev+0x88>
   b4238:	4a0e      	ldr	r2, [pc, #56]	; (b4274 <_Z10check_timev+0xb4>)
   b423a:	6811      	ldr	r1, [r2, #0]
   b423c:	428b      	cmp	r3, r1
    {
        oneShotGuard3 = currentHour;
   b423e:	bf1f      	itttt	ne
   b4240:	6013      	strne	r3, [r2, #0]
        // Update the wh_today array
        UPDATE_WH_TODAY = true;
   b4242:	4b0d      	ldrne	r3, [pc, #52]	; (b4278 <_Z10check_timev+0xb8>)
   b4244:	2201      	movne	r2, #1
   b4246:	701a      	strbne	r2, [r3, #0]
    }
   b4248:	b002      	add	sp, #8
   b424a:	e8bd 81f0 	ldmia.w	sp!, {r4, r5, r6, r7, r8, pc}
    if ((currentHour == PULL_TIME_2) && currentDay != oneShotGuard2)
   b424e:	2b00      	cmp	r3, #0
   b4250:	d1f1      	bne.n	b4236 <_Z10check_timev+0x76>
   b4252:	4a0a      	ldr	r2, [pc, #40]	; (b427c <_Z10check_timev+0xbc>)
   b4254:	6811      	ldr	r1, [r2, #0]
   b4256:	b2e4      	uxtb	r4, r4
   b4258:	42a1      	cmp	r1, r4
   b425a:	d0ec      	beq.n	b4236 <_Z10check_timev+0x76>
        oneShotGuard2 = currentDay;
   b425c:	6014      	str	r4, [r2, #0]
        ROTATE = true;
   b425e:	4a08      	ldr	r2, [pc, #32]	; (b4280 <_Z10check_timev+0xc0>)
   b4260:	e7e7      	b.n	b4232 <_Z10check_timev+0x72>
   b4262:	bf00      	nop
   b4264:	2003dca4 	.word	0x2003dca4
   b4268:	2003e150 	.word	0x2003e150
   b426c:	2003d96c 	.word	0x2003d96c
   b4270:	2003db7c 	.word	0x2003db7c
   b4274:	2003d974 	.word	0x2003d974
   b4278:	2003db83 	.word	0x2003db83
   b427c:	2003d970 	.word	0x2003d970
   b4280:	2003db7e 	.word	0x2003db7e

000b4284 <_ZN5Print6printfEPKcz>:
    size_t println(double, int = 2);
    size_t println(const Printable&);
    size_t println(void);
    size_t println(const __FlashStringHelper*);

    size_t printf(const char* format, ...) __attribute__ ((format(printf, 2, 3)))
   b4284:	b40e      	push	{r1, r2, r3}
   b4286:	b503      	push	{r0, r1, lr}
   b4288:	ab03      	add	r3, sp, #12
    {
        va_list args;
        va_start(args, format);
        auto r = this->vprintf(false, format, args);
   b428a:	2100      	movs	r1, #0
    size_t printf(const char* format, ...) __attribute__ ((format(printf, 2, 3)))
   b428c:	f853 2b04 	ldr.w	r2, [r3], #4
        va_start(args, format);
   b4290:	9301      	str	r3, [sp, #4]
        auto r = this->vprintf(false, format, args);
   b4292:	f003 fb70 	bl	b7976 <_ZN5Print7vprintfEbPKcSt9__va_list>
        va_end(args);
        return r;
    }
   b4296:	b002      	add	sp, #8
   b4298:	f85d eb04 	ldr.w	lr, [sp], #4
   b429c:	b003      	add	sp, #12
   b429e:	4770      	bx	lr

000b42a0 <_Z9myHandlerPKcS0_>:
    // Trigger the integration
    Particle.publish("elpriser", data, PRIVATE);
}

void myHandler(const char *event, const char *data)
{
   b42a0:	e92d 4ff0 	stmdb	sp!, {r4, r5, r6, r7, r8, r9, sl, fp, lr}
   b42a4:	4605      	mov	r5, r0
   b42a6:	b085      	sub	sp, #20

    /* When transmissions are greater than 512 bytes, it will be split into 512
     * byte parts. The final transmission part should therefore be less than 512.
     * Save transmission size into variable so we can act on it
     */
    int transmission_size = strlen(data);
   b42a8:	4608      	mov	r0, r1
{
   b42aa:	460c      	mov	r4, r1
    int transmission_size = strlen(data);
   b42ac:	f005 facf 	bl	b984e <strlen>

    // "eventname/<transmission part no>"
    char event_str[12];
    strcpy(event_str, event);
   b42b0:	4629      	mov	r1, r5
    int transmission_size = strlen(data);
   b42b2:	4606      	mov	r6, r0
    strcpy(event_str, event);
   b42b4:	a801      	add	r0, sp, #4
   b42b6:	f005 faa4 	bl	b9802 <strcpy>
    //Serial.printf("event_str: %s\n", event_str);
    // Token used for strtok()
    char *token = NULL;
    // Extract the numbered part of eventname and use it for indexing "temp"
    strcat(&temp[atoi(strtok(event_str, "prices/")) * 512], data);
   b42ba:	4939      	ldr	r1, [pc, #228]	; (b43a0 <_Z9myHandlerPKcS0_+0x100>)
   b42bc:	4d39      	ldr	r5, [pc, #228]	; (b43a4 <_Z9myHandlerPKcS0_+0x104>)
   b42be:	a801      	add	r0, sp, #4
   b42c0:	f006 f91c 	bl	ba4fc <strtok>
   b42c4:	f005 fa11 	bl	b96ea <atoi>
   b42c8:	4621      	mov	r1, r4
   b42ca:	eb05 2040 	add.w	r0, r5, r0, lsl #9
   b42ce:	f005 fa7f 	bl	b97d0 <strcat>
    // If transmission size is less than 512 = last transmission received
    if (transmission_size < 512)
   b42d2:	f5b6 7f00 	cmp.w	r6, #512	; 0x200
   b42d6:	d230      	bcs.n	b433a <_Z9myHandlerPKcS0_+0x9a>
    }

    if (populate)
    {
        // Display what has been received
        Serial.printf("%s\n", temp);
   b42d8:	f004 f89e 	bl	b8418 <_Z16_fetch_usbserialv>
   b42dc:	462a      	mov	r2, r5
   b42de:	4932      	ldr	r1, [pc, #200]	; (b43a8 <_Z9myHandlerPKcS0_+0x108>)
            {
                cost_tomorrow[i] = (atof(token) / 1000.0)+transport.high;
            }
            else
            {
                cost_tomorrow[i] = (atof(token) / 1000.0)+transport.medium;
   b42e0:	4f32      	ldr	r7, [pc, #200]	; (b43ac <_Z9myHandlerPKcS0_+0x10c>)
        Serial.printf("%s\n", temp);
   b42e2:	f7ff ffcf 	bl	b4284 <_ZN5Print6printfEPKcz>
        token = strtok(temp, ",!");
   b42e6:	4628      	mov	r0, r5
   b42e8:	4931      	ldr	r1, [pc, #196]	; (b43b0 <_Z9myHandlerPKcS0_+0x110>)
   b42ea:	f006 f907 	bl	ba4fc <strtok>
                cost_tomorrow[i] = (atof(token) / 1000.0)+transport.high;
   b42ee:	f20f 0998 	addw	r9, pc, #152	; 0x98
   b42f2:	e9d9 8900 	ldrd	r8, r9, [r9]
        token = strtok(temp, ",!");
   b42f6:	4605      	mov	r5, r0
        for (int i = 0; i < MAX_RANGE; i++)
   b42f8:	2400      	movs	r4, #0
                cost_tomorrow[i] = (atof(token) / 1000.0)+transport.medium;
   b42fa:	2600      	movs	r6, #0
            if (i >= 0 && i < 7)
   b42fc:	2c06      	cmp	r4, #6
   b42fe:	f8df a0b8 	ldr.w	sl, [pc, #184]	; b43b8 <_Z9myHandlerPKcS0_+0x118>
   b4302:	ea4f 0bc4 	mov.w	fp, r4, lsl #3
   b4306:	dc1b      	bgt.n	b4340 <_Z9myHandlerPKcS0_+0xa0>
                 cost_tomorrow[i] = (atof(token) / 1000.0)+transport.low;
   b4308:	4628      	mov	r0, r5
   b430a:	f005 f9eb 	bl	b96e4 <atof>
   b430e:	f8da 3000 	ldr.w	r3, [sl]
   b4312:	4632      	mov	r2, r6
   b4314:	ec51 0b10 	vmov	r0, r1, d0
   b4318:	449b      	add	fp, r3
   b431a:	463b      	mov	r3, r7
   b431c:	f004 fffa 	bl	b9314 <__aeabi_ddiv>
   b4320:	a31b      	add	r3, pc, #108	; (adr r3, b4390 <_Z9myHandlerPKcS0_+0xf0>)
   b4322:	e9d3 2300 	ldrd	r2, r3, [r3]
                cost_tomorrow[i] = (atof(token) / 1000.0)+transport.medium;
   b4326:	f004 fd15 	bl	b8d54 <__adddf3>
        for (int i = 0; i < MAX_RANGE; i++)
   b432a:	3401      	adds	r4, #1
   b432c:	2c18      	cmp	r4, #24
                cost_tomorrow[i] = (atof(token) / 1000.0)+transport.medium;
   b432e:	e9cb 0100 	strd	r0, r1, [fp]
        for (int i = 0; i < MAX_RANGE; i++)
   b4332:	d1e3      	bne.n	b42fc <_Z9myHandlerPKcS0_+0x5c>
            }

        }
        CALCULATE = true;
   b4334:	4b1f      	ldr	r3, [pc, #124]	; (b43b4 <_Z9myHandlerPKcS0_+0x114>)
   b4336:	2201      	movs	r2, #1
   b4338:	701a      	strb	r2, [r3, #0]
    }
   b433a:	b005      	add	sp, #20
   b433c:	e8bd 8ff0 	ldmia.w	sp!, {r4, r5, r6, r7, r8, r9, sl, fp, pc}
            else if (i > 16 && i < 22)
   b4340:	f1a4 0311 	sub.w	r3, r4, #17
   b4344:	2b04      	cmp	r3, #4
                cost_tomorrow[i] = (atof(token) / 1000.0)+transport.high;
   b4346:	4628      	mov	r0, r5
            else if (i > 16 && i < 22)
   b4348:	d80d      	bhi.n	b4366 <_Z9myHandlerPKcS0_+0xc6>
                cost_tomorrow[i] = (atof(token) / 1000.0)+transport.high;
   b434a:	f005 f9cb 	bl	b96e4 <atof>
   b434e:	f8da 3000 	ldr.w	r3, [sl]
   b4352:	4632      	mov	r2, r6
   b4354:	ec51 0b10 	vmov	r0, r1, d0
   b4358:	449b      	add	fp, r3
   b435a:	463b      	mov	r3, r7
   b435c:	f004 ffda 	bl	b9314 <__aeabi_ddiv>
   b4360:	4642      	mov	r2, r8
   b4362:	464b      	mov	r3, r9
   b4364:	e7df      	b.n	b4326 <_Z9myHandlerPKcS0_+0x86>
                cost_tomorrow[i] = (atof(token) / 1000.0)+transport.medium;
   b4366:	f005 f9bd 	bl	b96e4 <atof>
   b436a:	f8da 3000 	ldr.w	r3, [sl]
   b436e:	4632      	mov	r2, r6
   b4370:	ec51 0b10 	vmov	r0, r1, d0
   b4374:	449b      	add	fp, r3
   b4376:	463b      	mov	r3, r7
   b4378:	f004 ffcc 	bl	b9314 <__aeabi_ddiv>
   b437c:	a306      	add	r3, pc, #24	; (adr r3, b4398 <_Z9myHandlerPKcS0_+0xf8>)
   b437e:	e9d3 2300 	ldrd	r2, r3, [r3]
   b4382:	e7d0      	b.n	b4326 <_Z9myHandlerPKcS0_+0x86>
   b4384:	f3af 8000 	nop.w
   b4388:	2d0e5604 	.word	0x2d0e5604
   b438c:	3ffe9db2 	.word	0x3ffe9db2
   b4390:	ebedfa44 	.word	0xebedfa44
   b4394:	3fcb39c0 	.word	0x3fcb39c0
   b4398:	42c3c9ef 	.word	0x42c3c9ef
   b439c:	3fe469ad 	.word	0x3fe469ad
   b43a0:	000bb8b0 	.word	0x000bb8b0
   b43a4:	2003dd4c 	.word	0x2003dd4c
   b43a8:	000bb8b8 	.word	0x000bb8b8
   b43ac:	408f4000 	.word	0x408f4000
   b43b0:	000bb8bc 	.word	0x000bb8bc
   b43b4:	2003db61 	.word	0x2003db61
   b43b8:	2003dc9c 	.word	0x2003dc9c

000b43bc <_ZN5Print8printlnfEPKcz>:

    size_t printlnf(const char* format, ...) __attribute__ ((format(printf, 2, 3)))
   b43bc:	b40e      	push	{r1, r2, r3}
   b43be:	b503      	push	{r0, r1, lr}
   b43c0:	ab03      	add	r3, sp, #12
    {
        va_list args;
        va_start(args, format);
        auto r = this->vprintf(true, format, args);
   b43c2:	2101      	movs	r1, #1
    size_t printlnf(const char* format, ...) __attribute__ ((format(printf, 2, 3)))
   b43c4:	f853 2b04 	ldr.w	r2, [r3], #4
        va_start(args, format);
   b43c8:	9301      	str	r3, [sp, #4]
        auto r = this->vprintf(true, format, args);
   b43ca:	f003 fad4 	bl	b7976 <_ZN5Print7vprintfEbPKcSt9__va_list>
        va_end(args);
        return r;
    }
   b43ce:	b002      	add	sp, #8
   b43d0:	f85d eb04 	ldr.w	lr, [sp], #4
   b43d4:	b003      	add	sp, #12
   b43d6:	4770      	bx	lr

000b43d8 <_ZNSt14_Function_baseD1Ev>:
    ~_Function_base()
   b43d8:	b510      	push	{r4, lr}
      if (_M_manager)
   b43da:	6883      	ldr	r3, [r0, #8]
    ~_Function_base()
   b43dc:	4604      	mov	r4, r0
      if (_M_manager)
   b43de:	b113      	cbz	r3, b43e6 <_ZNSt14_Function_baseD1Ev+0xe>
	_M_manager(_M_functor, _M_functor, __destroy_functor);
   b43e0:	2203      	movs	r2, #3
   b43e2:	4601      	mov	r1, r0
   b43e4:	4798      	blx	r3
    }
   b43e6:	4620      	mov	r0, r4
   b43e8:	bd10      	pop	{r4, pc}
	...

000b43ec <_ZN5TimerD1Ev>:
    virtual ~Timer() {
   b43ec:	b538      	push	{r3, r4, r5, lr}
   b43ee:	4b0f      	ldr	r3, [pc, #60]	; (b442c <_ZN5TimerD1Ev+0x40>)
   b43f0:	6003      	str	r3, [r0, #0]
        if (handle) {
   b43f2:	6883      	ldr	r3, [r0, #8]
    virtual ~Timer() {
   b43f4:	4604      	mov	r4, r0
        if (handle) {
   b43f6:	b19b      	cbz	r3, b4420 <_ZN5TimerD1Ev+0x34>
            stop();
   b43f8:	f06f 4100 	mvn.w	r1, #2147483648	; 0x80000000
   b43fc:	f7ff febf 	bl	b417e <_ZN5Timer4stopEj.isra.0>
            os_timer_set_id(handle, nullptr);
   b4400:	68a0      	ldr	r0, [r4, #8]
   b4402:	2100      	movs	r1, #0
   b4404:	f001 f948 	bl	b5698 <os_timer_set_id>
            while (running) {
   b4408:	7923      	ldrb	r3, [r4, #4]
   b440a:	f003 05ff 	and.w	r5, r3, #255	; 0xff
   b440e:	b113      	cbz	r3, b4416 <_ZN5TimerD1Ev+0x2a>
                os_thread_yield();
   b4410:	f001 f8fa 	bl	b5608 <os_thread_yield>
            while (running) {
   b4414:	e7f8      	b.n	b4408 <_ZN5TimerD1Ev+0x1c>
            os_timer_destroy(handle, nullptr);
   b4416:	68a0      	ldr	r0, [r4, #8]
   b4418:	4629      	mov	r1, r5
   b441a:	f001 f90d 	bl	b5638 <os_timer_destroy>
            handle = nullptr;
   b441e:	60a5      	str	r5, [r4, #8]
    class function<_Res(_ArgTypes...)>
   b4420:	f104 000c 	add.w	r0, r4, #12
   b4424:	f7ff ffd8 	bl	b43d8 <_ZNSt14_Function_baseD1Ev>
    }
   b4428:	4620      	mov	r0, r4
   b442a:	bd38      	pop	{r3, r4, r5, pc}
   b442c:	000bbcdc 	.word	0x000bbcdc

000b4430 <_ZN5TimerD0Ev>:
    virtual ~Timer() {
   b4430:	b510      	push	{r4, lr}
   b4432:	4604      	mov	r4, r0
    }
   b4434:	f7ff ffda 	bl	b43ec <_ZN5TimerD1Ev>
   b4438:	4620      	mov	r0, r4
   b443a:	211c      	movs	r1, #28
   b443c:	f7ff fe2f 	bl	b409e <_ZdlPvj>
   b4440:	4620      	mov	r0, r4
   b4442:	bd10      	pop	{r4, pc}

000b4444 <_Z9ble_setupv>:
        }
*/
void BLEOnConnectcallback(const BlePeerDevice& peer, void* context);


void ble_setup(void){
   b4444:	b570      	push	{r4, r5, r6, lr}
   b4446:	b090      	sub	sp, #64	; 0x40
    //BLE.selectAntenna(BleAntennaType::EXTERNAL);// change to internal if an external antenna is not attached.
    BLE.on();
   b4448:	f002 fba2 	bl	b6b90 <_ZN8particle14BleLocalDevice11getInstanceEv>
   b444c:	f002 fbea 	bl	b6c24 <_ZNK8particle14BleLocalDevice2onEv>
    //*****BLE setup*****
    BLE.addCharacteristic(WattCharacteristic);
   b4450:	f002 fb9e 	bl	b6b90 <_ZN8particle14BleLocalDevice11getInstanceEv>
   b4454:	4a3d      	ldr	r2, [pc, #244]	; (b454c <_Z9ble_setupv+0x108>)
   b4456:	4c3e      	ldr	r4, [pc, #248]	; (b4550 <_Z9ble_setupv+0x10c>)
   b4458:	4601      	mov	r1, r0
   b445a:	a80b      	add	r0, sp, #44	; 0x2c
   b445c:	f003 f91c 	bl	b7698 <_ZN8particle14BleLocalDevice17addCharacteristicERKNS_17BleCharacteristicE>
   b4460:	a80b      	add	r0, sp, #44	; 0x2c
   b4462:	f002 fc96 	bl	b6d92 <_ZN8particle17BleCharacteristicD1Ev>
    BLE.addCharacteristic(DkkYesterdayCharacteristic);
   b4466:	f002 fb93 	bl	b6b90 <_ZN8particle14BleLocalDevice11getInstanceEv>
   b446a:	4a3a      	ldr	r2, [pc, #232]	; (b4554 <_Z9ble_setupv+0x110>)
   b446c:	4601      	mov	r1, r0
   b446e:	a80b      	add	r0, sp, #44	; 0x2c
   b4470:	f003 f912 	bl	b7698 <_ZN8particle14BleLocalDevice17addCharacteristicERKNS_17BleCharacteristicE>
   b4474:	a80b      	add	r0, sp, #44	; 0x2c
   b4476:	f002 fc8c 	bl	b6d92 <_ZN8particle17BleCharacteristicD1Ev>
    BLE.addCharacteristic(DkkTodayCharacteristic);
   b447a:	f002 fb89 	bl	b6b90 <_ZN8particle14BleLocalDevice11getInstanceEv>
   b447e:	4a36      	ldr	r2, [pc, #216]	; (b4558 <_Z9ble_setupv+0x114>)
   b4480:	4601      	mov	r1, r0
   b4482:	a80b      	add	r0, sp, #44	; 0x2c
   b4484:	f003 f908 	bl	b7698 <_ZN8particle14BleLocalDevice17addCharacteristicERKNS_17BleCharacteristicE>
   b4488:	a80b      	add	r0, sp, #44	; 0x2c
   b448a:	f002 fc82 	bl	b6d92 <_ZN8particle17BleCharacteristicD1Ev>
    BLE.addCharacteristic(DkkTomorrowCharacteristic);
   b448e:	f002 fb7f 	bl	b6b90 <_ZN8particle14BleLocalDevice11getInstanceEv>
   b4492:	4a32      	ldr	r2, [pc, #200]	; (b455c <_Z9ble_setupv+0x118>)
   b4494:	4601      	mov	r1, r0
   b4496:	a80b      	add	r0, sp, #44	; 0x2c
   b4498:	f003 f8fe 	bl	b7698 <_ZN8particle14BleLocalDevice17addCharacteristicERKNS_17BleCharacteristicE>
   b449c:	a80b      	add	r0, sp, #44	; 0x2c
   b449e:	f002 fc78 	bl	b6d92 <_ZN8particle17BleCharacteristicD1Ev>
    BLE.addCharacteristic(WhrTodayCharacteristic);
   b44a2:	f002 fb75 	bl	b6b90 <_ZN8particle14BleLocalDevice11getInstanceEv>
   b44a6:	4a2e      	ldr	r2, [pc, #184]	; (b4560 <_Z9ble_setupv+0x11c>)
   b44a8:	4601      	mov	r1, r0
   b44aa:	a80b      	add	r0, sp, #44	; 0x2c
   b44ac:	f003 f8f4 	bl	b7698 <_ZN8particle14BleLocalDevice17addCharacteristicERKNS_17BleCharacteristicE>
   b44b0:	a80b      	add	r0, sp, #44	; 0x2c
   b44b2:	f002 fc6e 	bl	b6d92 <_ZN8particle17BleCharacteristicD1Ev>
    BLE.addCharacteristic(WhrYesterdayCharacteristic);
   b44b6:	f002 fb6b 	bl	b6b90 <_ZN8particle14BleLocalDevice11getInstanceEv>
   b44ba:	4a2a      	ldr	r2, [pc, #168]	; (b4564 <_Z9ble_setupv+0x120>)
   b44bc:	4601      	mov	r1, r0
   b44be:	a80b      	add	r0, sp, #44	; 0x2c
   b44c0:	f003 f8ea 	bl	b7698 <_ZN8particle14BleLocalDevice17addCharacteristicERKNS_17BleCharacteristicE>
   b44c4:	a80b      	add	r0, sp, #44	; 0x2c
   b44c6:	f002 fc64 	bl	b6d92 <_ZN8particle17BleCharacteristicD1Ev>
    BleAdvertisingData advData;
   b44ca:	a803      	add	r0, sp, #12
   b44cc:	f002 fd97 	bl	b6ffe <_ZN8particle18BleAdvertisingDataC1Ev>
    advData.appendLocalName(argonName);
   b44d0:	4b25      	ldr	r3, [pc, #148]	; (b4568 <_Z9ble_setupv+0x124>)
   b44d2:	a803      	add	r0, sp, #12
   b44d4:	6819      	ldr	r1, [r3, #0]
   b44d6:	f002 fda5 	bl	b7024 <_ZN8particle18BleAdvertisingData15appendLocalNameEPKc>
    advData.appendServiceUUID(powermonitorserviceUuid);
   b44da:	cc0f      	ldmia	r4!, {r0, r1, r2, r3}
   b44dc:	ad06      	add	r5, sp, #24
   b44de:	c50f      	stmia	r5!, {r0, r1, r2, r3}
    size_t appendLocalName(const String& name);
    size_t appendAppearance(ble_sig_appearance_t appearance);

    template<typename T>
    size_t appendServiceUUID(T uuid, bool force = false) {
        BleUuid tempUUID(uuid);
   b44e0:	ad06      	add	r5, sp, #24
   b44e2:	cd0f      	ldmia	r5!, {r0, r1, r2, r3}
   b44e4:	6826      	ldr	r6, [r4, #0]
   b44e6:	ac0b      	add	r4, sp, #44	; 0x2c
   b44e8:	c40f      	stmia	r4!, {r0, r1, r2, r3}
        if (tempUUID.type() == BleUuidType::SHORT) {
   b44ea:	a80b      	add	r0, sp, #44	; 0x2c
        BleUuid tempUUID(uuid);
   b44ec:	6026      	str	r6, [r4, #0]
        if (tempUUID.type() == BleUuidType::SHORT) {
   b44ee:	f002 f95d 	bl	b67ac <_ZNK8particle7BleUuid4typeEv>
   b44f2:	4604      	mov	r4, r0
            uint16_t uuid16 = tempUUID.shorted();
   b44f4:	a80b      	add	r0, sp, #44	; 0x2c
        if (tempUUID.type() == BleUuidType::SHORT) {
   b44f6:	bb0c      	cbnz	r4, b453c <_Z9ble_setupv+0xf8>
            uint16_t uuid16 = tempUUID.shorted();
   b44f8:	f002 f974 	bl	b67e4 <_ZNK8particle7BleUuid7shortedEv>
            return append(BleAdvertisingDataType::SERVICE_UUID_16BIT_COMPLETE, reinterpret_cast<const uint8_t*>(&uuid16), sizeof(uint16_t), force);
   b44fc:	9400      	str	r4, [sp, #0]
            uint16_t uuid16 = tempUUID.shorted();
   b44fe:	f8ad 000a 	strh.w	r0, [sp, #10]
            return append(BleAdvertisingDataType::SERVICE_UUID_16BIT_COMPLETE, reinterpret_cast<const uint8_t*>(&uuid16), sizeof(uint16_t), force);
   b4502:	2302      	movs	r3, #2
   b4504:	f10d 020a 	add.w	r2, sp, #10
   b4508:	2103      	movs	r1, #3
        }
        else {
            return append(BleAdvertisingDataType::SERVICE_UUID_128BIT_COMPLETE, tempUUID.rawBytes(), BLE_SIG_UUID_128BIT_LEN, force);
   b450a:	a803      	add	r0, sp, #12
   b450c:	f002 fd6c 	bl	b6fe8 <_ZN8particle18BleAdvertisingData6appendENS_22BleAdvertisingDataTypeEPKhjb>
    BLE.advertise(&advData);
   b4510:	f002 fb3e 	bl	b6b90 <_ZN8particle14BleLocalDevice11getInstanceEv>
   b4514:	2200      	movs	r2, #0
   b4516:	a903      	add	r1, sp, #12
   b4518:	f002 fbce 	bl	b6cb8 <_ZNK8particle14BleLocalDevice9advertiseEPNS_18BleAdvertisingDataES2_>
    Serial.println("Waiting for BLEclient connection...");
   b451c:	f003 ff7c 	bl	b8418 <_Z16_fetch_usbserialv>
   b4520:	4912      	ldr	r1, [pc, #72]	; (b456c <_Z9ble_setupv+0x128>)
   b4522:	f003 fa00 	bl	b7926 <_ZN5Print7printlnEPKc>
    BLE.onConnected(BLEOnConnectcallback);
   b4526:	f002 fb33 	bl	b6b90 <_ZN8particle14BleLocalDevice11getInstanceEv>
   b452a:	4911      	ldr	r1, [pc, #68]	; (b4570 <_Z9ble_setupv+0x12c>)
   b452c:	2200      	movs	r2, #0
   b452e:	f002 ffb5 	bl	b749c <_ZNK8particle14BleLocalDevice11onConnectedEPFvRKNS_13BlePeerDeviceEPvES4_>
inline void* spark::DefaultAllocator::realloc(void* ptr, size_t size) {
    return ::realloc(ptr, size);
}

inline void spark::DefaultAllocator::free(void* ptr) {
    ::free(ptr);
   b4532:	9803      	ldr	r0, [sp, #12]
   b4534:	f001 fabc 	bl	b5ab0 <free>

}
   b4538:	b010      	add	sp, #64	; 0x40
   b453a:	bd70      	pop	{r4, r5, r6, pc}
   b453c:	f002 f954 	bl	b67e8 <_ZNK8particle7BleUuid8rawBytesEv>
   b4540:	2300      	movs	r3, #0
   b4542:	9300      	str	r3, [sp, #0]
   b4544:	4602      	mov	r2, r0
   b4546:	2310      	movs	r3, #16
   b4548:	2107      	movs	r1, #7
   b454a:	e7de      	b.n	b450a <_Z9ble_setupv+0xc6>
   b454c:	2003db84 	.word	0x2003db84
   b4550:	2003dbb0 	.word	0x2003dbb0
   b4554:	2003db74 	.word	0x2003db74
   b4558:	2003db64 	.word	0x2003db64
   b455c:	2003db6c 	.word	0x2003db6c
   b4560:	2003db8c 	.word	0x2003db8c
   b4564:	2003db94 	.word	0x2003db94
   b4568:	2003d968 	.word	0x2003d968
   b456c:	000bb8bf 	.word	0x000bb8bf
   b4570:	000b40b5 	.word	0x000b40b5
   b4574:	00000000 	.word	0x00000000

000b4578 <_Z8calc_lowPA2_iPdi>:
 *  Furthermore neighbouring low cost hour are identified and saved in an array for easy presentation
 * @param low_price_intervals 2D array into which to low price times are put
 * @param cost array of costs
*/
int calc_low(int low_price_intervals[12][2], double * cost, int size)
{
   b4578:	e92d 4ff0 	stmdb	sp!, {r4, r5, r6, r7, r8, r9, sl, fp, lr}
   b457c:	ed2d 8b02 	vpush	{d8}
   b4580:	b09d      	sub	sp, #116	; 0x74
    int idx = 0;

    double delta;
    double small_offset;
    double last_big = 0.0;
    double last_small = 1000.0; // Assign any absurdly high value
   b4582:	4f4f      	ldr	r7, [pc, #316]	; (b46c0 <_Z8calc_lowPA2_iPdi+0x148>)
{
   b4584:	9203      	str	r2, [sp, #12]
   b4586:	4605      	mov	r5, r0
   b4588:	468b      	mov	fp, r1
   b458a:	468a      	mov	sl, r1

    for (int i = 0; i < size; i++)
   b458c:	2400      	movs	r4, #0
    double last_small = 1000.0; // Assign any absurdly high value
   b458e:	2600      	movs	r6, #0
    double last_big = 0.0;
   b4590:	f04f 0800 	mov.w	r8, #0
   b4594:	f04f 0900 	mov.w	r9, #0
    for (int i = 0; i < size; i++)
   b4598:	9b03      	ldr	r3, [sp, #12]
   b459a:	429c      	cmp	r4, r3
   b459c:	da17      	bge.n	b45ce <_Z8calc_lowPA2_iPdi+0x56>
    {
        // Find the highest price in range
        if (cost[i] > last_big)
   b459e:	ecba 7b02 	vldmia	sl!, {d7}
   b45a2:	4642      	mov	r2, r8
   b45a4:	ec51 0b17 	vmov	r0, r1, d7
   b45a8:	464b      	mov	r3, r9
   b45aa:	ed8d 7b00 	vstr	d7, [sp]
   b45ae:	f005 f817 	bl	b95e0 <__aeabi_dcmpgt>
   b45b2:	b108      	cbz	r0, b45b8 <_Z8calc_lowPA2_iPdi+0x40>
        {
            last_big = cost[i];
   b45b4:	e9dd 8900 	ldrd	r8, r9, [sp]
        }
        // Find the lowest price in range
        if (cost[i] < last_small)
   b45b8:	e9dd 0100 	ldrd	r0, r1, [sp]
   b45bc:	4632      	mov	r2, r6
   b45be:	463b      	mov	r3, r7
   b45c0:	f004 fff0 	bl	b95a4 <__aeabi_dcmplt>
   b45c4:	b108      	cbz	r0, b45ca <_Z8calc_lowPA2_iPdi+0x52>
        {
            last_small = cost[i];
   b45c6:	e9dd 6700 	ldrd	r6, r7, [sp]
    for (int i = 0; i < size; i++)
   b45ca:	3401      	adds	r4, #1
   b45cc:	e7e4      	b.n	b4598 <_Z8calc_lowPA2_iPdi+0x20>
        }
    }
    // Calculate delta
    delta = last_big - last_small;
   b45ce:	4632      	mov	r2, r6
   b45d0:	463b      	mov	r3, r7
   b45d2:	4640      	mov	r0, r8
   b45d4:	4649      	mov	r1, r9
   b45d6:	f004 fbbb 	bl	b8d50 <__aeabi_dsub>

    // Define low price area
    small_offset = last_small + delta * DELTA_OFFSET;
   b45da:	a337      	add	r3, pc, #220	; (adr r3, b46b8 <_Z8calc_lowPA2_iPdi+0x140>)
   b45dc:	e9d3 2300 	ldrd	r2, r3, [r3]
   b45e0:	f004 fd6e 	bl	b90c0 <__aeabi_dmul>
   b45e4:	4632      	mov	r2, r6
   b45e6:	463b      	mov	r3, r7
   b45e8:	f004 fbb4 	bl	b8d54 <__adddf3>
    
    // Find hours of day at which price is within the defined low price point
    for (int i = 0; i <= size; i++)
   b45ec:	f04f 0a00 	mov.w	sl, #0
    small_offset = last_small + delta * DELTA_OFFSET;
   b45f0:	ec41 0b18 	vmov	d8, r0, r1
    int idx = 0;
   b45f4:	4654      	mov	r4, sl
    for (int i = 0; i <= size; i++)
   b45f6:	9b03      	ldr	r3, [sp, #12]
   b45f8:	459a      	cmp	sl, r3
   b45fa:	dc0f      	bgt.n	b461c <_Z8calc_lowPA2_iPdi+0xa4>
    {
        
        if (cost[i] < small_offset)
   b45fc:	e8fb 0102 	ldrd	r0, r1, [fp], #8
   b4600:	ec53 2b18 	vmov	r2, r3, d8
   b4604:	f004 ffce 	bl	b95a4 <__aeabi_dcmplt>
   b4608:	b128      	cbz	r0, b4616 <_Z8calc_lowPA2_iPdi+0x9e>
        {
            low_range_hour[idx] = i;
   b460a:	ab1c      	add	r3, sp, #112	; 0x70
   b460c:	eb03 0384 	add.w	r3, r3, r4, lsl #2
            
            idx++;
   b4610:	3401      	adds	r4, #1
            low_range_hour[idx] = i;
   b4612:	f843 ac60 	str.w	sl, [r3, #-96]
    for (int i = 0; i <= size; i++)
   b4616:	f10a 0a01 	add.w	sl, sl, #1
   b461a:	e7ec      	b.n	b45f6 <_Z8calc_lowPA2_iPdi+0x7e>
        }
    }

    // Display the results
    Serial.printf("Highest price of the day: %f\n", last_big);
   b461c:	f003 fefc 	bl	b8418 <_Z16_fetch_usbserialv>
   b4620:	4928      	ldr	r1, [pc, #160]	; (b46c4 <_Z8calc_lowPA2_iPdi+0x14c>)
   b4622:	4642      	mov	r2, r8
   b4624:	464b      	mov	r3, r9
   b4626:	f7ff fe2d 	bl	b4284 <_ZN5Print6printfEPKcz>
    Serial.printf("Lowest price of the day: %f\n", last_small);
   b462a:	f003 fef5 	bl	b8418 <_Z16_fetch_usbserialv>
   b462e:	4926      	ldr	r1, [pc, #152]	; (b46c8 <_Z8calc_lowPA2_iPdi+0x150>)
   b4630:	4632      	mov	r2, r6
   b4632:	463b      	mov	r3, r7
   b4634:	f7ff fe26 	bl	b4284 <_ZN5Print6printfEPKcz>
    Serial.printf("Hours of the day where electricity is within accepted range:\n");
   b4638:	f003 feee 	bl	b8418 <_Z16_fetch_usbserialv>
   b463c:	4923      	ldr	r1, [pc, #140]	; (b46cc <_Z8calc_lowPA2_iPdi+0x154>)
   b463e:	f7ff fe21 	bl	b4284 <_ZN5Print6printfEPKcz>
    
    int i = 0;
    if (idx > 0)
   b4642:	b36c      	cbz	r4, b46a0 <_Z8calc_lowPA2_iPdi+0x128>
    int i = 0;
   b4644:	2300      	movs	r3, #0
    int cnt = 0;
   b4646:	461e      	mov	r6, r3
   b4648:	1d2f      	adds	r7, r5, #4
    {
        while (i <= idx)
        {
            low_price_intervals[cnt][0] = low_range_hour[i];
   b464a:	aa1c      	add	r2, sp, #112	; 0x70
   b464c:	eb02 0283 	add.w	r2, r2, r3, lsl #2
   b4650:	f852 2c60 	ldr.w	r2, [r2, #-96]
   b4654:	f845 2036 	str.w	r2, [r5, r6, lsl #3]
   b4658:	aa04      	add	r2, sp, #16
   b465a:	eb02 0083 	add.w	r0, r2, r3, lsl #2

            while (low_range_hour[i] == low_range_hour[i + 1] - 1) // Hour only increased by 1. I.e. coherant
   b465e:	6802      	ldr	r2, [r0, #0]
   b4660:	f850 1f04 	ldr.w	r1, [r0, #4]!
   b4664:	3901      	subs	r1, #1
   b4666:	428a      	cmp	r2, r1
   b4668:	f103 0301 	add.w	r3, r3, #1
   b466c:	d0f7      	beq.n	b465e <_Z8calc_lowPA2_iPdi+0xe6>
            {
                i++;
            }
            
            low_price_intervals[cnt][1] = low_range_hour[i]+1;
   b466e:	3201      	adds	r2, #1
        while (i <= idx)
   b4670:	42a3      	cmp	r3, r4
            low_price_intervals[cnt][1] = low_range_hour[i]+1;
   b4672:	f847 2036 	str.w	r2, [r7, r6, lsl #3]
            
            cnt++;
   b4676:	f106 0201 	add.w	r2, r6, #1
        while (i <= idx)
   b467a:	dd0f      	ble.n	b469c <_Z8calc_lowPA2_iPdi+0x124>
        }
        cnt--;
    }
    for (int z = 0; z < cnt; z++)
    {
        Serial.printf("%02d to %02d\n",low_price_intervals[z][0],low_price_intervals[z][1]);
   b467c:	f8df 8054 	ldr.w	r8, [pc, #84]	; b46d4 <_Z8calc_lowPA2_iPdi+0x15c>
    for (int z = 0; z < cnt; z++)
   b4680:	2400      	movs	r4, #0
   b4682:	42b4      	cmp	r4, r6
   b4684:	d00c      	beq.n	b46a0 <_Z8calc_lowPA2_iPdi+0x128>
        Serial.printf("%02d to %02d\n",low_price_intervals[z][0],low_price_intervals[z][1]);
   b4686:	f003 fec7 	bl	b8418 <_Z16_fetch_usbserialv>
   b468a:	f857 3034 	ldr.w	r3, [r7, r4, lsl #3]
   b468e:	f855 2034 	ldr.w	r2, [r5, r4, lsl #3]
   b4692:	4641      	mov	r1, r8
   b4694:	f7ff fdf6 	bl	b4284 <_ZN5Print6printfEPKcz>
    for (int z = 0; z < cnt; z++)
   b4698:	3401      	adds	r4, #1
   b469a:	e7f2      	b.n	b4682 <_Z8calc_lowPA2_iPdi+0x10a>
            cnt++;
   b469c:	4616      	mov	r6, r2
   b469e:	e7d4      	b.n	b464a <_Z8calc_lowPA2_iPdi+0xd2>
    }

    // Calculations are done - set flag
    TRANSMIT_PRICE = true;
   b46a0:	4b0b      	ldr	r3, [pc, #44]	; (b46d0 <_Z8calc_lowPA2_iPdi+0x158>)
   b46a2:	2201      	movs	r2, #1

    return cnt;
}
   b46a4:	4620      	mov	r0, r4
    TRANSMIT_PRICE = true;
   b46a6:	701a      	strb	r2, [r3, #0]
}
   b46a8:	b01d      	add	sp, #116	; 0x74
   b46aa:	ecbd 8b02 	vpop	{d8}
   b46ae:	e8bd 8ff0 	ldmia.w	sp!, {r4, r5, r6, r7, r8, r9, sl, fp, pc}
   b46b2:	bf00      	nop
   b46b4:	f3af 8000 	nop.w
   b46b8:	33333333 	.word	0x33333333
   b46bc:	3fd33333 	.word	0x3fd33333
   b46c0:	408f4000 	.word	0x408f4000
   b46c4:	000bb8e3 	.word	0x000bb8e3
   b46c8:	000bb901 	.word	0x000bb901
   b46cc:	000bb91e 	.word	0x000bb91e
   b46d0:	2003db81 	.word	0x2003db81
   b46d4:	000bb95c 	.word	0x000bb95c

000b46d8 <_Z18hourly_JSON_updatev>:
extern String pricestoday_Json;
extern String pricesyesterday_Json;
extern String pricestomorrow_Json;

void hourly_JSON_update()
{
   b46d8:	b5f0      	push	{r4, r5, r6, r7, lr}
    //Update wh_today_Json
    wh_today_Json = "{\"Whr_today\":[";
   b46da:	4913      	ldr	r1, [pc, #76]	; (b4728 <_Z18hourly_JSON_updatev+0x50>)
   b46dc:	4813      	ldr	r0, [pc, #76]	; (b472c <_Z18hourly_JSON_updatev+0x54>)
    for (int i = 0; i < 24; i++)
    {
        wh_today_Json += String(wh_today[i]);
   b46de:	4e14      	ldr	r6, [pc, #80]	; (b4730 <_Z18hourly_JSON_updatev+0x58>)
	unsigned char concat(float num);
	unsigned char concat(double num);

	// if there's not enough memory for the concatenated value, the string
	// will be left unchanged (but this isn't signalled in any way)
	String & operator += (const String &rhs)	{concat(rhs); return (*this);}
   b46e0:	4d12      	ldr	r5, [pc, #72]	; (b472c <_Z18hourly_JSON_updatev+0x54>)
	String & operator += (const char *cstr)		{concat(cstr); return (*this);}
   b46e2:	4f14      	ldr	r7, [pc, #80]	; (b4734 <_Z18hourly_JSON_updatev+0x5c>)
{
   b46e4:	b085      	sub	sp, #20
    wh_today_Json = "{\"Whr_today\":[";
   b46e6:	f001 fe75 	bl	b63d4 <_ZN6StringaSEPKc>
    for (int i = 0; i < 24; i++)
   b46ea:	2400      	movs	r4, #0
        wh_today_Json += String(wh_today[i]);
   b46ec:	6833      	ldr	r3, [r6, #0]
   b46ee:	220a      	movs	r2, #10
   b46f0:	f853 1024 	ldr.w	r1, [r3, r4, lsl #2]
   b46f4:	4668      	mov	r0, sp
   b46f6:	f001 fe7f 	bl	b63f8 <_ZN6StringC1Eih>
	String & operator += (const String &rhs)	{concat(rhs); return (*this);}
   b46fa:	4669      	mov	r1, sp
   b46fc:	4628      	mov	r0, r5
   b46fe:	f001 fea5 	bl	b644c <_ZN6String6concatERKS_>
   b4702:	4668      	mov	r0, sp
   b4704:	f001 fdc8 	bl	b6298 <_ZN6StringD1Ev>
        if (i < 23)
   b4708:	2c17      	cmp	r4, #23
   b470a:	d003      	beq.n	b4714 <_Z18hourly_JSON_updatev+0x3c>
	String & operator += (const char *cstr)		{concat(cstr); return (*this);}
   b470c:	4639      	mov	r1, r7
   b470e:	4628      	mov	r0, r5
   b4710:	f001 fea0 	bl	b6454 <_ZN6String6concatEPKc>
    for (int i = 0; i < 24; i++)
   b4714:	3401      	adds	r4, #1
   b4716:	2c18      	cmp	r4, #24
   b4718:	d1e8      	bne.n	b46ec <_Z18hourly_JSON_updatev+0x14>
   b471a:	4907      	ldr	r1, [pc, #28]	; (b4738 <_Z18hourly_JSON_updatev+0x60>)
   b471c:	4803      	ldr	r0, [pc, #12]	; (b472c <_Z18hourly_JSON_updatev+0x54>)
        {
            wh_today_Json += ",";
        }
    }
    wh_today_Json += "]}";
}
   b471e:	b005      	add	sp, #20
   b4720:	e8bd 40f0 	ldmia.w	sp!, {r4, r5, r6, r7, lr}
   b4724:	f001 be96 	b.w	b6454 <_ZN6String6concatEPKc>
   b4728:	000bb96a 	.word	0x000bb96a
   b472c:	2003e1bc 	.word	0x2003e1bc
   b4730:	2003e1b8 	.word	0x2003e1b8
   b4734:	000bb979 	.word	0x000bb979
   b4738:	000bb97b 	.word	0x000bb97b

000b473c <_Z11update_JSONv>:
void update_JSON()
{
   b473c:	b5f0      	push	{r4, r5, r6, r7, lr}
   b473e:	b085      	sub	sp, #20
    // Update the json strings
    pricesyesterday_Json = String::format("{\"pricesyesterday\":[");
   b4740:	498f      	ldr	r1, [pc, #572]	; (b4980 <_Z11update_JSONv+0x244>)
    for (int i = 0; i < 24; i++)
    {
        pricesyesterday_Json += String::format("%.2lf", cost_yesterday[i]);
   b4742:	4e90      	ldr	r6, [pc, #576]	; (b4984 <_Z11update_JSONv+0x248>)
   b4744:	4f90      	ldr	r7, [pc, #576]	; (b4988 <_Z11update_JSONv+0x24c>)
	String & operator += (const String &rhs)	{concat(rhs); return (*this);}
   b4746:	4d91      	ldr	r5, [pc, #580]	; (b498c <_Z11update_JSONv+0x250>)
    pricesyesterday_Json = String::format("{\"pricesyesterday\":[");
   b4748:	4668      	mov	r0, sp
   b474a:	f001 fe95 	bl	b6478 <_ZN6String6formatEPKcz>
   b474e:	4669      	mov	r1, sp
   b4750:	488e      	ldr	r0, [pc, #568]	; (b498c <_Z11update_JSONv+0x250>)
   b4752:	f001 fe37 	bl	b63c4 <_ZN6StringaSEOS_>
   b4756:	4668      	mov	r0, sp
   b4758:	f001 fd9e 	bl	b6298 <_ZN6StringD1Ev>
    for (int i = 0; i < 24; i++)
   b475c:	2400      	movs	r4, #0
        pricesyesterday_Json += String::format("%.2lf", cost_yesterday[i]);
   b475e:	6833      	ldr	r3, [r6, #0]
   b4760:	eb03 03c4 	add.w	r3, r3, r4, lsl #3
   b4764:	e9d3 2300 	ldrd	r2, r3, [r3]
   b4768:	4639      	mov	r1, r7
   b476a:	4668      	mov	r0, sp
   b476c:	f001 fe84 	bl	b6478 <_ZN6String6formatEPKcz>
   b4770:	4669      	mov	r1, sp
   b4772:	4628      	mov	r0, r5
   b4774:	f001 fe6a 	bl	b644c <_ZN6String6concatERKS_>
   b4778:	4668      	mov	r0, sp
   b477a:	f001 fd8d 	bl	b6298 <_ZN6StringD1Ev>
        if (i < 23)
   b477e:	2c17      	cmp	r4, #23
   b4780:	d00a      	beq.n	b4798 <_Z11update_JSONv+0x5c>
        {
            pricesyesterday_Json += String::format(",");
   b4782:	4983      	ldr	r1, [pc, #524]	; (b4990 <_Z11update_JSONv+0x254>)
   b4784:	4668      	mov	r0, sp
   b4786:	f001 fe77 	bl	b6478 <_ZN6String6formatEPKcz>
   b478a:	4669      	mov	r1, sp
   b478c:	4628      	mov	r0, r5
   b478e:	f001 fe5d 	bl	b644c <_ZN6String6concatERKS_>
   b4792:	4668      	mov	r0, sp
   b4794:	f001 fd80 	bl	b6298 <_ZN6StringD1Ev>
    for (int i = 0; i < 24; i++)
   b4798:	3401      	adds	r4, #1
   b479a:	2c18      	cmp	r4, #24
   b479c:	d1df      	bne.n	b475e <_Z11update_JSONv+0x22>
        }
    }
    pricesyesterday_Json += String::format("]}");
   b479e:	497d      	ldr	r1, [pc, #500]	; (b4994 <_Z11update_JSONv+0x258>)

    // Updating prices today JSON string
    pricestoday_Json = String::format("{\"pricestoday\":[");
    for (int i = 0; i < 24; i++)
    {
        pricestoday_Json += String::format("%.2lf", cost_today[i]);
   b47a0:	4e7d      	ldr	r6, [pc, #500]	; (b4998 <_Z11update_JSONv+0x25c>)
   b47a2:	4f79      	ldr	r7, [pc, #484]	; (b4988 <_Z11update_JSONv+0x24c>)
   b47a4:	4d7d      	ldr	r5, [pc, #500]	; (b499c <_Z11update_JSONv+0x260>)
    pricesyesterday_Json += String::format("]}");
   b47a6:	4668      	mov	r0, sp
   b47a8:	f001 fe66 	bl	b6478 <_ZN6String6formatEPKcz>
   b47ac:	4669      	mov	r1, sp
   b47ae:	4877      	ldr	r0, [pc, #476]	; (b498c <_Z11update_JSONv+0x250>)
   b47b0:	f001 fe4c 	bl	b644c <_ZN6String6concatERKS_>
   b47b4:	4668      	mov	r0, sp
   b47b6:	f001 fd6f 	bl	b6298 <_ZN6StringD1Ev>
    pricestoday_Json = String::format("{\"pricestoday\":[");
   b47ba:	4979      	ldr	r1, [pc, #484]	; (b49a0 <_Z11update_JSONv+0x264>)
   b47bc:	4668      	mov	r0, sp
   b47be:	f001 fe5b 	bl	b6478 <_ZN6String6formatEPKcz>
   b47c2:	4669      	mov	r1, sp
   b47c4:	4875      	ldr	r0, [pc, #468]	; (b499c <_Z11update_JSONv+0x260>)
   b47c6:	f001 fdfd 	bl	b63c4 <_ZN6StringaSEOS_>
   b47ca:	4668      	mov	r0, sp
   b47cc:	f001 fd64 	bl	b6298 <_ZN6StringD1Ev>
    for (int i = 0; i < 24; i++)
   b47d0:	2400      	movs	r4, #0
        pricestoday_Json += String::format("%.2lf", cost_today[i]);
   b47d2:	6833      	ldr	r3, [r6, #0]
   b47d4:	eb03 03c4 	add.w	r3, r3, r4, lsl #3
   b47d8:	e9d3 2300 	ldrd	r2, r3, [r3]
   b47dc:	4639      	mov	r1, r7
   b47de:	4668      	mov	r0, sp
   b47e0:	f001 fe4a 	bl	b6478 <_ZN6String6formatEPKcz>
   b47e4:	4669      	mov	r1, sp
   b47e6:	4628      	mov	r0, r5
   b47e8:	f001 fe30 	bl	b644c <_ZN6String6concatERKS_>
   b47ec:	4668      	mov	r0, sp
   b47ee:	f001 fd53 	bl	b6298 <_ZN6StringD1Ev>
        if (i < 23)
   b47f2:	2c17      	cmp	r4, #23
   b47f4:	d00a      	beq.n	b480c <_Z11update_JSONv+0xd0>
        {
            pricestoday_Json += String::format(",");
   b47f6:	4966      	ldr	r1, [pc, #408]	; (b4990 <_Z11update_JSONv+0x254>)
   b47f8:	4668      	mov	r0, sp
   b47fa:	f001 fe3d 	bl	b6478 <_ZN6String6formatEPKcz>
   b47fe:	4669      	mov	r1, sp
   b4800:	4628      	mov	r0, r5
   b4802:	f001 fe23 	bl	b644c <_ZN6String6concatERKS_>
   b4806:	4668      	mov	r0, sp
   b4808:	f001 fd46 	bl	b6298 <_ZN6StringD1Ev>
    for (int i = 0; i < 24; i++)
   b480c:	3401      	adds	r4, #1
   b480e:	2c18      	cmp	r4, #24
   b4810:	d1df      	bne.n	b47d2 <_Z11update_JSONv+0x96>
        }
    }
    pricestoday_Json += String::format("]}");
   b4812:	4960      	ldr	r1, [pc, #384]	; (b4994 <_Z11update_JSONv+0x258>)

     // Updating prices today JSON string
    pricestomorrow_Json = String::format("{\"pricestomorrow\":[");
    for (int i = 0; i < 24; i++)
    {
        pricestomorrow_Json += String::format("%.2lf", cost_tomorrow[i]);
   b4814:	4e63      	ldr	r6, [pc, #396]	; (b49a4 <_Z11update_JSONv+0x268>)
   b4816:	4f5c      	ldr	r7, [pc, #368]	; (b4988 <_Z11update_JSONv+0x24c>)
   b4818:	4d63      	ldr	r5, [pc, #396]	; (b49a8 <_Z11update_JSONv+0x26c>)
    pricestoday_Json += String::format("]}");
   b481a:	4668      	mov	r0, sp
   b481c:	f001 fe2c 	bl	b6478 <_ZN6String6formatEPKcz>
   b4820:	4669      	mov	r1, sp
   b4822:	485e      	ldr	r0, [pc, #376]	; (b499c <_Z11update_JSONv+0x260>)
   b4824:	f001 fe12 	bl	b644c <_ZN6String6concatERKS_>
   b4828:	4668      	mov	r0, sp
   b482a:	f001 fd35 	bl	b6298 <_ZN6StringD1Ev>
    pricestomorrow_Json = String::format("{\"pricestomorrow\":[");
   b482e:	495f      	ldr	r1, [pc, #380]	; (b49ac <_Z11update_JSONv+0x270>)
   b4830:	4668      	mov	r0, sp
   b4832:	f001 fe21 	bl	b6478 <_ZN6String6formatEPKcz>
   b4836:	4669      	mov	r1, sp
   b4838:	485b      	ldr	r0, [pc, #364]	; (b49a8 <_Z11update_JSONv+0x26c>)
   b483a:	f001 fdc3 	bl	b63c4 <_ZN6StringaSEOS_>
   b483e:	4668      	mov	r0, sp
   b4840:	f001 fd2a 	bl	b6298 <_ZN6StringD1Ev>
    for (int i = 0; i < 24; i++)
   b4844:	2400      	movs	r4, #0
        pricestomorrow_Json += String::format("%.2lf", cost_tomorrow[i]);
   b4846:	6833      	ldr	r3, [r6, #0]
   b4848:	eb03 03c4 	add.w	r3, r3, r4, lsl #3
   b484c:	e9d3 2300 	ldrd	r2, r3, [r3]
   b4850:	4639      	mov	r1, r7
   b4852:	4668      	mov	r0, sp
   b4854:	f001 fe10 	bl	b6478 <_ZN6String6formatEPKcz>
   b4858:	4669      	mov	r1, sp
   b485a:	4628      	mov	r0, r5
   b485c:	f001 fdf6 	bl	b644c <_ZN6String6concatERKS_>
   b4860:	4668      	mov	r0, sp
   b4862:	f001 fd19 	bl	b6298 <_ZN6StringD1Ev>
        if (i < 23)
   b4866:	2c17      	cmp	r4, #23
   b4868:	d00a      	beq.n	b4880 <_Z11update_JSONv+0x144>
        {
            pricestomorrow_Json += String::format(",");
   b486a:	4949      	ldr	r1, [pc, #292]	; (b4990 <_Z11update_JSONv+0x254>)
   b486c:	4668      	mov	r0, sp
   b486e:	f001 fe03 	bl	b6478 <_ZN6String6formatEPKcz>
   b4872:	4669      	mov	r1, sp
   b4874:	4628      	mov	r0, r5
   b4876:	f001 fde9 	bl	b644c <_ZN6String6concatERKS_>
   b487a:	4668      	mov	r0, sp
   b487c:	f001 fd0c 	bl	b6298 <_ZN6StringD1Ev>
    for (int i = 0; i < 24; i++)
   b4880:	3401      	adds	r4, #1
   b4882:	2c18      	cmp	r4, #24
   b4884:	d1df      	bne.n	b4846 <_Z11update_JSONv+0x10a>
        }
    }
    pricestomorrow_Json += String::format("]}");
   b4886:	4943      	ldr	r1, [pc, #268]	; (b4994 <_Z11update_JSONv+0x258>)

    // Updating watt hours used yesterday JSON string
    wh_yesterday_Json = String::format("{\"WHr_yesterday\":[");
    for (int i = 0; i < 24; i++)
    {
        wh_yesterday_Json += String::format("%d", wh_yesterday[i]);
   b4888:	4e49      	ldr	r6, [pc, #292]	; (b49b0 <_Z11update_JSONv+0x274>)
   b488a:	4f4a      	ldr	r7, [pc, #296]	; (b49b4 <_Z11update_JSONv+0x278>)
   b488c:	4d4a      	ldr	r5, [pc, #296]	; (b49b8 <_Z11update_JSONv+0x27c>)
    pricestomorrow_Json += String::format("]}");
   b488e:	4668      	mov	r0, sp
   b4890:	f001 fdf2 	bl	b6478 <_ZN6String6formatEPKcz>
   b4894:	4669      	mov	r1, sp
   b4896:	4844      	ldr	r0, [pc, #272]	; (b49a8 <_Z11update_JSONv+0x26c>)
   b4898:	f001 fdd8 	bl	b644c <_ZN6String6concatERKS_>
   b489c:	4668      	mov	r0, sp
   b489e:	f001 fcfb 	bl	b6298 <_ZN6StringD1Ev>
    wh_yesterday_Json = String::format("{\"WHr_yesterday\":[");
   b48a2:	4946      	ldr	r1, [pc, #280]	; (b49bc <_Z11update_JSONv+0x280>)
   b48a4:	4668      	mov	r0, sp
   b48a6:	f001 fde7 	bl	b6478 <_ZN6String6formatEPKcz>
   b48aa:	4669      	mov	r1, sp
   b48ac:	4842      	ldr	r0, [pc, #264]	; (b49b8 <_Z11update_JSONv+0x27c>)
   b48ae:	f001 fd89 	bl	b63c4 <_ZN6StringaSEOS_>
   b48b2:	4668      	mov	r0, sp
   b48b4:	f001 fcf0 	bl	b6298 <_ZN6StringD1Ev>
    for (int i = 0; i < 24; i++)
   b48b8:	2400      	movs	r4, #0
        wh_yesterday_Json += String::format("%d", wh_yesterday[i]);
   b48ba:	6833      	ldr	r3, [r6, #0]
   b48bc:	4639      	mov	r1, r7
   b48be:	f853 2024 	ldr.w	r2, [r3, r4, lsl #2]
   b48c2:	4668      	mov	r0, sp
   b48c4:	f001 fdd8 	bl	b6478 <_ZN6String6formatEPKcz>
   b48c8:	4669      	mov	r1, sp
   b48ca:	4628      	mov	r0, r5
   b48cc:	f001 fdbe 	bl	b644c <_ZN6String6concatERKS_>
   b48d0:	4668      	mov	r0, sp
   b48d2:	f001 fce1 	bl	b6298 <_ZN6StringD1Ev>
        if (i < 23)
   b48d6:	2c17      	cmp	r4, #23
   b48d8:	d00a      	beq.n	b48f0 <_Z11update_JSONv+0x1b4>
        {
            wh_yesterday_Json += String::format(",");
   b48da:	492d      	ldr	r1, [pc, #180]	; (b4990 <_Z11update_JSONv+0x254>)
   b48dc:	4668      	mov	r0, sp
   b48de:	f001 fdcb 	bl	b6478 <_ZN6String6formatEPKcz>
   b48e2:	4669      	mov	r1, sp
   b48e4:	4628      	mov	r0, r5
   b48e6:	f001 fdb1 	bl	b644c <_ZN6String6concatERKS_>
   b48ea:	4668      	mov	r0, sp
   b48ec:	f001 fcd4 	bl	b6298 <_ZN6StringD1Ev>
    for (int i = 0; i < 24; i++)
   b48f0:	3401      	adds	r4, #1
   b48f2:	2c18      	cmp	r4, #24
   b48f4:	d1e1      	bne.n	b48ba <_Z11update_JSONv+0x17e>
        }
    }
    wh_yesterday_Json += String::format("]}");
   b48f6:	4927      	ldr	r1, [pc, #156]	; (b4994 <_Z11update_JSONv+0x258>)

    // Updating watt hours for today JSON string
    wh_today_Json = String::format("{\"WHr_today\":[");
    for (int i = 0; i < 24; i++)
    {
        wh_today_Json += String::format("%d", wh_today[i]);
   b48f8:	4e31      	ldr	r6, [pc, #196]	; (b49c0 <_Z11update_JSONv+0x284>)
   b48fa:	4f2e      	ldr	r7, [pc, #184]	; (b49b4 <_Z11update_JSONv+0x278>)
   b48fc:	4d31      	ldr	r5, [pc, #196]	; (b49c4 <_Z11update_JSONv+0x288>)
    wh_yesterday_Json += String::format("]}");
   b48fe:	4668      	mov	r0, sp
   b4900:	f001 fdba 	bl	b6478 <_ZN6String6formatEPKcz>
   b4904:	4669      	mov	r1, sp
   b4906:	482c      	ldr	r0, [pc, #176]	; (b49b8 <_Z11update_JSONv+0x27c>)
   b4908:	f001 fda0 	bl	b644c <_ZN6String6concatERKS_>
   b490c:	4668      	mov	r0, sp
   b490e:	f001 fcc3 	bl	b6298 <_ZN6StringD1Ev>
    wh_today_Json = String::format("{\"WHr_today\":[");
   b4912:	492d      	ldr	r1, [pc, #180]	; (b49c8 <_Z11update_JSONv+0x28c>)
   b4914:	4668      	mov	r0, sp
   b4916:	f001 fdaf 	bl	b6478 <_ZN6String6formatEPKcz>
   b491a:	4669      	mov	r1, sp
   b491c:	4829      	ldr	r0, [pc, #164]	; (b49c4 <_Z11update_JSONv+0x288>)
   b491e:	f001 fd51 	bl	b63c4 <_ZN6StringaSEOS_>
   b4922:	4668      	mov	r0, sp
   b4924:	f001 fcb8 	bl	b6298 <_ZN6StringD1Ev>
    for (int i = 0; i < 24; i++)
   b4928:	2400      	movs	r4, #0
        wh_today_Json += String::format("%d", wh_today[i]);
   b492a:	6833      	ldr	r3, [r6, #0]
   b492c:	4639      	mov	r1, r7
   b492e:	f853 2024 	ldr.w	r2, [r3, r4, lsl #2]
   b4932:	4668      	mov	r0, sp
   b4934:	f001 fda0 	bl	b6478 <_ZN6String6formatEPKcz>
   b4938:	4669      	mov	r1, sp
   b493a:	4628      	mov	r0, r5
   b493c:	f001 fd86 	bl	b644c <_ZN6String6concatERKS_>
   b4940:	4668      	mov	r0, sp
   b4942:	f001 fca9 	bl	b6298 <_ZN6StringD1Ev>
        if (i < 23)
   b4946:	2c17      	cmp	r4, #23
   b4948:	d00a      	beq.n	b4960 <_Z11update_JSONv+0x224>
        {
            wh_today_Json += String::format(",");
   b494a:	4911      	ldr	r1, [pc, #68]	; (b4990 <_Z11update_JSONv+0x254>)
   b494c:	4668      	mov	r0, sp
   b494e:	f001 fd93 	bl	b6478 <_ZN6String6formatEPKcz>
   b4952:	4669      	mov	r1, sp
   b4954:	4628      	mov	r0, r5
   b4956:	f001 fd79 	bl	b644c <_ZN6String6concatERKS_>
   b495a:	4668      	mov	r0, sp
   b495c:	f001 fc9c 	bl	b6298 <_ZN6StringD1Ev>
    for (int i = 0; i < 24; i++)
   b4960:	3401      	adds	r4, #1
   b4962:	2c18      	cmp	r4, #24
   b4964:	d1e1      	bne.n	b492a <_Z11update_JSONv+0x1ee>
        }
    }
    wh_today_Json += String::format("]}");
   b4966:	4668      	mov	r0, sp
   b4968:	490a      	ldr	r1, [pc, #40]	; (b4994 <_Z11update_JSONv+0x258>)
   b496a:	f001 fd85 	bl	b6478 <_ZN6String6formatEPKcz>
   b496e:	4669      	mov	r1, sp
   b4970:	4814      	ldr	r0, [pc, #80]	; (b49c4 <_Z11update_JSONv+0x288>)
   b4972:	f001 fd6b 	bl	b644c <_ZN6String6concatERKS_>
   b4976:	4668      	mov	r0, sp
   b4978:	f001 fc8e 	bl	b6298 <_ZN6StringD1Ev>

}
   b497c:	b005      	add	sp, #20
   b497e:	bdf0      	pop	{r4, r5, r6, r7, pc}
   b4980:	000bb97e 	.word	0x000bb97e
   b4984:	2003dca0 	.word	0x2003dca0
   b4988:	000bb993 	.word	0x000bb993
   b498c:	2003dccc 	.word	0x2003dccc
   b4990:	000bb979 	.word	0x000bb979
   b4994:	000bb97b 	.word	0x000bb97b
   b4998:	2003dc98 	.word	0x2003dc98
   b499c:	2003dcac 	.word	0x2003dcac
   b49a0:	000bb999 	.word	0x000bb999
   b49a4:	2003dc9c 	.word	0x2003dc9c
   b49a8:	2003dcbc 	.word	0x2003dcbc
   b49ac:	000bb9aa 	.word	0x000bb9aa
   b49b0:	2003e1cc 	.word	0x2003e1cc
   b49b4:	000bbbd1 	.word	0x000bbbd1
   b49b8:	2003e1d0 	.word	0x2003e1d0
   b49bc:	000bb9be 	.word	0x000bb9be
   b49c0:	2003e1b8 	.word	0x2003e1b8
   b49c4:	2003e1bc 	.word	0x2003e1bc
   b49c8:	000bb9d1 	.word	0x000bb9d1

000b49cc <_Z21update_Whr_Today_JSONv>:
String update_Whr_Today_JSON()
{
   b49cc:	e92d 41ff 	stmdb	sp!, {r0, r1, r2, r3, r4, r5, r6, r7, r8, lr}
    // Updating watt hours for today JSON string
    wh_today_Json = String::format("{\"WHr_today\":[");
   b49d0:	4920      	ldr	r1, [pc, #128]	; (b4a54 <_Z21update_Whr_Today_JSONv+0x88>)
    for (int i = 0; i < 24; i++)
    {
        wh_today_Json += String::format("%d", wh_today[i]);
   b49d2:	4f21      	ldr	r7, [pc, #132]	; (b4a58 <_Z21update_Whr_Today_JSONv+0x8c>)
   b49d4:	f8df 8090 	ldr.w	r8, [pc, #144]	; b4a68 <_Z21update_Whr_Today_JSONv+0x9c>
   b49d8:	4e20      	ldr	r6, [pc, #128]	; (b4a5c <_Z21update_Whr_Today_JSONv+0x90>)
{
   b49da:	4605      	mov	r5, r0
    wh_today_Json = String::format("{\"WHr_today\":[");
   b49dc:	4668      	mov	r0, sp
   b49de:	f001 fd4b 	bl	b6478 <_ZN6String6formatEPKcz>
   b49e2:	4669      	mov	r1, sp
   b49e4:	481d      	ldr	r0, [pc, #116]	; (b4a5c <_Z21update_Whr_Today_JSONv+0x90>)
   b49e6:	f001 fced 	bl	b63c4 <_ZN6StringaSEOS_>
   b49ea:	4668      	mov	r0, sp
   b49ec:	f001 fc54 	bl	b6298 <_ZN6StringD1Ev>
    for (int i = 0; i < 24; i++)
   b49f0:	2400      	movs	r4, #0
        wh_today_Json += String::format("%d", wh_today[i]);
   b49f2:	683b      	ldr	r3, [r7, #0]
   b49f4:	4641      	mov	r1, r8
   b49f6:	f853 2024 	ldr.w	r2, [r3, r4, lsl #2]
   b49fa:	4668      	mov	r0, sp
   b49fc:	f001 fd3c 	bl	b6478 <_ZN6String6formatEPKcz>
   b4a00:	4669      	mov	r1, sp
   b4a02:	4630      	mov	r0, r6
   b4a04:	f001 fd22 	bl	b644c <_ZN6String6concatERKS_>
   b4a08:	4668      	mov	r0, sp
   b4a0a:	f001 fc45 	bl	b6298 <_ZN6StringD1Ev>
        if (i < 23)
   b4a0e:	2c17      	cmp	r4, #23
   b4a10:	d00a      	beq.n	b4a28 <_Z21update_Whr_Today_JSONv+0x5c>
        {
            wh_today_Json += String::format(",");
   b4a12:	4913      	ldr	r1, [pc, #76]	; (b4a60 <_Z21update_Whr_Today_JSONv+0x94>)
   b4a14:	4668      	mov	r0, sp
   b4a16:	f001 fd2f 	bl	b6478 <_ZN6String6formatEPKcz>
   b4a1a:	4669      	mov	r1, sp
   b4a1c:	4630      	mov	r0, r6
   b4a1e:	f001 fd15 	bl	b644c <_ZN6String6concatERKS_>
   b4a22:	4668      	mov	r0, sp
   b4a24:	f001 fc38 	bl	b6298 <_ZN6StringD1Ev>
    for (int i = 0; i < 24; i++)
   b4a28:	3401      	adds	r4, #1
   b4a2a:	2c18      	cmp	r4, #24
   b4a2c:	d1e1      	bne.n	b49f2 <_Z21update_Whr_Today_JSONv+0x26>
        }
    }
    wh_today_Json += String::format("]}");
   b4a2e:	4668      	mov	r0, sp
   b4a30:	490c      	ldr	r1, [pc, #48]	; (b4a64 <_Z21update_Whr_Today_JSONv+0x98>)
   b4a32:	f001 fd21 	bl	b6478 <_ZN6String6formatEPKcz>
   b4a36:	4669      	mov	r1, sp
   b4a38:	4808      	ldr	r0, [pc, #32]	; (b4a5c <_Z21update_Whr_Today_JSONv+0x90>)
   b4a3a:	f001 fd07 	bl	b644c <_ZN6String6concatERKS_>
   b4a3e:	4668      	mov	r0, sp
   b4a40:	f001 fc2a 	bl	b6298 <_ZN6StringD1Ev>

    return wh_today_Json;
   b4a44:	4905      	ldr	r1, [pc, #20]	; (b4a5c <_Z21update_Whr_Today_JSONv+0x90>)
   b4a46:	4628      	mov	r0, r5
   b4a48:	f001 fcb1 	bl	b63ae <_ZN6StringC1ERKS_>
   b4a4c:	4628      	mov	r0, r5
   b4a4e:	b004      	add	sp, #16
   b4a50:	e8bd 81f0 	ldmia.w	sp!, {r4, r5, r6, r7, r8, pc}
   b4a54:	000bb9d1 	.word	0x000bb9d1
   b4a58:	2003e1b8 	.word	0x2003e1b8
   b4a5c:	2003e1bc 	.word	0x2003e1bc
   b4a60:	000bb979 	.word	0x000bb979
   b4a64:	000bb97b 	.word	0x000bb97b
   b4a68:	000bbbd1 	.word	0x000bbbd1

000b4a6c <_Z11init_memoryv>:
{
   b4a6c:	e92d 43f8 	stmdb	sp!, {r3, r4, r5, r6, r7, r8, r9, lr}
    Serial.printf("before %lu\n", System.freeMemory());
   b4a70:	f003 fcd2 	bl	b8418 <_Z16_fetch_usbserialv>
   b4a74:	4604      	mov	r4, r0
   b4a76:	f001 f8b3 	bl	b5be0 <_ZN11SystemClass10freeMemoryEv>
   b4a7a:	493c      	ldr	r1, [pc, #240]	; (b4b6c <_Z11init_memoryv+0x100>)
    cost_yesterday = (double *)malloc(MAX_RANGE * sizeof(double));
   b4a7c:	4d3c      	ldr	r5, [pc, #240]	; (b4b70 <_Z11init_memoryv+0x104>)
    Serial.printf("before %lu\n", System.freeMemory());
   b4a7e:	4602      	mov	r2, r0
   b4a80:	4620      	mov	r0, r4
   b4a82:	f7ff fbff 	bl	b4284 <_ZN5Print6printfEPKcz>
    cost_yesterday = (double *)malloc(MAX_RANGE * sizeof(double));
   b4a86:	20c0      	movs	r0, #192	; 0xc0
   b4a88:	f001 f80a 	bl	b5aa0 <malloc>
   b4a8c:	6028      	str	r0, [r5, #0]
    if (cost_yesterday == NULL)
   b4a8e:	b928      	cbnz	r0, b4a9c <_Z11init_memoryv+0x30>
        Serial.printf("Failed to allocate memory for cost_yesterday\n");
   b4a90:	f003 fcc2 	bl	b8418 <_Z16_fetch_usbserialv>
   b4a94:	4937      	ldr	r1, [pc, #220]	; (b4b74 <_Z11init_memoryv+0x108>)
   b4a96:	f7ff fbf5 	bl	b4284 <_ZN5Print6printfEPKcz>
        while (1)
   b4a9a:	e7fe      	b.n	b4a9a <_Z11init_memoryv+0x2e>
    cost_today = (double *)malloc(MAX_RANGE * sizeof(double));
   b4a9c:	20c0      	movs	r0, #192	; 0xc0
   b4a9e:	f000 ffff 	bl	b5aa0 <malloc>
   b4aa2:	4c35      	ldr	r4, [pc, #212]	; (b4b78 <_Z11init_memoryv+0x10c>)
   b4aa4:	6020      	str	r0, [r4, #0]
    if (cost_today == NULL)
   b4aa6:	b928      	cbnz	r0, b4ab4 <_Z11init_memoryv+0x48>
        Serial.printf("Failed to allocate memory for cost_today\n");
   b4aa8:	f003 fcb6 	bl	b8418 <_Z16_fetch_usbserialv>
   b4aac:	4933      	ldr	r1, [pc, #204]	; (b4b7c <_Z11init_memoryv+0x110>)
   b4aae:	f7ff fbe9 	bl	b4284 <_ZN5Print6printfEPKcz>
        while (1)
   b4ab2:	e7fe      	b.n	b4ab2 <_Z11init_memoryv+0x46>
    cost_tomorrow = (double *)malloc(MAX_RANGE * sizeof(double));
   b4ab4:	20c0      	movs	r0, #192	; 0xc0
   b4ab6:	f000 fff3 	bl	b5aa0 <malloc>
   b4aba:	4e31      	ldr	r6, [pc, #196]	; (b4b80 <_Z11init_memoryv+0x114>)
   b4abc:	6030      	str	r0, [r6, #0]
    if (cost_tomorrow == NULL)
   b4abe:	b928      	cbnz	r0, b4acc <_Z11init_memoryv+0x60>
        Serial.printf("Failed to allocate memory for cost_tomorrow\n");
   b4ac0:	f003 fcaa 	bl	b8418 <_Z16_fetch_usbserialv>
   b4ac4:	492f      	ldr	r1, [pc, #188]	; (b4b84 <_Z11init_memoryv+0x118>)
   b4ac6:	f7ff fbdd 	bl	b4284 <_ZN5Print6printfEPKcz>
        while (1)
   b4aca:	e7fe      	b.n	b4aca <_Z11init_memoryv+0x5e>
    Serial.printf("Memory allocated for prices: %d bytes of doubles\n", 3 * MAX_RANGE * sizeof(double));
   b4acc:	f003 fca4 	bl	b8418 <_Z16_fetch_usbserialv>
   b4ad0:	492d      	ldr	r1, [pc, #180]	; (b4b88 <_Z11init_memoryv+0x11c>)
    wh_today = (int *)malloc(MAX_RANGE * sizeof(int));
   b4ad2:	f8df 80c8 	ldr.w	r8, [pc, #200]	; b4b9c <_Z11init_memoryv+0x130>
    Serial.printf("Memory allocated for prices: %d bytes of doubles\n", 3 * MAX_RANGE * sizeof(double));
   b4ad6:	f44f 7210 	mov.w	r2, #576	; 0x240
   b4ada:	f7ff fbd3 	bl	b4284 <_ZN5Print6printfEPKcz>
    wh_today = (int *)malloc(MAX_RANGE * sizeof(int));
   b4ade:	2060      	movs	r0, #96	; 0x60
   b4ae0:	f000 ffde 	bl	b5aa0 <malloc>
   b4ae4:	f8c8 0000 	str.w	r0, [r8]
    if (wh_today == NULL)
   b4ae8:	b928      	cbnz	r0, b4af6 <_Z11init_memoryv+0x8a>
        Serial.printf("Failed to allocate memory for wh_today\n");
   b4aea:	f003 fc95 	bl	b8418 <_Z16_fetch_usbserialv>
   b4aee:	4927      	ldr	r1, [pc, #156]	; (b4b8c <_Z11init_memoryv+0x120>)
   b4af0:	f7ff fbc8 	bl	b4284 <_ZN5Print6printfEPKcz>
        while (1)
   b4af4:	e7fe      	b.n	b4af4 <_Z11init_memoryv+0x88>
    wh_yesterday = (int *)malloc(MAX_RANGE * sizeof(int));
   b4af6:	2060      	movs	r0, #96	; 0x60
   b4af8:	f000 ffd2 	bl	b5aa0 <malloc>
   b4afc:	f8df 90a0 	ldr.w	r9, [pc, #160]	; b4ba0 <_Z11init_memoryv+0x134>
   b4b00:	f8c9 0000 	str.w	r0, [r9]
    if (wh_yesterday == NULL)
   b4b04:	b928      	cbnz	r0, b4b12 <_Z11init_memoryv+0xa6>
        Serial.printf("Failed to allocate memory for wh_yesterday\n");
   b4b06:	f003 fc87 	bl	b8418 <_Z16_fetch_usbserialv>
   b4b0a:	4921      	ldr	r1, [pc, #132]	; (b4b90 <_Z11init_memoryv+0x124>)
   b4b0c:	f7ff fbba 	bl	b4284 <_ZN5Print6printfEPKcz>
        while (1)
   b4b10:	e7fe      	b.n	b4b10 <_Z11init_memoryv+0xa4>
    Serial.printf("Memory allocated for wh: %d bytes of ints\n", 2 * MAX_RANGE * sizeof(int));
   b4b12:	f003 fc81 	bl	b8418 <_Z16_fetch_usbserialv>
   b4b16:	491f      	ldr	r1, [pc, #124]	; (b4b94 <_Z11init_memoryv+0x128>)
   b4b18:	22c0      	movs	r2, #192	; 0xc0
   b4b1a:	f7ff fbb3 	bl	b4284 <_ZN5Print6printfEPKcz>
    Serial.printf("After %lu\n", System.freeMemory());
   b4b1e:	f003 fc7b 	bl	b8418 <_Z16_fetch_usbserialv>
   b4b22:	4607      	mov	r7, r0
   b4b24:	f001 f85c 	bl	b5be0 <_ZN11SystemClass10freeMemoryEv>
   b4b28:	491b      	ldr	r1, [pc, #108]	; (b4b98 <_Z11init_memoryv+0x12c>)
   b4b2a:	4602      	mov	r2, r0
   b4b2c:	4638      	mov	r0, r7
   b4b2e:	f7ff fba9 	bl	b4284 <_ZN5Print6printfEPKcz>
    memset(cost_yesterday, 0, MAX_RANGE * sizeof(double));
   b4b32:	6828      	ldr	r0, [r5, #0]
   b4b34:	22c0      	movs	r2, #192	; 0xc0
   b4b36:	2100      	movs	r1, #0
   b4b38:	f004 fe13 	bl	b9762 <memset>
    memset(cost_today, 0, MAX_RANGE * sizeof(double));
   b4b3c:	6820      	ldr	r0, [r4, #0]
   b4b3e:	22c0      	movs	r2, #192	; 0xc0
   b4b40:	2100      	movs	r1, #0
   b4b42:	f004 fe0e 	bl	b9762 <memset>
    memset(cost_tomorrow, 0, MAX_RANGE * sizeof(double));
   b4b46:	6830      	ldr	r0, [r6, #0]
   b4b48:	22c0      	movs	r2, #192	; 0xc0
   b4b4a:	2100      	movs	r1, #0
   b4b4c:	f004 fe09 	bl	b9762 <memset>
    memset(wh_today, 0, MAX_RANGE * sizeof(int));
   b4b50:	f8d8 0000 	ldr.w	r0, [r8]
   b4b54:	2260      	movs	r2, #96	; 0x60
   b4b56:	2100      	movs	r1, #0
   b4b58:	f004 fe03 	bl	b9762 <memset>
    memset(wh_yesterday, 0, MAX_RANGE * sizeof(int));
   b4b5c:	f8d9 0000 	ldr.w	r0, [r9]
   b4b60:	2260      	movs	r2, #96	; 0x60
}
   b4b62:	e8bd 43f8 	ldmia.w	sp!, {r3, r4, r5, r6, r7, r8, r9, lr}
    memset(wh_yesterday, 0, MAX_RANGE * sizeof(int));
   b4b66:	2100      	movs	r1, #0
   b4b68:	f004 bdfb 	b.w	b9762 <memset>
   b4b6c:	000bb9e0 	.word	0x000bb9e0
   b4b70:	2003dca0 	.word	0x2003dca0
   b4b74:	000bb9ec 	.word	0x000bb9ec
   b4b78:	2003dc98 	.word	0x2003dc98
   b4b7c:	000bba1a 	.word	0x000bba1a
   b4b80:	2003dc9c 	.word	0x2003dc9c
   b4b84:	000bba44 	.word	0x000bba44
   b4b88:	000bba71 	.word	0x000bba71
   b4b8c:	000bbaa3 	.word	0x000bbaa3
   b4b90:	000bbacb 	.word	0x000bbacb
   b4b94:	000bbaf7 	.word	0x000bbaf7
   b4b98:	000bbb22 	.word	0x000bbb22
   b4b9c:	2003e1b8 	.word	0x2003e1b8
   b4ba0:	2003e1cc 	.word	0x2003e1cc

000b4ba4 <setup>:
{
   b4ba4:	b530      	push	{r4, r5, lr}
    STARTUP = true;
   b4ba6:	4b20      	ldr	r3, [pc, #128]	; (b4c28 <setup+0x84>)
   b4ba8:	2201      	movs	r2, #1
{
   b4baa:	b085      	sub	sp, #20
    STARTUP = true;
   b4bac:	701a      	strb	r2, [r3, #0]
    static void sleep(Spark_Sleep_TypeDef sleepMode, long seconds=0) __attribute__ ((deprecated("Please use System.sleep() instead.")))
    { SystemClass::sleep(sleepMode, seconds); }
    static void sleep(uint16_t wakeUpPin, InterruptMode edgeTriggerMode, long seconds=0) __attribute__ ((deprecated("Please use System.sleep() instead.")))
    { SystemClass::sleep(wakeUpPin, edgeTriggerMode, seconds); }

    static bool connected(void) { return spark_cloud_flag_connected(); }
   b4bae:	f000 ff4f 	bl	b5a50 <spark_cloud_flag_connected>

    static uint32_t freeMemory();

    template<typename Condition, typename While>
    static bool waitConditionWhile(Condition _condition, While _while) {
        while (_while() && !_condition()) {
   b4bb2:	b910      	cbnz	r0, b4bba <setup+0x16>
            spark_process();
   b4bb4:	f000 ff44 	bl	b5a40 <spark_process>
        while (_while() && !_condition()) {
   b4bb8:	e7f9      	b.n	b4bae <setup+0xa>
   b4bba:	f000 ff49 	bl	b5a50 <spark_cloud_flag_connected>
    ble_setup();
   b4bbe:	f7ff fc41 	bl	b4444 <_Z9ble_setupv>
    init_memory();
   b4bc2:	f7ff ff53 	bl	b4a6c <_Z11init_memoryv>
    Time.zone(1);
   b4bc6:	eeb7 0a00 	vmov.f32	s0, #112	; 0x3f800000  1.0
   b4bca:	f002 ff5b 	bl	b7a84 <_ZN9TimeClass4zoneEf>
    attachInterrupt(KW_SENSOR_PIN, handle_sensor, RISING); // Attach interrup that will be called when rising
   b4bce:	2400      	movs	r4, #0
    pinMode(KW_SENSOR_PIN, INPUT_PULLDOWN);                // Setup pinmode for LDR pin
   b4bd0:	2103      	movs	r1, #3
   b4bd2:	2008      	movs	r0, #8
   b4bd4:	f003 ff10 	bl	b89f8 <pinMode>
    attachInterrupt(KW_SENSOR_PIN, handle_sensor, RISING); // Attach interrup that will be called when rising
   b4bd8:	4914      	ldr	r1, [pc, #80]	; (b4c2c <setup+0x88>)
   b4bda:	9400      	str	r4, [sp, #0]
   b4bdc:	f04f 33ff 	mov.w	r3, #4294967295
   b4be0:	2201      	movs	r2, #1
   b4be2:	2008      	movs	r0, #8
   b4be4:	f003 fc40 	bl	b8468 <_Z15attachInterrupttPFvvE13InterruptModeah>
        return spark_subscribe(eventName, handler, NULL, scope, NULL, NULL);
   b4be8:	4623      	mov	r3, r4
   b4bea:	4622      	mov	r2, r4
   b4bec:	4910      	ldr	r1, [pc, #64]	; (b4c30 <setup+0x8c>)
   b4bee:	4811      	ldr	r0, [pc, #68]	; (b4c34 <setup+0x90>)
   b4bf0:	e9cd 4400 	strd	r4, r4, [sp]
   b4bf4:	f000 ff3c 	bl	b5a70 <spark_subscribe>
    Serial.printf("Current HH:MM: %02d:%02d\n", Time.hour(), Time.minute());
   b4bf8:	f003 fc0e 	bl	b8418 <_Z16_fetch_usbserialv>
   b4bfc:	4605      	mov	r5, r0
   b4bfe:	f002 ff8f 	bl	b7b20 <_ZN9TimeClass4hourEv>
   b4c02:	9003      	str	r0, [sp, #12]
   b4c04:	f002 ff98 	bl	b7b38 <_ZN9TimeClass6minuteEv>
   b4c08:	9a03      	ldr	r2, [sp, #12]
   b4c0a:	490b      	ldr	r1, [pc, #44]	; (b4c38 <setup+0x94>)
   b4c0c:	4603      	mov	r3, r0
   b4c0e:	4628      	mov	r0, r5
   b4c10:	f7ff fb38 	bl	b4284 <_ZN5Print6printfEPKcz>
    bool start(unsigned block=default_wait) { return _start(block, false); }
   b4c14:	4809      	ldr	r0, [pc, #36]	; (b4c3c <setup+0x98>)
   b4c16:	4622      	mov	r2, r4
   b4c18:	f06f 4100 	mvn.w	r1, #2147483648	; 0x80000000
}
   b4c1c:	b005      	add	sp, #20
   b4c1e:	e8bd 4030 	ldmia.w	sp!, {r4, r5, lr}
   b4c22:	f7ff bab9 	b.w	b4198 <_ZN5Timer6_startEjb.isra.0>
   b4c26:	bf00      	nop
   b4c28:	2003db80 	.word	0x2003db80
   b4c2c:	000b40d1 	.word	0x000b40d1
   b4c30:	000b42a1 	.word	0x000b42a1
   b4c34:	000bbb2d 	.word	0x000bbb2d
   b4c38:	000bbb34 	.word	0x000bbb34
   b4c3c:	2003e150 	.word	0x2003e150

000b4c40 <_Z13rotate_pricesv>:
{
   b4c40:	b508      	push	{r3, lr}
    cost_yesterday = cost_today;
   b4c42:	4a0c      	ldr	r2, [pc, #48]	; (b4c74 <_Z13rotate_pricesv+0x34>)
    double *temp = cost_yesterday;
   b4c44:	4b0c      	ldr	r3, [pc, #48]	; (b4c78 <_Z13rotate_pricesv+0x38>)
    cost_yesterday = cost_today;
   b4c46:	6811      	ldr	r1, [r2, #0]
    double *temp = cost_yesterday;
   b4c48:	6818      	ldr	r0, [r3, #0]
    cost_yesterday = cost_today;
   b4c4a:	6019      	str	r1, [r3, #0]
    cost_today = cost_tomorrow;
   b4c4c:	4b0b      	ldr	r3, [pc, #44]	; (b4c7c <_Z13rotate_pricesv+0x3c>)
   b4c4e:	6819      	ldr	r1, [r3, #0]
   b4c50:	6011      	str	r1, [r2, #0]
    memset(cost_tomorrow, 0, MAX_RANGE * sizeof(double));
   b4c52:	22c0      	movs	r2, #192	; 0xc0
   b4c54:	2100      	movs	r1, #0
    cost_tomorrow = temp;
   b4c56:	6018      	str	r0, [r3, #0]
    memset(cost_tomorrow, 0, MAX_RANGE * sizeof(double));
   b4c58:	f004 fd83 	bl	b9762 <memset>
    int *temp2 = wh_yesterday;
   b4c5c:	4a08      	ldr	r2, [pc, #32]	; (b4c80 <_Z13rotate_pricesv+0x40>)
    wh_yesterday = wh_today;
   b4c5e:	4b09      	ldr	r3, [pc, #36]	; (b4c84 <_Z13rotate_pricesv+0x44>)
    int *temp2 = wh_yesterday;
   b4c60:	6810      	ldr	r0, [r2, #0]
    wh_yesterday = wh_today;
   b4c62:	6819      	ldr	r1, [r3, #0]
   b4c64:	6011      	str	r1, [r2, #0]
    wh_today = temp2;
   b4c66:	6018      	str	r0, [r3, #0]
}
   b4c68:	e8bd 4008 	ldmia.w	sp!, {r3, lr}
    memset(wh_today, 0, MAX_RANGE * sizeof(int));
   b4c6c:	2260      	movs	r2, #96	; 0x60
   b4c6e:	2100      	movs	r1, #0
   b4c70:	f004 bd77 	b.w	b9762 <memset>
   b4c74:	2003dc98 	.word	0x2003dc98
   b4c78:	2003dca0 	.word	0x2003dca0
   b4c7c:	2003dc9c 	.word	0x2003dc9c
   b4c80:	2003e1cc 	.word	0x2003e1cc
   b4c84:	2003e1b8 	.word	0x2003e1b8

000b4c88 <_ZNSt14__shared_countILN9__gnu_cxx12_Lock_policyE0EED1Ev>:
      explicit __shared_count(const __weak_count<_Lp>& __r);

      // Does not throw if __r._M_get_use_count() == 0, caller must check.
      explicit __shared_count(const __weak_count<_Lp>& __r, std::nothrow_t);

      ~__shared_count() noexcept
   b4c88:	b538      	push	{r3, r4, r5, lr}
      {
	if (_M_pi != nullptr)
   b4c8a:	6804      	ldr	r4, [r0, #0]
      ~__shared_count() noexcept
   b4c8c:	4605      	mov	r5, r0
	if (_M_pi != nullptr)
   b4c8e:	b17c      	cbz	r4, b4cb0 <_ZNSt14__shared_countILN9__gnu_cxx12_Lock_policyE0EED1Ev+0x28>
      if (--_M_use_count == 0)
   b4c90:	6863      	ldr	r3, [r4, #4]
   b4c92:	3b01      	subs	r3, #1
   b4c94:	6063      	str	r3, [r4, #4]
   b4c96:	b95b      	cbnz	r3, b4cb0 <_ZNSt14__shared_countILN9__gnu_cxx12_Lock_policyE0EED1Ev+0x28>
          _M_dispose();
   b4c98:	6823      	ldr	r3, [r4, #0]
   b4c9a:	4620      	mov	r0, r4
   b4c9c:	689b      	ldr	r3, [r3, #8]
   b4c9e:	4798      	blx	r3
          if (--_M_weak_count == 0)
   b4ca0:	68a3      	ldr	r3, [r4, #8]
   b4ca2:	3b01      	subs	r3, #1
   b4ca4:	60a3      	str	r3, [r4, #8]
   b4ca6:	b91b      	cbnz	r3, b4cb0 <_ZNSt14__shared_countILN9__gnu_cxx12_Lock_policyE0EED1Ev+0x28>
            _M_destroy();
   b4ca8:	6823      	ldr	r3, [r4, #0]
   b4caa:	4620      	mov	r0, r4
   b4cac:	68db      	ldr	r3, [r3, #12]
   b4cae:	4798      	blx	r3
	  _M_pi->_M_release();
      }
   b4cb0:	4628      	mov	r0, r5
   b4cb2:	bd38      	pop	{r3, r4, r5, pc}

000b4cb4 <_Z8get_datai>:
{
   b4cb4:	b510      	push	{r4, lr}
    temp[0] = 0;
   b4cb6:	4b11      	ldr	r3, [pc, #68]	; (b4cfc <_Z8get_datai+0x48>)
   b4cb8:	2200      	movs	r2, #0
{
   b4cba:	b08a      	sub	sp, #40	; 0x28
    temp[0] = 0;
   b4cbc:	701a      	strb	r2, [r3, #0]
{
   b4cbe:	4604      	mov	r4, r0
    String data = String::format("{ \"year\": \"%d\", \"month\":\"%02d\", \"day\": \"%02d\"}", Time.year(), Time.month(), day);
   b4cc0:	f002 ff66 	bl	b7b90 <_ZN9TimeClass4yearEv>
   b4cc4:	9003      	str	r0, [sp, #12]
   b4cc6:	f002 ff5b 	bl	b7b80 <_ZN9TimeClass5monthEv>
   b4cca:	9a03      	ldr	r2, [sp, #12]
   b4ccc:	490c      	ldr	r1, [pc, #48]	; (b4d00 <_Z8get_datai+0x4c>)
   b4cce:	9400      	str	r4, [sp, #0]
   b4cd0:	4603      	mov	r3, r0
   b4cd2:	a806      	add	r0, sp, #24
   b4cd4:	f001 fbd0 	bl	b6478 <_ZN6String6formatEPKcz>
inline particle::Flags<TagT, ValueT>::Flags(Flag<TagT, ValueT> flag) :
        val_(flag.value()) {
}

template<typename TagT, typename ValueT>
inline particle::Flags<TagT, ValueT>::Flags(ValueT val) :
   b4cd8:	4b0a      	ldr	r3, [pc, #40]	; (b4d04 <_Z8get_datai+0x50>)
        return publish_event(eventName, eventData, ttl, flags1 | flags2);
   b4cda:	9a06      	ldr	r2, [sp, #24]
   b4cdc:	781b      	ldrb	r3, [r3, #0]
   b4cde:	490a      	ldr	r1, [pc, #40]	; (b4d08 <_Z8get_datai+0x54>)
   b4ce0:	f88d 3000 	strb.w	r3, [sp]
   b4ce4:	a804      	add	r0, sp, #16
   b4ce6:	233c      	movs	r3, #60	; 0x3c
   b4ce8:	f003 f93a 	bl	b7f60 <_ZN10CloudClass13publish_eventEPKcS1_iN8particle5FlagsI15PublishFlagTypehEE>
	  __r._M_ptr = 0;
	}

      __shared_ptr(const __shared_ptr&) noexcept = default;
      __shared_ptr& operator=(const __shared_ptr&) noexcept = default;
      ~__shared_ptr() = default;
   b4cec:	a805      	add	r0, sp, #20
   b4cee:	f7ff ffcb 	bl	b4c88 <_ZNSt14__shared_countILN9__gnu_cxx12_Lock_policyE0EED1Ev>
   b4cf2:	a806      	add	r0, sp, #24
   b4cf4:	f001 fad0 	bl	b6298 <_ZN6StringD1Ev>
}
   b4cf8:	b00a      	add	sp, #40	; 0x28
   b4cfa:	bd10      	pop	{r4, pc}
   b4cfc:	2003dd4c 	.word	0x2003dd4c
   b4d00:	000bbb4e 	.word	0x000bbb4e
   b4d04:	2003dc28 	.word	0x2003dc28
   b4d08:	000bbb7d 	.word	0x000bbb7d

000b4d0c <_Z15transmit_pricesPA2_ii>:
{
   b4d0c:	e92d 41f0 	stmdb	sp!, {r4, r5, r6, r7, r8, lr}
   b4d10:	b08a      	sub	sp, #40	; 0x28
   b4d12:	4605      	mov	r5, r0
   b4d14:	460e      	mov	r6, r1
    Serial.printf("In work\n");
   b4d16:	f003 fb7f 	bl	b8418 <_Z16_fetch_usbserialv>
   b4d1a:	4918      	ldr	r1, [pc, #96]	; (b4d7c <_Z15transmit_pricesPA2_ii+0x70>)
        data += String::format("%02d to %02d, ", start_stop[z][0], start_stop[z][1]);
   b4d1c:	4f18      	ldr	r7, [pc, #96]	; (b4d80 <_Z15transmit_pricesPA2_ii+0x74>)
    Serial.printf("In work\n");
   b4d1e:	f7ff fab1 	bl	b4284 <_ZN5Print6printfEPKcz>
    String data = "Cheap(ish) hours of the day: ";
   b4d22:	4918      	ldr	r1, [pc, #96]	; (b4d84 <_Z15transmit_pricesPA2_ii+0x78>)
   b4d24:	a802      	add	r0, sp, #8
   b4d26:	f001 fb02 	bl	b632e <_ZN6StringC1EPK19__FlashStringHelper>
    for (int z = 0; z < size; z++)
   b4d2a:	2400      	movs	r4, #0
        data += String::format("%02d to %02d, ", start_stop[z][0], start_stop[z][1]);
   b4d2c:	f105 0804 	add.w	r8, r5, #4
    for (int z = 0; z < size; z++)
   b4d30:	42b4      	cmp	r4, r6
   b4d32:	da10      	bge.n	b4d56 <_Z15transmit_pricesPA2_ii+0x4a>
        data += String::format("%02d to %02d, ", start_stop[z][0], start_stop[z][1]);
   b4d34:	f858 3034 	ldr.w	r3, [r8, r4, lsl #3]
   b4d38:	f855 2034 	ldr.w	r2, [r5, r4, lsl #3]
   b4d3c:	4639      	mov	r1, r7
   b4d3e:	a806      	add	r0, sp, #24
   b4d40:	f001 fb9a 	bl	b6478 <_ZN6String6formatEPKcz>
   b4d44:	a906      	add	r1, sp, #24
   b4d46:	a802      	add	r0, sp, #8
   b4d48:	f001 fb80 	bl	b644c <_ZN6String6concatERKS_>
   b4d4c:	a806      	add	r0, sp, #24
   b4d4e:	f001 faa3 	bl	b6298 <_ZN6StringD1Ev>
    for (int z = 0; z < size; z++)
   b4d52:	3401      	adds	r4, #1
   b4d54:	e7ec      	b.n	b4d30 <_Z15transmit_pricesPA2_ii+0x24>
   b4d56:	4b0c      	ldr	r3, [pc, #48]	; (b4d88 <_Z15transmit_pricesPA2_ii+0x7c>)
   b4d58:	9a02      	ldr	r2, [sp, #8]
   b4d5a:	781b      	ldrb	r3, [r3, #0]
   b4d5c:	490b      	ldr	r1, [pc, #44]	; (b4d8c <_Z15transmit_pricesPA2_ii+0x80>)
   b4d5e:	f88d 3000 	strb.w	r3, [sp]
   b4d62:	a806      	add	r0, sp, #24
   b4d64:	233c      	movs	r3, #60	; 0x3c
   b4d66:	f003 f8fb 	bl	b7f60 <_ZN10CloudClass13publish_eventEPKcS1_iN8particle5FlagsI15PublishFlagTypehEE>
   b4d6a:	a807      	add	r0, sp, #28
   b4d6c:	f7ff ff8c 	bl	b4c88 <_ZNSt14__shared_countILN9__gnu_cxx12_Lock_policyE0EED1Ev>
    String data = "Cheap(ish) hours of the day: ";
   b4d70:	a802      	add	r0, sp, #8
   b4d72:	f001 fa91 	bl	b6298 <_ZN6StringD1Ev>
}
   b4d76:	b00a      	add	sp, #40	; 0x28
   b4d78:	e8bd 81f0 	ldmia.w	sp!, {r4, r5, r6, r7, r8, pc}
   b4d7c:	000bbb86 	.word	0x000bbb86
   b4d80:	000bbbad 	.word	0x000bbbad
   b4d84:	000bbb8f 	.word	0x000bbb8f
   b4d88:	2003dc28 	.word	0x2003dc28
   b4d8c:	000bbbbc 	.word	0x000bbbbc

000b4d90 <loop>:
{
   b4d90:	b5f0      	push	{r4, r5, r6, r7, lr}
    if (STARTUP)
   b4d92:	4e8e      	ldr	r6, [pc, #568]	; (b4fcc <loop+0x23c>)
   b4d94:	4c8e      	ldr	r4, [pc, #568]	; (b4fd0 <loop+0x240>)
   b4d96:	7833      	ldrb	r3, [r6, #0]
{
   b4d98:	b0c7      	sub	sp, #284	; 0x11c
    if (STARTUP)
   b4d9a:	2b00      	cmp	r3, #0
   b4d9c:	d059      	beq.n	b4e52 <loop+0xc2>
        Serial.printlnf("RSSI=%d", (int8_t) WiFi.RSSI());
   b4d9e:	f003 fb3b 	bl	b8418 <_Z16_fetch_usbserialv>
   b4da2:	498c      	ldr	r1, [pc, #560]	; (b4fd4 <loop+0x244>)
            Serial.printf("Count1=: %d\n", count);
   b4da4:	4f8c      	ldr	r7, [pc, #560]	; (b4fd8 <loop+0x248>)
        Serial.printlnf("RSSI=%d", (int8_t) WiFi.RSSI());
   b4da6:	4605      	mov	r5, r0
   b4da8:	a806      	add	r0, sp, #24
   b4daa:	f003 fcf9 	bl	b87a0 <_ZN5spark9WiFiClass4RSSIEv>
   b4dae:	a806      	add	r0, sp, #24
   b4db0:	f003 fcd2 	bl	b8758 <_ZNK10WiFiSignalcvaEv>
   b4db4:	4989      	ldr	r1, [pc, #548]	; (b4fdc <loop+0x24c>)
   b4db6:	4602      	mov	r2, r0
   b4db8:	4628      	mov	r0, r5
   b4dba:	f7ff faff 	bl	b43bc <_ZN5Print8printlnfEPKcz>
        Serial.printf("Getting price data for yesterday\n");
   b4dbe:	f003 fb2b 	bl	b8418 <_Z16_fetch_usbserialv>
   b4dc2:	4987      	ldr	r1, [pc, #540]	; (b4fe0 <loop+0x250>)
   b4dc4:	f7ff fa5e 	bl	b4284 <_ZN5Print6printfEPKcz>
        get_data(Time.day() - 1);
   b4dc8:	f002 fece 	bl	b7b68 <_ZN9TimeClass3dayEv>
   b4dcc:	3801      	subs	r0, #1
   b4dce:	f7ff ff71 	bl	b4cb4 <_Z8get_datai>
         int count=0;
   b4dd2:	2500      	movs	r5, #0
        while (!CALCULATE)
   b4dd4:	7823      	ldrb	r3, [r4, #0]
   b4dd6:	b95b      	cbnz	r3, b4df0 <loop+0x60>
            delay(1000);
   b4dd8:	f44f 707a 	mov.w	r0, #1000	; 0x3e8
   b4ddc:	f002 feee 	bl	b7bbc <delay>
            Serial.printf("Count1=: %d\n", count);
   b4de0:	f003 fb1a 	bl	b8418 <_Z16_fetch_usbserialv>
   b4de4:	462a      	mov	r2, r5
   b4de6:	4639      	mov	r1, r7
   b4de8:	f7ff fa4c 	bl	b4284 <_ZN5Print6printfEPKcz>
            count++;
   b4dec:	3501      	adds	r5, #1
        while (!CALCULATE)
   b4dee:	e7f1      	b.n	b4dd4 <loop+0x44>
       delay(5000);
   b4df0:	f241 3088 	movw	r0, #5000	; 0x1388
        CALCULATE = false;
   b4df4:	2500      	movs	r5, #0
   b4df6:	7025      	strb	r5, [r4, #0]
       delay(5000);
   b4df8:	f002 fee0 	bl	b7bbc <delay>
        rotate_prices();
   b4dfc:	f7ff ff20 	bl	b4c40 <_Z13rotate_pricesv>
        Serial.printf("Getting price data for today\n");
   b4e00:	f003 fb0a 	bl	b8418 <_Z16_fetch_usbserialv>
   b4e04:	4977      	ldr	r1, [pc, #476]	; (b4fe4 <loop+0x254>)
            Serial.printf("Count2=: %d\n", count);
   b4e06:	4f78      	ldr	r7, [pc, #480]	; (b4fe8 <loop+0x258>)
        Serial.printf("Getting price data for today\n");
   b4e08:	f7ff fa3c 	bl	b4284 <_ZN5Print6printfEPKcz>
        get_data(Time.day());
   b4e0c:	f002 feac 	bl	b7b68 <_ZN9TimeClass3dayEv>
   b4e10:	f7ff ff50 	bl	b4cb4 <_Z8get_datai>
        while (!CALCULATE)
   b4e14:	7823      	ldrb	r3, [r4, #0]
   b4e16:	b95b      	cbnz	r3, b4e30 <loop+0xa0>
            delay(1000);
   b4e18:	f44f 707a 	mov.w	r0, #1000	; 0x3e8
   b4e1c:	f002 fece 	bl	b7bbc <delay>
            Serial.printf("Count2=: %d\n", count);
   b4e20:	f003 fafa 	bl	b8418 <_Z16_fetch_usbserialv>
   b4e24:	462a      	mov	r2, r5
   b4e26:	4639      	mov	r1, r7
   b4e28:	f7ff fa2c 	bl	b4284 <_ZN5Print6printfEPKcz>
            count++;
   b4e2c:	3501      	adds	r5, #1
        while (!CALCULATE)
   b4e2e:	e7f1      	b.n	b4e14 <loop+0x84>
        rotate_prices();
   b4e30:	f7ff ff06 	bl	b4c40 <_Z13rotate_pricesv>
        delay(5000);
   b4e34:	f241 3088 	movw	r0, #5000	; 0x1388
   b4e38:	f002 fec0 	bl	b7bbc <delay>
        if (Time.hour() >= PULL_TIME_1)
   b4e3c:	f002 fe70 	bl	b7b20 <_ZN9TimeClass4hourEv>
   b4e40:	280c      	cmp	r0, #12
   b4e42:	dd3d      	ble.n	b4ec0 <loop+0x130>
            CALCULATE = false;
   b4e44:	2300      	movs	r3, #0
   b4e46:	7023      	strb	r3, [r4, #0]
            GET_DATA = true;
   b4e48:	4b68      	ldr	r3, [pc, #416]	; (b4fec <loop+0x25c>)
   b4e4a:	2201      	movs	r2, #1
   b4e4c:	701a      	strb	r2, [r3, #0]
        STARTUP = false;
   b4e4e:	2300      	movs	r3, #0
   b4e50:	7033      	strb	r3, [r6, #0]
    if (GET_DATA)
   b4e52:	4d66      	ldr	r5, [pc, #408]	; (b4fec <loop+0x25c>)
   b4e54:	782b      	ldrb	r3, [r5, #0]
   b4e56:	b14b      	cbz	r3, b4e6c <loop+0xdc>
        AWAITING_DATA = true;
   b4e58:	4b65      	ldr	r3, [pc, #404]	; (b4ff0 <loop+0x260>)
   b4e5a:	2201      	movs	r2, #1
   b4e5c:	701a      	strb	r2, [r3, #0]
        get_data(Time.day() + 1);
   b4e5e:	f002 fe83 	bl	b7b68 <_ZN9TimeClass3dayEv>
   b4e62:	3001      	adds	r0, #1
   b4e64:	f7ff ff26 	bl	b4cb4 <_Z8get_datai>
        GET_DATA = false;
   b4e68:	2300      	movs	r3, #0
   b4e6a:	702b      	strb	r3, [r5, #0]
    if (CALCULATE)
   b4e6c:	7823      	ldrb	r3, [r4, #0]
   b4e6e:	4d61      	ldr	r5, [pc, #388]	; (b4ff4 <loop+0x264>)
   b4e70:	b37b      	cbz	r3, b4ed2 <loop+0x142>
        update_JSON();
   b4e72:	f7ff fc63 	bl	b473c <_Z11update_JSONv>
        cnt = calc_low(start_stop, cost_today, MAX_RANGE);
   b4e76:	4b60      	ldr	r3, [pc, #384]	; (b4ff8 <loop+0x268>)
   b4e78:	4860      	ldr	r0, [pc, #384]	; (b4ffc <loop+0x26c>)
   b4e7a:	6819      	ldr	r1, [r3, #0]
   b4e7c:	2218      	movs	r2, #24
   b4e7e:	f7ff fb7b 	bl	b4578 <_Z8calc_lowPA2_iPdi>
   b4e82:	4b5f      	ldr	r3, [pc, #380]	; (b5000 <loop+0x270>)
   b4e84:	6018      	str	r0, [r3, #0]
        Serial.printf("Current HH:MM: %02d:%02d\n", Time.hour(), Time.minute());
   b4e86:	f003 fac7 	bl	b8418 <_Z16_fetch_usbserialv>
   b4e8a:	4606      	mov	r6, r0
   b4e8c:	f002 fe48 	bl	b7b20 <_ZN9TimeClass4hourEv>
   b4e90:	9001      	str	r0, [sp, #4]
   b4e92:	f002 fe51 	bl	b7b38 <_ZN9TimeClass6minuteEv>
   b4e96:	9a01      	ldr	r2, [sp, #4]
   b4e98:	495a      	ldr	r1, [pc, #360]	; (b5004 <loop+0x274>)
   b4e9a:	4603      	mov	r3, r0
   b4e9c:	4630      	mov	r0, r6
   b4e9e:	f7ff f9f1 	bl	b4284 <_ZN5Print6printfEPKcz>
        TRANSMIT_PRICE = true;
   b4ea2:	2301      	movs	r3, #1
   b4ea4:	702b      	strb	r3, [r5, #0]
        CALCULATE = false;
   b4ea6:	2300      	movs	r3, #0
   b4ea8:	7023      	strb	r3, [r4, #0]
        transmit_prices(start_stop, cnt);
   b4eaa:	4b55      	ldr	r3, [pc, #340]	; (b5000 <loop+0x270>)
   b4eac:	4853      	ldr	r0, [pc, #332]	; (b4ffc <loop+0x26c>)
   b4eae:	6819      	ldr	r1, [r3, #0]
   b4eb0:	f7ff ff2c 	bl	b4d0c <_Z15transmit_pricesPA2_ii>
        STANDBY_STATE = true;
   b4eb4:	4b54      	ldr	r3, [pc, #336]	; (b5008 <loop+0x278>)
   b4eb6:	2201      	movs	r2, #1
   b4eb8:	701a      	strb	r2, [r3, #0]
        TRANSMIT_PRICE = false;
   b4eba:	2300      	movs	r3, #0
   b4ebc:	702b      	strb	r3, [r5, #0]
   b4ebe:	e00b      	b.n	b4ed8 <loop+0x148>
            Serial.printf("The prices for tomorrov will be pulled at %d:00\n", PULL_TIME_1);
   b4ec0:	f003 faaa 	bl	b8418 <_Z16_fetch_usbserialv>
   b4ec4:	4951      	ldr	r1, [pc, #324]	; (b500c <loop+0x27c>)
   b4ec6:	220d      	movs	r2, #13
   b4ec8:	f7ff f9dc 	bl	b4284 <_ZN5Print6printfEPKcz>
            CALCULATE = true;
   b4ecc:	2301      	movs	r3, #1
   b4ece:	7023      	strb	r3, [r4, #0]
   b4ed0:	e7bd      	b.n	b4e4e <loop+0xbe>
    if (TRANSMIT_PRICE)
   b4ed2:	782b      	ldrb	r3, [r5, #0]
   b4ed4:	2b00      	cmp	r3, #0
   b4ed6:	d1e8      	bne.n	b4eaa <loop+0x11a>
    if (TRANSMIT_SENSOR) // Did we receive a request for updated values
   b4ed8:	4d4d      	ldr	r5, [pc, #308]	; (b5010 <loop+0x280>)
   b4eda:	782b      	ldrb	r3, [r5, #0]
   b4edc:	b333      	cbz	r3, b4f2c <loop+0x19c>
        Serial.printf("Received power/get\n");
   b4ede:	f003 fa9b 	bl	b8418 <_Z16_fetch_usbserialv>
   b4ee2:	494c      	ldr	r1, [pc, #304]	; (b5014 <loop+0x284>)
   b4ee4:	f7ff f9ce 	bl	b4284 <_ZN5Print6printfEPKcz>
        wh_today[Time.hour()] += 1;
   b4ee8:	4b4b      	ldr	r3, [pc, #300]	; (b5018 <loop+0x288>)
   b4eea:	681e      	ldr	r6, [r3, #0]
   b4eec:	f002 fe18 	bl	b7b20 <_ZN9TimeClass4hourEv>
   b4ef0:	f856 3020 	ldr.w	r3, [r6, r0, lsl #2]
        sprintf(buffer, "{\"watt\":%d}", calc_power);
   b4ef4:	4949      	ldr	r1, [pc, #292]	; (b501c <loop+0x28c>)
        wh_today[Time.hour()] += 1;
   b4ef6:	3301      	adds	r3, #1
   b4ef8:	f846 3020 	str.w	r3, [r6, r0, lsl #2]
        sprintf(buffer, "{\"watt\":%d}", calc_power);
   b4efc:	4b48      	ldr	r3, [pc, #288]	; (b5020 <loop+0x290>)
   b4efe:	a806      	add	r0, sp, #24
   b4f00:	681a      	ldr	r2, [r3, #0]
   b4f02:	f000 fde5 	bl	b5ad0 <sprintf>
    ssize_t setValue(const char* str, BleTxRxType type = BleTxRxType::AUTO);

    template<typename T>
    typename std::enable_if_t<std::is_standard_layout<T>::value, ssize_t>
    setValue(const T& val, BleTxRxType type = BleTxRxType::AUTO) {
        return setValue(reinterpret_cast<const uint8_t*>(&val), sizeof(T), type);
   b4f06:	2300      	movs	r3, #0
   b4f08:	22ff      	movs	r2, #255	; 0xff
   b4f0a:	a906      	add	r1, sp, #24
   b4f0c:	4845      	ldr	r0, [pc, #276]	; (b5024 <loop+0x294>)
   b4f0e:	f001 fd29 	bl	b6964 <_ZN8particle17BleCharacteristic8setValueEPKhjNS_11BleTxRxTypeE>
        WhrTodayCharacteristic.setValue(update_Whr_Today_JSON());
   b4f12:	a802      	add	r0, sp, #8
   b4f14:	f7ff fd5a 	bl	b49cc <_Z21update_Whr_Today_JSONv>
   b4f18:	2200      	movs	r2, #0
   b4f1a:	a902      	add	r1, sp, #8
   b4f1c:	4842      	ldr	r0, [pc, #264]	; (b5028 <loop+0x298>)
   b4f1e:	f001 fd81 	bl	b6a24 <_ZN8particle17BleCharacteristic8setValueERK6StringNS_11BleTxRxTypeE>
   b4f22:	a802      	add	r0, sp, #8
   b4f24:	f001 f9b8 	bl	b6298 <_ZN6StringD1Ev>
        TRANSMIT_SENSOR = false;
   b4f28:	2300      	movs	r3, #0
   b4f2a:	702b      	strb	r3, [r5, #0]
    if (ROTATE)
   b4f2c:	4d3f      	ldr	r5, [pc, #252]	; (b502c <loop+0x29c>)
   b4f2e:	782b      	ldrb	r3, [r5, #0]
   b4f30:	b12b      	cbz	r3, b4f3e <loop+0x1ae>
        rotate_prices();
   b4f32:	f7ff fe85 	bl	b4c40 <_Z13rotate_pricesv>
        ROTATE = false;
   b4f36:	2300      	movs	r3, #0
   b4f38:	702b      	strb	r3, [r5, #0]
        CALCULATE = true;
   b4f3a:	2301      	movs	r3, #1
   b4f3c:	7023      	strb	r3, [r4, #0]
    if (UPDATE_WH_TODAY)
   b4f3e:	4c3c      	ldr	r4, [pc, #240]	; (b5030 <loop+0x2a0>)
   b4f40:	7823      	ldrb	r3, [r4, #0]
   b4f42:	b11b      	cbz	r3, b4f4c <loop+0x1bc>
        hourly_JSON_update();
   b4f44:	f7ff fbc8 	bl	b46d8 <_Z18hourly_JSON_updatev>
        UPDATE_WH_TODAY = false;
   b4f48:	2300      	movs	r3, #0
   b4f4a:	7023      	strb	r3, [r4, #0]
    if (NewBLEConnection & ((millis() - last_connect) > 1400))
   b4f4c:	4c39      	ldr	r4, [pc, #228]	; (b5034 <loop+0x2a4>)
   b4f4e:	7825      	ldrb	r5, [r4, #0]
   b4f50:	f000 fac0 	bl	b54d4 <HAL_Timer_Get_Milli_Seconds>
   b4f54:	4b38      	ldr	r3, [pc, #224]	; (b5038 <loop+0x2a8>)
   b4f56:	681b      	ldr	r3, [r3, #0]
   b4f58:	1ac0      	subs	r0, r0, r3
   b4f5a:	f5b0 6faf 	cmp.w	r0, #1400	; 0x578
   b4f5e:	d92e      	bls.n	b4fbe <loop+0x22e>
   b4f60:	b36d      	cbz	r5, b4fbe <loop+0x22e>
        update_JSON();
   b4f62:	f7ff fbeb 	bl	b473c <_Z11update_JSONv>
        sprintf(buffer, "{\"watt\":%d}", calc_power);
   b4f66:	4b2e      	ldr	r3, [pc, #184]	; (b5020 <loop+0x290>)
   b4f68:	492c      	ldr	r1, [pc, #176]	; (b501c <loop+0x28c>)
   b4f6a:	681a      	ldr	r2, [r3, #0]
   b4f6c:	a806      	add	r0, sp, #24
   b4f6e:	f000 fdaf 	bl	b5ad0 <sprintf>
   b4f72:	2300      	movs	r3, #0
   b4f74:	22ff      	movs	r2, #255	; 0xff
   b4f76:	a906      	add	r1, sp, #24
   b4f78:	482a      	ldr	r0, [pc, #168]	; (b5024 <loop+0x294>)
   b4f7a:	f001 fcf3 	bl	b6964 <_ZN8particle17BleCharacteristic8setValueEPKhjNS_11BleTxRxTypeE>
        DkkYesterdayCharacteristic.setValue(pricesyesterday_Json);
   b4f7e:	492f      	ldr	r1, [pc, #188]	; (b503c <loop+0x2ac>)
   b4f80:	482f      	ldr	r0, [pc, #188]	; (b5040 <loop+0x2b0>)
   b4f82:	2200      	movs	r2, #0
   b4f84:	f001 fd4e 	bl	b6a24 <_ZN8particle17BleCharacteristic8setValueERK6StringNS_11BleTxRxTypeE>
        DkkTodayCharacteristic.setValue(pricestoday_Json);       // string Kr/kwhr
   b4f88:	492e      	ldr	r1, [pc, #184]	; (b5044 <loop+0x2b4>)
   b4f8a:	482f      	ldr	r0, [pc, #188]	; (b5048 <loop+0x2b8>)
   b4f8c:	2200      	movs	r2, #0
   b4f8e:	f001 fd49 	bl	b6a24 <_ZN8particle17BleCharacteristic8setValueERK6StringNS_11BleTxRxTypeE>
        DkkTomorrowCharacteristic.setValue(pricestomorrow_Json); // string Kr/kwhr
   b4f92:	492e      	ldr	r1, [pc, #184]	; (b504c <loop+0x2bc>)
   b4f94:	482e      	ldr	r0, [pc, #184]	; (b5050 <loop+0x2c0>)
   b4f96:	2200      	movs	r2, #0
   b4f98:	f001 fd44 	bl	b6a24 <_ZN8particle17BleCharacteristic8setValueERK6StringNS_11BleTxRxTypeE>
        WhrYesterdayCharacteristic.setValue(wh_yesterday_Json);  // string Whr
   b4f9c:	492d      	ldr	r1, [pc, #180]	; (b5054 <loop+0x2c4>)
   b4f9e:	482e      	ldr	r0, [pc, #184]	; (b5058 <loop+0x2c8>)
   b4fa0:	2200      	movs	r2, #0
   b4fa2:	f001 fd3f 	bl	b6a24 <_ZN8particle17BleCharacteristic8setValueERK6StringNS_11BleTxRxTypeE>
        WhrTodayCharacteristic.setValue(wh_today_Json);          // Whr used in the corresponding hour
   b4fa6:	492d      	ldr	r1, [pc, #180]	; (b505c <loop+0x2cc>)
   b4fa8:	481f      	ldr	r0, [pc, #124]	; (b5028 <loop+0x298>)
   b4faa:	2200      	movs	r2, #0
   b4fac:	f001 fd3a 	bl	b6a24 <_ZN8particle17BleCharacteristic8setValueERK6StringNS_11BleTxRxTypeE>
        NewBLEConnection = false;
   b4fb0:	2300      	movs	r3, #0
   b4fb2:	7023      	strb	r3, [r4, #0]
        Serial.printf("ble_connected\n");
   b4fb4:	f003 fa30 	bl	b8418 <_Z16_fetch_usbserialv>
   b4fb8:	4929      	ldr	r1, [pc, #164]	; (b5060 <loop+0x2d0>)
   b4fba:	f7ff f963 	bl	b4284 <_ZN5Print6printfEPKcz>
    delay(1000);
   b4fbe:	f44f 707a 	mov.w	r0, #1000	; 0x3e8
}
   b4fc2:	b047      	add	sp, #284	; 0x11c
   b4fc4:	e8bd 40f0 	ldmia.w	sp!, {r4, r5, r6, r7, lr}
    delay(1000);
   b4fc8:	f002 bdf8 	b.w	b7bbc <delay>
   b4fcc:	2003db80 	.word	0x2003db80
   b4fd0:	2003db61 	.word	0x2003db61
   b4fd4:	2003e710 	.word	0x2003e710
   b4fd8:	000bbbf6 	.word	0x000bbbf6
   b4fdc:	000bbbcc 	.word	0x000bbbcc
   b4fe0:	000bbbd4 	.word	0x000bbbd4
   b4fe4:	000bbc03 	.word	0x000bbc03
   b4fe8:	000bbc21 	.word	0x000bbc21
   b4fec:	2003db7c 	.word	0x2003db7c
   b4ff0:	2003db60 	.word	0x2003db60
   b4ff4:	2003db81 	.word	0x2003db81
   b4ff8:	2003dc98 	.word	0x2003dc98
   b4ffc:	2003dc30 	.word	0x2003dc30
   b5000:	2003dc90 	.word	0x2003dc90
   b5004:	000bbb34 	.word	0x000bbb34
   b5008:	2003db7f 	.word	0x2003db7f
   b500c:	000bbc2e 	.word	0x000bbc2e
   b5010:	2003db82 	.word	0x2003db82
   b5014:	000bbc5f 	.word	0x000bbc5f
   b5018:	2003e1b8 	.word	0x2003e1b8
   b501c:	000bbc73 	.word	0x000bbc73
   b5020:	2003dc94 	.word	0x2003dc94
   b5024:	2003db84 	.word	0x2003db84
   b5028:	2003db8c 	.word	0x2003db8c
   b502c:	2003db7e 	.word	0x2003db7e
   b5030:	2003db83 	.word	0x2003db83
   b5034:	2003db7d 	.word	0x2003db7d
   b5038:	2003dca8 	.word	0x2003dca8
   b503c:	2003dccc 	.word	0x2003dccc
   b5040:	2003db74 	.word	0x2003db74
   b5044:	2003dcac 	.word	0x2003dcac
   b5048:	2003db64 	.word	0x2003db64
   b504c:	2003dcbc 	.word	0x2003dcbc
   b5050:	2003db6c 	.word	0x2003db6c
   b5054:	2003e1d0 	.word	0x2003e1d0
   b5058:	2003db94 	.word	0x2003db94
   b505c:	2003e1bc 	.word	0x2003e1bc
   b5060:	000bbc7f 	.word	0x000bbc7f

000b5064 <_ZN8particle17BleCharacteristicC1INS_7BleUuidES2_EEPKcNS_9EnumFlagsINS_25BleCharacteristicPropertyEvEET_T0_PFvPKhjRKNS_13BlePeerDeviceEPvESF_>:
    BleCharacteristic(const char* desc, EnumFlags<BleCharacteristicProperty> properties, T1 charUuid, T2 svcUuid, BleOnDataReceivedCallback callback = nullptr, void* context = nullptr) {
   b5064:	b082      	sub	sp, #8
   b5066:	b5f0      	push	{r4, r5, r6, r7, lr}
   b5068:	b08f      	sub	sp, #60	; 0x3c
        BleUuid cUuid(charUuid);
   b506a:	ad15      	add	r5, sp, #84	; 0x54
    BleCharacteristic(const char* desc, EnumFlags<BleCharacteristicProperty> properties, T1 charUuid, T2 svcUuid, BleOnDataReceivedCallback callback = nullptr, void* context = nullptr) {
   b506c:	9315      	str	r3, [sp, #84]	; 0x54
      : _M_ptr(0), _M_refcount()
   b506e:	2300      	movs	r3, #0
      constexpr __shared_count() noexcept : _M_pi(0)
   b5070:	e9c0 3300 	strd	r3, r3, [r0]
   b5074:	4606      	mov	r6, r0
   b5076:	4694      	mov	ip, r2
   b5078:	460f      	mov	r7, r1
        BleUuid cUuid(charUuid);
   b507a:	cd0f      	ldmia	r5!, {r0, r1, r2, r3}
   b507c:	ac04      	add	r4, sp, #16
   b507e:	c40f      	stmia	r4!, {r0, r1, r2, r3}
   b5080:	682b      	ldr	r3, [r5, #0]
   b5082:	6023      	str	r3, [r4, #0]
        BleUuid sUuid(svcUuid);
   b5084:	ad1a      	add	r5, sp, #104	; 0x68
   b5086:	cd0f      	ldmia	r5!, {r0, r1, r2, r3}
   b5088:	ac09      	add	r4, sp, #36	; 0x24
   b508a:	c40f      	stmia	r4!, {r0, r1, r2, r3}
   b508c:	682b      	ldr	r3, [r5, #0]
   b508e:	6023      	str	r3, [r4, #0]
        construct(desc, properties, cUuid, sUuid, callback, context);
   b5090:	9b20      	ldr	r3, [sp, #128]	; 0x80
   b5092:	9302      	str	r3, [sp, #8]
   b5094:	9b1f      	ldr	r3, [sp, #124]	; 0x7c
   b5096:	9301      	str	r3, [sp, #4]
   b5098:	ab09      	add	r3, sp, #36	; 0x24
   b509a:	9300      	str	r3, [sp, #0]
   b509c:	4630      	mov	r0, r6
   b509e:	ab04      	add	r3, sp, #16
   b50a0:	4662      	mov	r2, ip
   b50a2:	4639      	mov	r1, r7
   b50a4:	f002 f9a0 	bl	b73e8 <_ZN8particle17BleCharacteristic9constructEPKcNS_9EnumFlagsINS_25BleCharacteristicPropertyEvEERNS_7BleUuidES7_PFvPKhjRKNS_13BlePeerDeviceEPvESD_>
    }
   b50a8:	4630      	mov	r0, r6
   b50aa:	b00f      	add	sp, #60	; 0x3c
   b50ac:	e8bd 40f0 	ldmia.w	sp!, {r4, r5, r6, r7, lr}
   b50b0:	b002      	add	sp, #8
   b50b2:	4770      	bx	lr

000b50b4 <_GLOBAL__sub_I_argonName>:
   b50b4:	e92d 4ff0 	stmdb	sp!, {r4, r5, r6, r7, r8, r9, sl, fp, lr}
        val_(val) {
   b50b8:	4b87      	ldr	r3, [pc, #540]	; (b52d8 <_GLOBAL__sub_I_argonName+0x224>)
const BleUuid powermonitorserviceUuid(serviceUuid_c);
   b50ba:	4d88      	ldr	r5, [pc, #544]	; (b52dc <_GLOBAL__sub_I_argonName+0x228>)
const BleUuid wattcharacteristicUuid(watt_c);
   b50bc:	f8df b2b4 	ldr.w	fp, [pc, #692]	; b5374 <_GLOBAL__sub_I_argonName+0x2c0>
const BleUuid DkkyesterdaycharacteristicUuid(DkkYesterday_c);
   b50c0:	f8df a2b4 	ldr.w	sl, [pc, #692]	; b5378 <_GLOBAL__sub_I_argonName+0x2c4>
const BleUuid DkktodaycharacteristicUuid(DkkToday_c);
   b50c4:	f8df 92b4 	ldr.w	r9, [pc, #692]	; b537c <_GLOBAL__sub_I_argonName+0x2c8>
   b50c8:	f04f 0801 	mov.w	r8, #1
   b50cc:	f883 8000 	strb.w	r8, [r3]
const BleUuid powermonitorserviceUuid(serviceUuid_c);
   b50d0:	4b83      	ldr	r3, [pc, #524]	; (b52e0 <_GLOBAL__sub_I_argonName+0x22c>)
   b50d2:	b093      	sub	sp, #76	; 0x4c
   b50d4:	6819      	ldr	r1, [r3, #0]
   b50d6:	4628      	mov	r0, r5
   b50d8:	f001 fc06 	bl	b68e8 <_ZN8particle7BleUuidC1EPKc>
const BleUuid wattcharacteristicUuid(watt_c);
   b50dc:	4b81      	ldr	r3, [pc, #516]	; (b52e4 <_GLOBAL__sub_I_argonName+0x230>)
   b50de:	4658      	mov	r0, fp
   b50e0:	6819      	ldr	r1, [r3, #0]
   b50e2:	f001 fc01 	bl	b68e8 <_ZN8particle7BleUuidC1EPKc>
const BleUuid DkkyesterdaycharacteristicUuid(DkkYesterday_c);
   b50e6:	4b80      	ldr	r3, [pc, #512]	; (b52e8 <_GLOBAL__sub_I_argonName+0x234>)
   b50e8:	4650      	mov	r0, sl
   b50ea:	6819      	ldr	r1, [r3, #0]
   b50ec:	f001 fbfc 	bl	b68e8 <_ZN8particle7BleUuidC1EPKc>
const BleUuid DkktodaycharacteristicUuid(DkkToday_c);
   b50f0:	4b7e      	ldr	r3, [pc, #504]	; (b52ec <_GLOBAL__sub_I_argonName+0x238>)
   b50f2:	4648      	mov	r0, r9
   b50f4:	6819      	ldr	r1, [r3, #0]
   b50f6:	f001 fbf7 	bl	b68e8 <_ZN8particle7BleUuidC1EPKc>
const BleUuid DkktomorrowcharacteristicUuid(DkkTomorrow_c);
   b50fa:	4b7d      	ldr	r3, [pc, #500]	; (b52f0 <_GLOBAL__sub_I_argonName+0x23c>)
   b50fc:	487d      	ldr	r0, [pc, #500]	; (b52f4 <_GLOBAL__sub_I_argonName+0x240>)
   b50fe:	6819      	ldr	r1, [r3, #0]
   b5100:	f001 fbf2 	bl	b68e8 <_ZN8particle7BleUuidC1EPKc>
const BleUuid WhrTodaycharacteristicUuid (WhrToday_c);
   b5104:	4b7c      	ldr	r3, [pc, #496]	; (b52f8 <_GLOBAL__sub_I_argonName+0x244>)
   b5106:	487d      	ldr	r0, [pc, #500]	; (b52fc <_GLOBAL__sub_I_argonName+0x248>)
   b5108:	6819      	ldr	r1, [r3, #0]
   b510a:	f001 fbed 	bl	b68e8 <_ZN8particle7BleUuidC1EPKc>
const BleUuid WhrYesterdayCharacteristicUuid(WhrYesterday_c);
   b510e:	4b7c      	ldr	r3, [pc, #496]	; (b5300 <_GLOBAL__sub_I_argonName+0x24c>)
   b5110:	487c      	ldr	r0, [pc, #496]	; (b5304 <_GLOBAL__sub_I_argonName+0x250>)
   b5112:	6819      	ldr	r1, [r3, #0]
BleCharacteristic WattCharacteristic("Watt now", BleCharacteristicProperty::NOTIFY, wattcharacteristicUuid, powermonitorserviceUuid);
   b5114:	2400      	movs	r4, #0
const BleUuid WhrYesterdayCharacteristicUuid(WhrYesterday_c);
   b5116:	f001 fbe7 	bl	b68e8 <_ZN8particle7BleUuidC1EPKc>
BleCharacteristic WattCharacteristic("Watt now", BleCharacteristicProperty::NOTIFY, wattcharacteristicUuid, powermonitorserviceUuid);
   b511a:	e9cd 4409 	strd	r4, r4, [sp, #36]	; 0x24
   b511e:	462e      	mov	r6, r5
   b5120:	ce0f      	ldmia	r6!, {r0, r1, r2, r3}
        : value_(0) {
}

template<typename T>
inline particle::EnumFlags<T, typename std::enable_if_t<std::is_enum<T>::value>>::EnumFlags(const T& value) {
    value_ = static_cast<ValueType>(value);
   b5122:	2710      	movs	r7, #16
   b5124:	eb0d 0c07 	add.w	ip, sp, r7
   b5128:	e8ac 000f 	stmia.w	ip!, {r0, r1, r2, r3}
   b512c:	6833      	ldr	r3, [r6, #0]
   b512e:	f8cc 3000 	str.w	r3, [ip]
   b5132:	f10b 0304 	add.w	r3, fp, #4
   b5136:	cb0f      	ldmia	r3, {r0, r1, r2, r3}
   b5138:	e88d 000f 	stmia.w	sp, {r0, r1, r2, r3}
   b513c:	f8db 3000 	ldr.w	r3, [fp]
   b5140:	4971      	ldr	r1, [pc, #452]	; (b5308 <_GLOBAL__sub_I_argonName+0x254>)
   b5142:	4872      	ldr	r0, [pc, #456]	; (b530c <_GLOBAL__sub_I_argonName+0x258>)
   b5144:	463a      	mov	r2, r7
   b5146:	f7ff ff8d 	bl	b5064 <_ZN8particle17BleCharacteristicC1INS_7BleUuidES2_EEPKcNS_9EnumFlagsINS_25BleCharacteristicPropertyEvEET_T0_PFvPKhjRKNS_13BlePeerDeviceEPvESF_>
BleCharacteristic DkkYesterdayCharacteristic("DKK Yesterday", BleCharacteristicProperty::NOTIFY, DkkyesterdaycharacteristicUuid, powermonitorserviceUuid);
   b514a:	e9cd 4409 	strd	r4, r4, [sp, #36]	; 0x24
   b514e:	46ae      	mov	lr, r5
   b5150:	e8be 000f 	ldmia.w	lr!, {r0, r1, r2, r3}
   b5154:	eb0d 0c07 	add.w	ip, sp, r7
   b5158:	e8ac 000f 	stmia.w	ip!, {r0, r1, r2, r3}
   b515c:	6833      	ldr	r3, [r6, #0]
   b515e:	f8cc 3000 	str.w	r3, [ip]
   b5162:	f10a 0304 	add.w	r3, sl, #4
   b5166:	cb0f      	ldmia	r3, {r0, r1, r2, r3}
   b5168:	e88d 000f 	stmia.w	sp, {r0, r1, r2, r3}
   b516c:	f8da 3000 	ldr.w	r3, [sl]
   b5170:	4967      	ldr	r1, [pc, #412]	; (b5310 <_GLOBAL__sub_I_argonName+0x25c>)
   b5172:	4868      	ldr	r0, [pc, #416]	; (b5314 <_GLOBAL__sub_I_argonName+0x260>)
   b5174:	463a      	mov	r2, r7
   b5176:	f7ff ff75 	bl	b5064 <_ZN8particle17BleCharacteristicC1INS_7BleUuidES2_EEPKcNS_9EnumFlagsINS_25BleCharacteristicPropertyEvEET_T0_PFvPKhjRKNS_13BlePeerDeviceEPvESF_>
BleCharacteristic DkkTodayCharacteristic("DKK Today", BleCharacteristicProperty::NOTIFY, DkktodaycharacteristicUuid, powermonitorserviceUuid);
   b517a:	e9cd 4409 	strd	r4, r4, [sp, #36]	; 0x24
   b517e:	46ae      	mov	lr, r5
   b5180:	e8be 000f 	ldmia.w	lr!, {r0, r1, r2, r3}
   b5184:	eb0d 0c07 	add.w	ip, sp, r7
   b5188:	e8ac 000f 	stmia.w	ip!, {r0, r1, r2, r3}
   b518c:	6833      	ldr	r3, [r6, #0]
   b518e:	f8cc 3000 	str.w	r3, [ip]
   b5192:	f109 0304 	add.w	r3, r9, #4
   b5196:	cb0f      	ldmia	r3, {r0, r1, r2, r3}
   b5198:	e88d 000f 	stmia.w	sp, {r0, r1, r2, r3}
   b519c:	f8d9 3000 	ldr.w	r3, [r9]
   b51a0:	495d      	ldr	r1, [pc, #372]	; (b5318 <_GLOBAL__sub_I_argonName+0x264>)
   b51a2:	485e      	ldr	r0, [pc, #376]	; (b531c <_GLOBAL__sub_I_argonName+0x268>)
   b51a4:	463a      	mov	r2, r7
   b51a6:	f7ff ff5d 	bl	b5064 <_ZN8particle17BleCharacteristicC1INS_7BleUuidES2_EEPKcNS_9EnumFlagsINS_25BleCharacteristicPropertyEvEET_T0_PFvPKhjRKNS_13BlePeerDeviceEPvESF_>
BleCharacteristic DkkTomorrowCharacteristic("DKK Tomorrow", BleCharacteristicProperty::NOTIFY, DkktomorrowcharacteristicUuid, powermonitorserviceUuid);
   b51aa:	e9cd 4409 	strd	r4, r4, [sp, #36]	; 0x24
   b51ae:	46ae      	mov	lr, r5
   b51b0:	e8be 000f 	ldmia.w	lr!, {r0, r1, r2, r3}
   b51b4:	eb0d 0c07 	add.w	ip, sp, r7
   b51b8:	e8ac 000f 	stmia.w	ip!, {r0, r1, r2, r3}
   b51bc:	6833      	ldr	r3, [r6, #0]
   b51be:	f8cc 3000 	str.w	r3, [ip]
   b51c2:	4b4c      	ldr	r3, [pc, #304]	; (b52f4 <_GLOBAL__sub_I_argonName+0x240>)
   b51c4:	3304      	adds	r3, #4
   b51c6:	cb0f      	ldmia	r3, {r0, r1, r2, r3}
   b51c8:	e88d 000f 	stmia.w	sp, {r0, r1, r2, r3}
   b51cc:	4b49      	ldr	r3, [pc, #292]	; (b52f4 <_GLOBAL__sub_I_argonName+0x240>)
   b51ce:	4954      	ldr	r1, [pc, #336]	; (b5320 <_GLOBAL__sub_I_argonName+0x26c>)
   b51d0:	681b      	ldr	r3, [r3, #0]
   b51d2:	4854      	ldr	r0, [pc, #336]	; (b5324 <_GLOBAL__sub_I_argonName+0x270>)
   b51d4:	463a      	mov	r2, r7
   b51d6:	f7ff ff45 	bl	b5064 <_ZN8particle17BleCharacteristicC1INS_7BleUuidES2_EEPKcNS_9EnumFlagsINS_25BleCharacteristicPropertyEvEET_T0_PFvPKhjRKNS_13BlePeerDeviceEPvESF_>
BleCharacteristic WhrTodayCharacteristic("Whr Today", BleCharacteristicProperty::NOTIFY, WhrTodaycharacteristicUuid, powermonitorserviceUuid);
   b51da:	e9cd 4409 	strd	r4, r4, [sp, #36]	; 0x24
   b51de:	46ae      	mov	lr, r5
   b51e0:	e8be 000f 	ldmia.w	lr!, {r0, r1, r2, r3}
   b51e4:	eb0d 0c07 	add.w	ip, sp, r7
   b51e8:	e8ac 000f 	stmia.w	ip!, {r0, r1, r2, r3}
   b51ec:	6833      	ldr	r3, [r6, #0]
   b51ee:	f8cc 3000 	str.w	r3, [ip]
   b51f2:	4b42      	ldr	r3, [pc, #264]	; (b52fc <_GLOBAL__sub_I_argonName+0x248>)
   b51f4:	3304      	adds	r3, #4
   b51f6:	cb0f      	ldmia	r3, {r0, r1, r2, r3}
   b51f8:	e88d 000f 	stmia.w	sp, {r0, r1, r2, r3}
   b51fc:	4b3f      	ldr	r3, [pc, #252]	; (b52fc <_GLOBAL__sub_I_argonName+0x248>)
   b51fe:	494a      	ldr	r1, [pc, #296]	; (b5328 <_GLOBAL__sub_I_argonName+0x274>)
   b5200:	681b      	ldr	r3, [r3, #0]
   b5202:	484a      	ldr	r0, [pc, #296]	; (b532c <_GLOBAL__sub_I_argonName+0x278>)
   b5204:	463a      	mov	r2, r7
   b5206:	f7ff ff2d 	bl	b5064 <_ZN8particle17BleCharacteristicC1INS_7BleUuidES2_EEPKcNS_9EnumFlagsINS_25BleCharacteristicPropertyEvEET_T0_PFvPKhjRKNS_13BlePeerDeviceEPvESF_>
BleCharacteristic WhrYesterdayCharacteristic("Whr Yesterday", BleCharacteristicProperty::NOTIFY, WhrYesterdayCharacteristicUuid, powermonitorserviceUuid);
   b520a:	e9cd 4409 	strd	r4, r4, [sp, #36]	; 0x24
   b520e:	cd0f      	ldmia	r5!, {r0, r1, r2, r3}
   b5210:	eb0d 0c07 	add.w	ip, sp, r7
   b5214:	e8ac 000f 	stmia.w	ip!, {r0, r1, r2, r3}
   b5218:	4d3a      	ldr	r5, [pc, #232]	; (b5304 <_GLOBAL__sub_I_argonName+0x250>)
   b521a:	6833      	ldr	r3, [r6, #0]
   b521c:	f8cc 3000 	str.w	r3, [ip]
   b5220:	1d2b      	adds	r3, r5, #4
   b5222:	cb0f      	ldmia	r3, {r0, r1, r2, r3}
   b5224:	e88d 000f 	stmia.w	sp, {r0, r1, r2, r3}
   b5228:	463a      	mov	r2, r7
   b522a:	682b      	ldr	r3, [r5, #0]
   b522c:	4940      	ldr	r1, [pc, #256]	; (b5330 <_GLOBAL__sub_I_argonName+0x27c>)
   b522e:	4841      	ldr	r0, [pc, #260]	; (b5334 <_GLOBAL__sub_I_argonName+0x280>)
   b5230:	f7ff ff18 	bl	b5064 <_ZN8particle17BleCharacteristicC1INS_7BleUuidES2_EEPKcNS_9EnumFlagsINS_25BleCharacteristicPropertyEvEET_T0_PFvPKhjRKNS_13BlePeerDeviceEPvESF_>
uint8_t currentHour = Time.hour();
   b5234:	f002 fc74 	bl	b7b20 <_ZN9TimeClass4hourEv>
   b5238:	4b3f      	ldr	r3, [pc, #252]	; (b5338 <_GLOBAL__sub_I_argonName+0x284>)
String pricestoday_Json;
   b523a:	4940      	ldr	r1, [pc, #256]	; (b533c <_GLOBAL__sub_I_argonName+0x288>)
uint8_t currentHour = Time.hour();
   b523c:	7018      	strb	r0, [r3, #0]
String pricestoday_Json;
   b523e:	4840      	ldr	r0, [pc, #256]	; (b5340 <_GLOBAL__sub_I_argonName+0x28c>)
   b5240:	f001 f875 	bl	b632e <_ZN6StringC1EPK19__FlashStringHelper>
String pricestomorrow_Json;
   b5244:	493d      	ldr	r1, [pc, #244]	; (b533c <_GLOBAL__sub_I_argonName+0x288>)
   b5246:	483f      	ldr	r0, [pc, #252]	; (b5344 <_GLOBAL__sub_I_argonName+0x290>)
   b5248:	f001 f871 	bl	b632e <_ZN6StringC1EPK19__FlashStringHelper>
String pricesyesterday_Json;
   b524c:	493b      	ldr	r1, [pc, #236]	; (b533c <_GLOBAL__sub_I_argonName+0x288>)
   b524e:	483e      	ldr	r0, [pc, #248]	; (b5348 <_GLOBAL__sub_I_argonName+0x294>)
   b5250:	f001 f86d 	bl	b632e <_ZN6StringC1EPK19__FlashStringHelper>
String wh_today_Json;
   b5254:	4939      	ldr	r1, [pc, #228]	; (b533c <_GLOBAL__sub_I_argonName+0x288>)
   b5256:	483d      	ldr	r0, [pc, #244]	; (b534c <_GLOBAL__sub_I_argonName+0x298>)
   b5258:	f001 f869 	bl	b632e <_ZN6StringC1EPK19__FlashStringHelper>
String wh_yesterday_Json;
   b525c:	4937      	ldr	r1, [pc, #220]	; (b533c <_GLOBAL__sub_I_argonName+0x288>)
   b525e:	483c      	ldr	r0, [pc, #240]	; (b5350 <_GLOBAL__sub_I_argonName+0x29c>)
   b5260:	f001 f865 	bl	b632e <_ZN6StringC1EPK19__FlashStringHelper>
	{ ::new (__functor._M_access()) _Functor(std::move(__f)); }
   b5264:	4b3b      	ldr	r3, [pc, #236]	; (b5354 <_GLOBAL__sub_I_argonName+0x2a0>)
   b5266:	930e      	str	r3, [sp, #56]	; 0x38
    {
#if __cplusplus < 201103L
      // concept requirements
      __glibcxx_function_requires(_SGIAssignableConcept<_Tp>)
#endif
      _Tp __tmp = _GLIBCXX_MOVE(__a);
   b5268:	ad0e      	add	r5, sp, #56	; 0x38
    Timer(unsigned period, timer_callback_fn callback_, bool one_shot=false) : running(false), handle(nullptr), callback(std::move(callback_)) {
   b526a:	4b3b      	ldr	r3, [pc, #236]	; (b5358 <_GLOBAL__sub_I_argonName+0x2a4>)
   b526c:	4a3b      	ldr	r2, [pc, #236]	; (b535c <_GLOBAL__sub_I_argonName+0x2a8>)
   b526e:	601a      	str	r2, [r3, #0]
   b5270:	e895 0003 	ldmia.w	r5, {r0, r1}
      __a = _GLIBCXX_MOVE(__b);
   b5274:	f103 020c 	add.w	r2, r3, #12
      _Tp __tmp = _GLIBCXX_MOVE(__a);
   b5278:	ae0c      	add	r6, sp, #48	; 0x30
   b527a:	e886 0003 	stmia.w	r6, {r0, r1}
      __a = _GLIBCXX_MOVE(__b);
   b527e:	e892 0003 	ldmia.w	r2, {r0, r1}
   b5282:	e885 0003 	stmia.w	r5, {r0, r1}
      __b = _GLIBCXX_MOVE(__tmp);
   b5286:	e896 0003 	ldmia.w	r6, {r0, r1}
   b528a:	e882 0003 	stmia.w	r2, {r0, r1}
   b528e:	4a34      	ldr	r2, [pc, #208]	; (b5360 <_GLOBAL__sub_I_argonName+0x2ac>)
   b5290:	615a      	str	r2, [r3, #20]
      __a = _GLIBCXX_MOVE(__b);
   b5292:	699a      	ldr	r2, [r3, #24]
   b5294:	9211      	str	r2, [sp, #68]	; 0x44
      __b = _GLIBCXX_MOVE(__tmp);
   b5296:	4a33      	ldr	r2, [pc, #204]	; (b5364 <_GLOBAL__sub_I_argonName+0x2b0>)
   b5298:	619a      	str	r2, [r3, #24]
   b529a:	711c      	strb	r4, [r3, #4]
   b529c:	609c      	str	r4, [r3, #8]
        os_timer_create(&handle, period, invoke_timer, this, one_shot, nullptr);
   b529e:	4a32      	ldr	r2, [pc, #200]	; (b5368 <_GLOBAL__sub_I_argonName+0x2b4>)
      __a = _GLIBCXX_MOVE(__b);
   b52a0:	9410      	str	r4, [sp, #64]	; 0x40
   b52a2:	f103 0008 	add.w	r0, r3, #8
   b52a6:	f64e 2160 	movw	r1, #60000	; 0xea60
   b52aa:	e9cd 8400 	strd	r8, r4, [sp]
   b52ae:	f000 f9bb 	bl	b5628 <os_timer_create>
    class function<_Res(_ArgTypes...)>
   b52b2:	4628      	mov	r0, r5
   b52b4:	f7ff f890 	bl	b43d8 <_ZNSt14_Function_baseD1Ev>
UDP udp;
   b52b8:	492c      	ldr	r1, [pc, #176]	; (b536c <_GLOBAL__sub_I_argonName+0x2b8>)
   b52ba:	4608      	mov	r0, r1
   b52bc:	f000 ff4a 	bl	b6154 <_ZN3UDPC1Ev>
mDNSResolver::Resolver resolver(udp);
   b52c0:	492a      	ldr	r1, [pc, #168]	; (b536c <_GLOBAL__sub_I_argonName+0x2b8>)
   b52c2:	482b      	ldr	r0, [pc, #172]	; (b5370 <_GLOBAL__sub_I_argonName+0x2bc>)
   b52c4:	f000 f891 	bl	b53ea <_ZN12mDNSResolver8ResolverC1ER3UDP>
SYSTEM_THREAD(ENABLED);
   b52c8:	4621      	mov	r1, r4
   b52ca:	4640      	mov	r0, r8
   b52cc:	b013      	add	sp, #76	; 0x4c
   b52ce:	e8bd 4ff0 	ldmia.w	sp!, {r4, r5, r6, r7, r8, r9, sl, fp, lr}
SYSTEM_THREAD(ENABLED);
   b52d2:	f000 bb21 	b.w	b5918 <system_thread_set_state>
   b52d6:	bf00      	nop
   b52d8:	2003dc28 	.word	0x2003dc28
   b52dc:	2003dbb0 	.word	0x2003dbb0
   b52e0:	2003d978 	.word	0x2003d978
   b52e4:	2003d97c 	.word	0x2003d97c
   b52e8:	2003d95c 	.word	0x2003d95c
   b52ec:	2003d954 	.word	0x2003d954
   b52f0:	2003d958 	.word	0x2003d958
   b52f4:	2003dbec 	.word	0x2003dbec
   b52f8:	2003d960 	.word	0x2003d960
   b52fc:	2003dbd8 	.word	0x2003dbd8
   b5300:	2003d964 	.word	0x2003d964
   b5304:	2003dc14 	.word	0x2003dc14
   b5308:	000bbc8e 	.word	0x000bbc8e
   b530c:	2003db84 	.word	0x2003db84
   b5310:	000bbc97 	.word	0x000bbc97
   b5314:	2003db74 	.word	0x2003db74
   b5318:	000bbca5 	.word	0x000bbca5
   b531c:	2003db64 	.word	0x2003db64
   b5320:	000bbcaf 	.word	0x000bbcaf
   b5324:	2003db6c 	.word	0x2003db6c
   b5328:	000bbcbc 	.word	0x000bbcbc
   b532c:	2003db8c 	.word	0x2003db8c
   b5330:	000bbcc6 	.word	0x000bbcc6
   b5334:	2003db94 	.word	0x2003db94
   b5338:	2003dca4 	.word	0x2003dca4
   b533c:	000bbc5e 	.word	0x000bbc5e
   b5340:	2003dcac 	.word	0x2003dcac
   b5344:	2003dcbc 	.word	0x2003dcbc
   b5348:	2003dccc 	.word	0x2003dccc
   b534c:	2003e1bc 	.word	0x2003e1bc
   b5350:	2003e1d0 	.word	0x2003e1d0
   b5354:	000b41c1 	.word	0x000b41c1
   b5358:	2003e150 	.word	0x2003e150
   b535c:	000bbcdc 	.word	0x000bbcdc
   b5360:	000b4167 	.word	0x000b4167
   b5364:	000b417b 	.word	0x000b417b
   b5368:	000b412d 	.word	0x000b412d
   b536c:	2003e16c 	.word	0x2003e16c
   b5370:	2003dcdc 	.word	0x2003dcdc
   b5374:	2003db9c 	.word	0x2003db9c
   b5378:	2003dc00 	.word	0x2003dc00
   b537c:	2003dbc4 	.word	0x2003dbc4

000b5380 <_ZN12mDNSResolver5CacheC1Ev>:
#include "Cache.h"

namespace mDNSResolver {
  Cache::Cache() {
   b5380:	b570      	push	{r4, r5, r6, lr}
   b5382:	4604      	mov	r4, r0
   b5384:	4605      	mov	r5, r0
   b5386:	f500 6692 	add.w	r6, r0, #1168	; 0x490
   b538a:	4628      	mov	r0, r5
   b538c:	f505 7592 	add.w	r5, r5, #292	; 0x124
   b5390:	f000 f815 	bl	b53be <_ZN12mDNSResolver8ResponseC1Ev>
   b5394:	42ae      	cmp	r6, r5
   b5396:	d1f8      	bne.n	b538a <_ZN12mDNSResolver5CacheC1Ev+0xa>
    this->size = 0;
   b5398:	2300      	movs	r3, #0
   b539a:	f8c4 3490 	str.w	r3, [r4, #1168]	; 0x490
  }
   b539e:	4620      	mov	r0, r4
   b53a0:	bd70      	pop	{r4, r5, r6, pc}

000b53a2 <_ZN9IPAddressaSImEERS_T_.isra.0>:
    void set_ipv4(uint8_t b0, uint8_t b1, uint8_t b2, uint8_t b3);


    // Overloaded copy operators to allow initialisation of IPAddress objects from other types
    template<typename T>
    IPAddress& operator=(T address) {
   b53a2:	b530      	push	{r4, r5, lr}
   b53a4:	b087      	sub	sp, #28
   b53a6:	4604      	mov	r4, r0
class IPAddress : public Printable {
   b53a8:	ad01      	add	r5, sp, #4
        return *this = IPAddress(address);
   b53aa:	4668      	mov	r0, sp
   b53ac:	f002 ff9e 	bl	b82ec <_ZN9IPAddressC1Em>
class IPAddress : public Printable {
   b53b0:	cd0f      	ldmia	r5!, {r0, r1, r2, r3}
   b53b2:	3404      	adds	r4, #4
   b53b4:	c40f      	stmia	r4!, {r0, r1, r2, r3}
   b53b6:	682b      	ldr	r3, [r5, #0]
   b53b8:	7023      	strb	r3, [r4, #0]
    }
   b53ba:	b007      	add	sp, #28
   b53bc:	bd30      	pop	{r4, r5, pc}

000b53be <_ZN12mDNSResolver8ResponseC1Ev>:
#include <string.h>
#endif
#include "Particle.h"

namespace mDNSResolver {
  Response::Response() {
   b53be:	b538      	push	{r3, r4, r5, lr}
   b53c0:	f500 7584 	add.w	r5, r0, #264	; 0x108
   b53c4:	4604      	mov	r4, r0
   b53c6:	4628      	mov	r0, r5
   b53c8:	f002 ff70 	bl	b82ac <_ZN9IPAddressC1Ev>
    this->name[0] = '\0';
   b53cc:	2300      	movs	r3, #0
    this->resolved = false;
    this->ttl = 0;
    this->cname = NULL;
    this->ipAddress = INADDR_NONE;
   b53ce:	4628      	mov	r0, r5
    this->name[0] = '\0';
   b53d0:	7023      	strb	r3, [r4, #0]
    this->resolved = false;
   b53d2:	f884 3104 	strb.w	r3, [r4, #260]	; 0x104
    this->ttl = 0;
   b53d6:	f8c4 3100 	str.w	r3, [r4, #256]	; 0x100
    this->cname = NULL;
   b53da:	f8c4 3120 	str.w	r3, [r4, #288]	; 0x120
    this->ipAddress = INADDR_NONE;
   b53de:	f04f 31ff 	mov.w	r1, #4294967295
   b53e2:	f7ff ffde 	bl	b53a2 <_ZN9IPAddressaSImEERS_T_.isra.0>
  }
   b53e6:	4620      	mov	r0, r4
   b53e8:	bd38      	pop	{r3, r4, r5, pc}

000b53ea <_ZN12mDNSResolver8ResolverC1ER3UDP>:
#endif

namespace mDNSResolver {
  Cache cache;

  Resolver::Resolver(UDP& udp) {
   b53ea:	b5f8      	push	{r3, r4, r5, r6, r7, lr}
   b53ec:	4604      	mov	r4, r0
   b53ee:	3004      	adds	r0, #4
   b53f0:	460d      	mov	r5, r1
   b53f2:	f000 feaf 	bl	b6154 <_ZN3UDPC1Ev>
   b53f6:	f104 0050 	add.w	r0, r4, #80	; 0x50
   b53fa:	f002 ff57 	bl	b82ac <_ZN9IPAddressC1Ev>
    timeout = 0;
   b53fe:	2300      	movs	r3, #0
   b5400:	66e3      	str	r3, [r4, #108]	; 0x6c
class Print
   b5402:	686b      	ldr	r3, [r5, #4]
   b5404:	60a3      	str	r3, [r4, #8]
#define   getFloat(skipChar)  parseFloat(skipChar)
#define   getString( pre_string, post_string, buffer, length)
readBytesBetween( pre_string, terminator, buffer, length)
*/

class Stream : public Print
   b5406:	68ab      	ldr	r3, [r5, #8]
   b5408:	60e3      	str	r3, [r4, #12]
   b540a:	68eb      	ldr	r3, [r5, #12]
   b540c:	6123      	str	r3, [r4, #16]
#include "spark_wiring_ipaddress.h"
#include "spark_wiring_printable.h"
#include "spark_wiring_stream.h"
#include "socket_hal.h"

class UDP : public Stream, public Printable {
   b540e:	696b      	ldr	r3, [r5, #20]
   b5410:	61a3      	str	r3, [r4, #24]
class IPAddress : public Printable {
   b5412:	f105 0720 	add.w	r7, r5, #32
   b5416:	8b2b      	ldrh	r3, [r5, #24]
   b5418:	83a3      	strh	r3, [r4, #28]
   b541a:	cf0f      	ldmia	r7!, {r0, r1, r2, r3}
   b541c:	f104 0624 	add.w	r6, r4, #36	; 0x24
   b5420:	c60f      	stmia	r6!, {r0, r1, r2, r3}
   b5422:	683b      	ldr	r3, [r7, #0]
   b5424:	7033      	strb	r3, [r6, #0]
   b5426:	8f2b      	ldrh	r3, [r5, #56]	; 0x38
   b5428:	87a3      	strh	r3, [r4, #60]	; 0x3c
   b542a:	6beb      	ldr	r3, [r5, #60]	; 0x3c
   b542c:	6423      	str	r3, [r4, #64]	; 0x40
   b542e:	6c2b      	ldr	r3, [r5, #64]	; 0x40
   b5430:	6463      	str	r3, [r4, #68]	; 0x44
   b5432:	6c6b      	ldr	r3, [r5, #68]	; 0x44
   b5434:	6b6a      	ldr	r2, [r5, #52]	; 0x34
   b5436:	64a3      	str	r3, [r4, #72]	; 0x48
   b5438:	f895 3048 	ldrb.w	r3, [r5, #72]	; 0x48
   b543c:	63a2      	str	r2, [r4, #56]	; 0x38
    this->udp = udp;
  }
   b543e:	4620      	mov	r0, r4
   b5440:	f884 304c 	strb.w	r3, [r4, #76]	; 0x4c
   b5444:	bdf8      	pop	{r3, r4, r5, r6, r7, pc}
	...

000b5448 <_GLOBAL__sub_I__ZN12mDNSResolver5cacheE>:
  Cache cache;
   b5448:	4801      	ldr	r0, [pc, #4]	; (b5450 <_GLOBAL__sub_I__ZN12mDNSResolver5cacheE+0x8>)
   b544a:	f7ff bf99 	b.w	b5380 <_ZN12mDNSResolver5CacheC1Ev>
   b544e:	bf00      	nop
   b5450:	2003e1e0 	.word	0x2003e1e0

000b5454 <netdb_freeaddrinfo>:

DYNALIB_BEGIN(hal_netdb)

DYNALIB_FN(0, hal_netdb, netdb_gethostbyname, struct hostent*(const char*))
DYNALIB_FN(1, hal_netdb, netdb_gethostbyname_r, int(const char*, struct hostent*, char*, size_t, struct hostent**, int*))
DYNALIB_FN(2, hal_netdb, netdb_freeaddrinfo, void(struct addrinfo*))
   b5454:	b508      	push	{r3, lr}
   b5456:	4b02      	ldr	r3, [pc, #8]	; (b5460 <netdb_freeaddrinfo+0xc>)
   b5458:	681b      	ldr	r3, [r3, #0]
   b545a:	689b      	ldr	r3, [r3, #8]
   b545c:	9301      	str	r3, [sp, #4]
   b545e:	bd08      	pop	{r3, pc}
   b5460:	00030268 	.word	0x00030268

000b5464 <netdb_getaddrinfo>:
DYNALIB_FN(3, hal_netdb, netdb_getaddrinfo, int(const char*, const char*, const struct addrinfo*, struct addrinfo**))
   b5464:	b508      	push	{r3, lr}
   b5466:	4b02      	ldr	r3, [pc, #8]	; (b5470 <netdb_getaddrinfo+0xc>)
   b5468:	681b      	ldr	r3, [r3, #0]
   b546a:	68db      	ldr	r3, [r3, #12]
   b546c:	9301      	str	r3, [sp, #4]
   b546e:	bd08      	pop	{r3, pc}
   b5470:	00030268 	.word	0x00030268

000b5474 <HAL_Pin_Mode>:

DYNALIB_BEGIN(hal_gpio)

DYNALIB_FN(0, hal_gpio, HAL_Pin_Map, Hal_Pin_Info*(void))
DYNALIB_FN(1, hal_gpio, HAL_Validate_Pin_Function, PinFunction(pin_t, PinFunction))
DYNALIB_FN(2, hal_gpio, HAL_Pin_Mode, void(pin_t, PinMode))
   b5474:	b508      	push	{r3, lr}
   b5476:	4b02      	ldr	r3, [pc, #8]	; (b5480 <HAL_Pin_Mode+0xc>)
   b5478:	681b      	ldr	r3, [r3, #0]
   b547a:	689b      	ldr	r3, [r3, #8]
   b547c:	9301      	str	r3, [sp, #4]
   b547e:	bd08      	pop	{r3, pc}
   b5480:	0003022c 	.word	0x0003022c

000b5484 <HAL_Interrupts_Attach>:
DYNALIB_FN(3, hal_gpio, HAL_Get_Pin_Mode, PinMode(pin_t))
DYNALIB_FN(4, hal_gpio, HAL_GPIO_Write, void(pin_t, uint8_t))
DYNALIB_FN(5, hal_gpio, HAL_GPIO_Read, int32_t(pin_t))
DYNALIB_FN(6, hal_gpio, HAL_Interrupts_Attach, int(uint16_t, HAL_InterruptHandler, void*, InterruptMode, HAL_InterruptExtraConfiguration*))
   b5484:	b508      	push	{r3, lr}
   b5486:	4b02      	ldr	r3, [pc, #8]	; (b5490 <HAL_Interrupts_Attach+0xc>)
   b5488:	681b      	ldr	r3, [r3, #0]
   b548a:	699b      	ldr	r3, [r3, #24]
   b548c:	9301      	str	r3, [sp, #4]
   b548e:	bd08      	pop	{r3, pc}
   b5490:	0003022c 	.word	0x0003022c

000b5494 <HAL_Interrupts_Detach>:
DYNALIB_FN(7, hal_gpio, HAL_Interrupts_Detach, int(uint16_t))
   b5494:	b508      	push	{r3, lr}
   b5496:	4b02      	ldr	r3, [pc, #8]	; (b54a0 <HAL_Interrupts_Detach+0xc>)
   b5498:	681b      	ldr	r3, [r3, #0]
   b549a:	69db      	ldr	r3, [r3, #28]
   b549c:	9301      	str	r3, [sp, #4]
   b549e:	bd08      	pop	{r3, pc}
   b54a0:	0003022c 	.word	0x0003022c

000b54a4 <if_index_to_name>:
DYNALIB_FN(0, hal_ifapi, if_get_list, int(struct if_list**))
DYNALIB_FN(1, hal_ifapi, if_free_list, int(struct if_list*))
DYNALIB_FN(2, hal_ifapi, if_get_name_index, int(struct if_nameindex**))
DYNALIB_FN(3, hal_ifapi, if_free_name_index, int(struct if_nameindex*))
DYNALIB_FN(4, hal_ifapi, if_name_to_index, int(const char*, uint8_t*))
DYNALIB_FN(5, hal_ifapi, if_index_to_name, int(uint8_t, char*))
   b54a4:	b508      	push	{r3, lr}
   b54a6:	4b02      	ldr	r3, [pc, #8]	; (b54b0 <if_index_to_name+0xc>)
   b54a8:	681b      	ldr	r3, [r3, #0]
   b54aa:	695b      	ldr	r3, [r3, #20]
   b54ac:	9301      	str	r3, [sp, #4]
   b54ae:	bd08      	pop	{r3, pc}
   b54b0:	0003026c 	.word	0x0003026c

000b54b4 <HAL_RNG_GetRandomNumber>:

DYNALIB_BEGIN(hal)

#if PLATFORM_ID > PLATFORM_GCC
DYNALIB_FN(0, hal, HAL_RNG_Configuration, void(void))
DYNALIB_FN(1, hal, HAL_RNG_GetRandomNumber, uint32_t(void))
   b54b4:	b508      	push	{r3, lr}
   b54b6:	4b02      	ldr	r3, [pc, #8]	; (b54c0 <HAL_RNG_GetRandomNumber+0xc>)
   b54b8:	681b      	ldr	r3, [r3, #0]
   b54ba:	685b      	ldr	r3, [r3, #4]
   b54bc:	9301      	str	r3, [sp, #4]
   b54be:	bd08      	pop	{r3, pc}
   b54c0:	00030218 	.word	0x00030218

000b54c4 <HAL_Delay_Microseconds>:
#else
#define BASE_IDX 0
#endif // PLATFORM_ID > PLATFORM_GCC

DYNALIB_FN(BASE_IDX + 0, hal, HAL_Delay_Milliseconds, void(uint32_t))
DYNALIB_FN(BASE_IDX + 1, hal, HAL_Delay_Microseconds, void(uint32_t))
   b54c4:	b508      	push	{r3, lr}
   b54c6:	4b02      	ldr	r3, [pc, #8]	; (b54d0 <HAL_Delay_Microseconds+0xc>)
   b54c8:	681b      	ldr	r3, [r3, #0]
   b54ca:	68db      	ldr	r3, [r3, #12]
   b54cc:	9301      	str	r3, [sp, #4]
   b54ce:	bd08      	pop	{r3, pc}
   b54d0:	00030218 	.word	0x00030218

000b54d4 <HAL_Timer_Get_Milli_Seconds>:
DYNALIB_FN(BASE_IDX + 2, hal, HAL_Timer_Get_Micro_Seconds, system_tick_t(void))
DYNALIB_FN(BASE_IDX + 3, hal, HAL_Timer_Get_Milli_Seconds, system_tick_t(void))
   b54d4:	b508      	push	{r3, lr}
   b54d6:	4b02      	ldr	r3, [pc, #8]	; (b54e0 <HAL_Timer_Get_Milli_Seconds+0xc>)
   b54d8:	681b      	ldr	r3, [r3, #0]
   b54da:	695b      	ldr	r3, [r3, #20]
   b54dc:	9301      	str	r3, [sp, #4]
   b54de:	bd08      	pop	{r3, pc}
   b54e0:	00030218 	.word	0x00030218

000b54e4 <hal_rtc_time_is_valid>:
DYNALIB_FN(BASE_IDX + 15, hal, HAL_EEPROM_Get, void(uint32_t, void *, size_t))
DYNALIB_FN(BASE_IDX + 16, hal, HAL_EEPROM_Put, void(uint32_t, const void *, size_t))
DYNALIB_FN(BASE_IDX + 17, hal, HAL_EEPROM_Clear, void(void))
DYNALIB_FN(BASE_IDX + 18, hal, HAL_EEPROM_Has_Pending_Erase, bool(void))
DYNALIB_FN(BASE_IDX + 19, hal, HAL_EEPROM_Perform_Pending_Erase, void(void))
DYNALIB_FN(BASE_IDX + 20, hal, hal_rtc_time_is_valid, bool(void*))
   b54e4:	b508      	push	{r3, lr}
   b54e6:	4b02      	ldr	r3, [pc, #8]	; (b54f0 <hal_rtc_time_is_valid+0xc>)
   b54e8:	681b      	ldr	r3, [r3, #0]
   b54ea:	6d9b      	ldr	r3, [r3, #88]	; 0x58
   b54ec:	9301      	str	r3, [sp, #4]
   b54ee:	bd08      	pop	{r3, pc}
   b54f0:	00030218 	.word	0x00030218

000b54f4 <hal_rtc_get_time>:

DYNALIB_FN(BASE_IDX + 21, hal, hal_timer_millis, uint64_t(void*))
DYNALIB_FN(BASE_IDX + 22, hal, hal_timer_micros, uint64_t(void*))

DYNALIB_FN(BASE_IDX + 23, hal, hal_rtc_get_time, int(struct timeval*, void*))
   b54f4:	b508      	push	{r3, lr}
   b54f6:	4b02      	ldr	r3, [pc, #8]	; (b5500 <hal_rtc_get_time+0xc>)
   b54f8:	681b      	ldr	r3, [r3, #0]
   b54fa:	6e5b      	ldr	r3, [r3, #100]	; 0x64
   b54fc:	9301      	str	r3, [sp, #4]
   b54fe:	bd08      	pop	{r3, pc}
   b5500:	00030218 	.word	0x00030218

000b5504 <HAL_Core_Runtime_Info>:
DYNALIB_FN(16, hal_core, HAL_watchdog_reset_flagged, bool(void))
DYNALIB_FN(17, hal_core, HAL_Notify_WDT, void(void))
DYNALIB_FN(18, hal_core, HAL_Bootloader_Get_Flag, uint16_t(BootloaderFlag))
DYNALIB_FN(19, hal_core, HAL_Bootloader_Lock, void(bool))
DYNALIB_FN(20, hal_core, HAL_Core_System_Reset_FlagSet, bool(RESET_TypeDef))
DYNALIB_FN(21, hal_core, HAL_Core_Runtime_Info, uint32_t(runtime_info_t*, void*))
   b5504:	b508      	push	{r3, lr}
   b5506:	4b02      	ldr	r3, [pc, #8]	; (b5510 <HAL_Core_Runtime_Info+0xc>)
   b5508:	681b      	ldr	r3, [r3, #0]
   b550a:	6d5b      	ldr	r3, [r3, #84]	; 0x54
   b550c:	9301      	str	r3, [sp, #4]
   b550e:	bd08      	pop	{r3, pc}
   b5510:	00030234 	.word	0x00030234

000b5514 <hal_ble_stack_init>:

DYNALIB_BEGIN(hal_ble)

DYNALIB_FN(0, hal_ble, hal_ble_lock, int(void*))
DYNALIB_FN(1, hal_ble, hal_ble_unlock, int(void*))
DYNALIB_FN(2, hal_ble, hal_ble_stack_init, int(void*))
   b5514:	b508      	push	{r3, lr}
   b5516:	4b02      	ldr	r3, [pc, #8]	; (b5520 <hal_ble_stack_init+0xc>)
   b5518:	681b      	ldr	r3, [r3, #0]
   b551a:	689b      	ldr	r3, [r3, #8]
   b551c:	9301      	str	r3, [sp, #4]
   b551e:	bd08      	pop	{r3, pc}
   b5520:	00030278 	.word	0x00030278

000b5524 <hal_ble_gap_set_advertising_data>:
DYNALIB_FN(15, hal_ble, hal_ble_gap_delete_whitelist, int(void*))
DYNALIB_FN(16, hal_ble, hal_ble_gap_set_tx_power, int(int8_t, void*))
DYNALIB_FN(17, hal_ble, hal_ble_gap_get_tx_power, int(int8_t*, void*))
DYNALIB_FN(18, hal_ble, hal_ble_gap_set_advertising_parameters, int(const hal_ble_adv_params_t*, void*))
DYNALIB_FN(19, hal_ble, hal_ble_gap_get_advertising_parameters, int(hal_ble_adv_params_t*, void*))
DYNALIB_FN(20, hal_ble, hal_ble_gap_set_advertising_data, int(const uint8_t*, size_t, void*))
   b5524:	b508      	push	{r3, lr}
   b5526:	4b02      	ldr	r3, [pc, #8]	; (b5530 <hal_ble_gap_set_advertising_data+0xc>)
   b5528:	681b      	ldr	r3, [r3, #0]
   b552a:	6d1b      	ldr	r3, [r3, #80]	; 0x50
   b552c:	9301      	str	r3, [sp, #4]
   b552e:	bd08      	pop	{r3, pc}
   b5530:	00030278 	.word	0x00030278

000b5534 <hal_ble_gap_set_scan_response_data>:
DYNALIB_FN(21, hal_ble, hal_ble_gap_get_advertising_data, ssize_t(uint8_t*, size_t, void*))
DYNALIB_FN(22, hal_ble, hal_ble_gap_set_scan_response_data, int(const uint8_t*, size_t, void*))
   b5534:	b508      	push	{r3, lr}
   b5536:	4b02      	ldr	r3, [pc, #8]	; (b5540 <hal_ble_gap_set_scan_response_data+0xc>)
   b5538:	681b      	ldr	r3, [r3, #0]
   b553a:	6d9b      	ldr	r3, [r3, #88]	; 0x58
   b553c:	9301      	str	r3, [sp, #4]
   b553e:	bd08      	pop	{r3, pc}
   b5540:	00030278 	.word	0x00030278

000b5544 <hal_ble_gap_start_advertising>:
DYNALIB_FN(23, hal_ble, hal_ble_gap_get_scan_response_data, ssize_t(uint8_t*, size_t, void*))
DYNALIB_FN(24, hal_ble, hal_ble_gap_start_advertising, int(void*))
   b5544:	b508      	push	{r3, lr}
   b5546:	4b02      	ldr	r3, [pc, #8]	; (b5550 <hal_ble_gap_start_advertising+0xc>)
   b5548:	681b      	ldr	r3, [r3, #0]
   b554a:	6e1b      	ldr	r3, [r3, #96]	; 0x60
   b554c:	9301      	str	r3, [sp, #4]
   b554e:	bd08      	pop	{r3, pc}
   b5550:	00030278 	.word	0x00030278

000b5554 <hal_ble_gap_disconnect>:
DYNALIB_FN(33, hal_ble, hal_ble_gap_stop_scan, int(void*))
DYNALIB_FN(34, hal_ble, hal_ble_gap_connect_deprecated, int(const hal_ble_addr_t*, void*))
DYNALIB_FN(35, hal_ble, hal_ble_gap_is_connecting, bool(const hal_ble_addr_t*, void*))
DYNALIB_FN(36, hal_ble, hal_ble_gap_is_connected, bool(const hal_ble_addr_t*, void*))
DYNALIB_FN(37, hal_ble, hal_ble_gap_connect_cancel, int(const hal_ble_addr_t*, void*))
DYNALIB_FN(38, hal_ble, hal_ble_gap_disconnect, int(hal_ble_conn_handle_t, void*))
   b5554:	b508      	push	{r3, lr}
   b5556:	4b03      	ldr	r3, [pc, #12]	; (b5564 <hal_ble_gap_disconnect+0x10>)
   b5558:	681b      	ldr	r3, [r3, #0]
   b555a:	f8d3 3098 	ldr.w	r3, [r3, #152]	; 0x98
   b555e:	9301      	str	r3, [sp, #4]
   b5560:	bd08      	pop	{r3, pc}
   b5562:	0000      	.short	0x0000
   b5564:	00030278 	.word	0x00030278

000b5568 <hal_ble_gatt_server_add_service>:
DYNALIB_FN(39, hal_ble, hal_ble_gap_update_connection_params, int(hal_ble_conn_handle_t, const hal_ble_conn_params_t*, void*))
DYNALIB_FN(40, hal_ble, hal_ble_gap_get_connection_params_deprecated, int(hal_ble_conn_handle_t, hal_ble_conn_params_t*, void*))
DYNALIB_FN(41, hal_ble, hal_ble_gap_get_rssi, int(hal_ble_conn_handle_t, void*))
DYNALIB_FN(42, hal_ble, hal_ble_gatt_server_add_service, int(uint8_t, const hal_ble_uuid_t*, hal_ble_attr_handle_t*, void*))
   b5568:	b508      	push	{r3, lr}
   b556a:	4b03      	ldr	r3, [pc, #12]	; (b5578 <hal_ble_gatt_server_add_service+0x10>)
   b556c:	681b      	ldr	r3, [r3, #0]
   b556e:	f8d3 30a8 	ldr.w	r3, [r3, #168]	; 0xa8
   b5572:	9301      	str	r3, [sp, #4]
   b5574:	bd08      	pop	{r3, pc}
   b5576:	0000      	.short	0x0000
   b5578:	00030278 	.word	0x00030278

000b557c <hal_ble_gatt_server_set_characteristic_value>:
DYNALIB_FN(43, hal_ble, hal_ble_gatt_server_add_characteristic_deprecated, int(const hal_ble_char_init_deprecated_t*, hal_ble_char_handles_t*, void*))
DYNALIB_FN(44, hal_ble, hal_ble_gatt_server_add_descriptor, int(const hal_ble_desc_init_t*, hal_ble_attr_handle_t*, void*))
DYNALIB_FN(45, hal_ble, hal_ble_gatt_server_set_characteristic_value, ssize_t(hal_ble_attr_handle_t, const uint8_t*, size_t, void*))
   b557c:	b508      	push	{r3, lr}
   b557e:	4b03      	ldr	r3, [pc, #12]	; (b558c <hal_ble_gatt_server_set_characteristic_value+0x10>)
   b5580:	681b      	ldr	r3, [r3, #0]
   b5582:	f8d3 30b4 	ldr.w	r3, [r3, #180]	; 0xb4
   b5586:	9301      	str	r3, [sp, #4]
   b5588:	bd08      	pop	{r3, pc}
   b558a:	0000      	.short	0x0000
   b558c:	00030278 	.word	0x00030278

000b5590 <hal_ble_gatt_client_write_with_response>:
DYNALIB_FN(49, hal_ble, hal_ble_gatt_client_discover_characteristics, int(hal_ble_conn_handle_t, const hal_ble_svc_t*, hal_ble_on_disc_char_cb_t, void*, void*))
DYNALIB_FN(50, hal_ble, hal_ble_gatt_client_discover_characteristics_by_uuid, int(hal_ble_conn_handle_t, const hal_ble_svc_t*, const hal_ble_uuid_t*, hal_ble_on_disc_char_cb_t, void*, void*))
DYNALIB_FN(51, hal_ble, hal_ble_gatt_client_is_discovering, bool(hal_ble_conn_handle_t, void*))
DYNALIB_FN(52, hal_ble, hal_ble_gatt_server_set_desired_att_mtu, int(size_t, void*))
DYNALIB_FN(53, hal_ble, hal_ble_gatt_client_configure_cccd_deprecated, int(hal_ble_conn_handle_t, hal_ble_attr_handle_t, ble_sig_cccd_value_t, void*))
DYNALIB_FN(54, hal_ble, hal_ble_gatt_client_write_with_response, ssize_t(hal_ble_conn_handle_t, hal_ble_attr_handle_t, const uint8_t*, size_t, void*))
   b5590:	b508      	push	{r3, lr}
   b5592:	4b03      	ldr	r3, [pc, #12]	; (b55a0 <hal_ble_gatt_client_write_with_response+0x10>)
   b5594:	681b      	ldr	r3, [r3, #0]
   b5596:	f8d3 30d8 	ldr.w	r3, [r3, #216]	; 0xd8
   b559a:	9301      	str	r3, [sp, #4]
   b559c:	bd08      	pop	{r3, pc}
   b559e:	0000      	.short	0x0000
   b55a0:	00030278 	.word	0x00030278

000b55a4 <hal_ble_gatt_client_write_without_response>:
DYNALIB_FN(55, hal_ble, hal_ble_gatt_client_write_without_response, ssize_t(hal_ble_conn_handle_t, hal_ble_attr_handle_t, const uint8_t*, size_t, void*))
   b55a4:	b508      	push	{r3, lr}
   b55a6:	4b03      	ldr	r3, [pc, #12]	; (b55b4 <hal_ble_gatt_client_write_without_response+0x10>)
   b55a8:	681b      	ldr	r3, [r3, #0]
   b55aa:	f8d3 30dc 	ldr.w	r3, [r3, #220]	; 0xdc
   b55ae:	9301      	str	r3, [sp, #4]
   b55b0:	bd08      	pop	{r3, pc}
   b55b2:	0000      	.short	0x0000
   b55b4:	00030278 	.word	0x00030278

000b55b8 <hal_ble_gatt_server_add_characteristic>:
DYNALIB_FN(56, hal_ble, hal_ble_gatt_client_read, ssize_t(hal_ble_conn_handle_t, hal_ble_attr_handle_t, uint8_t*, size_t, void*))

DYNALIB_FN(57, hal_ble, hal_ble_gap_connect, int(const hal_ble_conn_cfg_t*, hal_ble_conn_handle_t*, void*))
DYNALIB_FN(58, hal_ble, hal_ble_gap_get_connection_info, int(hal_ble_conn_handle_t, hal_ble_conn_info_t*, void*))
DYNALIB_FN(59, hal_ble, hal_ble_gatt_server_add_characteristic, int(const hal_ble_char_init_t*, hal_ble_char_handles_t*, void*))
   b55b8:	b508      	push	{r3, lr}
   b55ba:	4b03      	ldr	r3, [pc, #12]	; (b55c8 <hal_ble_gatt_server_add_characteristic+0x10>)
   b55bc:	681b      	ldr	r3, [r3, #0]
   b55be:	f8d3 30ec 	ldr.w	r3, [r3, #236]	; 0xec
   b55c2:	9301      	str	r3, [sp, #4]
   b55c4:	bd08      	pop	{r3, pc}
   b55c6:	0000      	.short	0x0000
   b55c8:	00030278 	.word	0x00030278

000b55cc <hal_ble_set_callback_on_periph_link_events>:
DYNALIB_FN(60, hal_ble, hal_ble_set_callback_on_periph_link_events, int(hal_ble_on_link_evt_cb_t, void*, void*))
   b55cc:	b508      	push	{r3, lr}
   b55ce:	4b03      	ldr	r3, [pc, #12]	; (b55dc <hal_ble_set_callback_on_periph_link_events+0x10>)
   b55d0:	681b      	ldr	r3, [r3, #0]
   b55d2:	f8d3 30f0 	ldr.w	r3, [r3, #240]	; 0xf0
   b55d6:	9301      	str	r3, [sp, #4]
   b55d8:	bd08      	pop	{r3, pc}
   b55da:	0000      	.short	0x0000
   b55dc:	00030278 	.word	0x00030278

000b55e0 <hal_ble_gatt_server_notify_characteristic_value>:
DYNALIB_FN(61, hal_ble, hal_ble_gatt_client_configure_cccd, int(const hal_ble_cccd_config_t*, void*))
DYNALIB_FN(62, hal_ble, hal_ble_set_callback_on_adv_events, int(hal_ble_on_adv_evt_cb_t, void*, void*))
DYNALIB_FN(63, hal_ble, hal_ble_cancel_callback_on_adv_events, int(hal_ble_on_adv_evt_cb_t, void*, void*))
DYNALIB_FN(64, hal_ble, hal_ble_gatt_server_notify_characteristic_value, ssize_t(hal_ble_attr_handle_t, const uint8_t*, size_t, void*))
   b55e0:	b508      	push	{r3, lr}
   b55e2:	4b03      	ldr	r3, [pc, #12]	; (b55f0 <hal_ble_gatt_server_notify_characteristic_value+0x10>)
   b55e4:	681b      	ldr	r3, [r3, #0]
   b55e6:	f8d3 3100 	ldr.w	r3, [r3, #256]	; 0x100
   b55ea:	9301      	str	r3, [sp, #4]
   b55ec:	bd08      	pop	{r3, pc}
   b55ee:	0000      	.short	0x0000
   b55f0:	00030278 	.word	0x00030278

000b55f4 <hal_ble_gatt_server_indicate_characteristic_value>:
DYNALIB_FN(65, hal_ble, hal_ble_gatt_server_indicate_characteristic_value, ssize_t(hal_ble_attr_handle_t, const uint8_t*, size_t, void*))
   b55f4:	b508      	push	{r3, lr}
   b55f6:	4b03      	ldr	r3, [pc, #12]	; (b5604 <hal_ble_gatt_server_indicate_characteristic_value+0x10>)
   b55f8:	681b      	ldr	r3, [r3, #0]
   b55fa:	f8d3 3104 	ldr.w	r3, [r3, #260]	; 0x104
   b55fe:	9301      	str	r3, [sp, #4]
   b5600:	bd08      	pop	{r3, pc}
   b5602:	0000      	.short	0x0000
   b5604:	00030278 	.word	0x00030278

000b5608 <os_thread_yield>:

#if PLATFORM_THREADING
DYNALIB_FN(0, hal_concurrent, __gthread_equal, bool(__gthread_t, __gthread_t))
DYNALIB_FN(1, hal_concurrent, os_thread_create, os_result_t(os_thread_t*, const char*, os_thread_prio_t, os_thread_fn_t, void*, size_t))
DYNALIB_FN(2, hal_concurrent, os_thread_is_current, bool(os_thread_t))
DYNALIB_FN(3, hal_concurrent, os_thread_yield, os_result_t(void))
   b5608:	b508      	push	{r3, lr}
   b560a:	4b02      	ldr	r3, [pc, #8]	; (b5614 <os_thread_yield+0xc>)
   b560c:	681b      	ldr	r3, [r3, #0]
   b560e:	68db      	ldr	r3, [r3, #12]
   b5610:	9301      	str	r3, [sp, #4]
   b5612:	bd08      	pop	{r3, pc}
   b5614:	00030248 	.word	0x00030248

000b5618 <os_thread_scheduling>:
DYNALIB_FN(4, hal_concurrent, os_thread_join, os_result_t(os_thread_t))
DYNALIB_FN(5, hal_concurrent, os_thread_cleanup, os_result_t(os_thread_t))
DYNALIB_FN(6, hal_concurrent, os_thread_delay_until, os_result_t(system_tick_t*, system_tick_t))
DYNALIB_FN(7, hal_concurrent, os_thread_scheduling, void(bool, void*))
   b5618:	b508      	push	{r3, lr}
   b561a:	4b02      	ldr	r3, [pc, #8]	; (b5624 <os_thread_scheduling+0xc>)
   b561c:	681b      	ldr	r3, [r3, #0]
   b561e:	69db      	ldr	r3, [r3, #28]
   b5620:	9301      	str	r3, [sp, #4]
   b5622:	bd08      	pop	{r3, pc}
   b5624:	00030248 	.word	0x00030248

000b5628 <os_timer_create>:

DYNALIB_FN(8, hal_concurrent, os_timer_create, int(os_timer_t*, unsigned, void(*)(os_timer_t), void*, bool, void*))
   b5628:	b508      	push	{r3, lr}
   b562a:	4b02      	ldr	r3, [pc, #8]	; (b5634 <os_timer_create+0xc>)
   b562c:	681b      	ldr	r3, [r3, #0]
   b562e:	6a1b      	ldr	r3, [r3, #32]
   b5630:	9301      	str	r3, [sp, #4]
   b5632:	bd08      	pop	{r3, pc}
   b5634:	00030248 	.word	0x00030248

000b5638 <os_timer_destroy>:
DYNALIB_FN(9, hal_concurrent, os_timer_destroy, int(os_timer_t, void*))
   b5638:	b508      	push	{r3, lr}
   b563a:	4b02      	ldr	r3, [pc, #8]	; (b5644 <os_timer_destroy+0xc>)
   b563c:	681b      	ldr	r3, [r3, #0]
   b563e:	6a5b      	ldr	r3, [r3, #36]	; 0x24
   b5640:	9301      	str	r3, [sp, #4]
   b5642:	bd08      	pop	{r3, pc}
   b5644:	00030248 	.word	0x00030248

000b5648 <os_timer_get_id>:
DYNALIB_FN(10, hal_concurrent, os_timer_get_id, int(os_timer_t, void**))
   b5648:	b508      	push	{r3, lr}
   b564a:	4b02      	ldr	r3, [pc, #8]	; (b5654 <os_timer_get_id+0xc>)
   b564c:	681b      	ldr	r3, [r3, #0]
   b564e:	6a9b      	ldr	r3, [r3, #40]	; 0x28
   b5650:	9301      	str	r3, [sp, #4]
   b5652:	bd08      	pop	{r3, pc}
   b5654:	00030248 	.word	0x00030248

000b5658 <os_timer_change>:
DYNALIB_FN(11, hal_concurrent, os_timer_change, int(os_timer_t, os_timer_change_t, bool, unsigned, unsigned, void*))
   b5658:	b508      	push	{r3, lr}
   b565a:	4b02      	ldr	r3, [pc, #8]	; (b5664 <os_timer_change+0xc>)
   b565c:	681b      	ldr	r3, [r3, #0]
   b565e:	6adb      	ldr	r3, [r3, #44]	; 0x2c
   b5660:	9301      	str	r3, [sp, #4]
   b5662:	bd08      	pop	{r3, pc}
   b5664:	00030248 	.word	0x00030248

000b5668 <os_mutex_recursive_create>:
DYNALIB_FN(13, hal_concurrent, os_mutex_destroy, int(os_mutex_t))
DYNALIB_FN(14, hal_concurrent, os_mutex_lock, int(os_mutex_t))
DYNALIB_FN(15, hal_concurrent, os_mutex_trylock, int(os_mutex_t))
DYNALIB_FN(16, hal_concurrent, os_mutex_unlock, int(os_mutex_t))

DYNALIB_FN(17, hal_concurrent, os_mutex_recursive_create, int(os_mutex_recursive_t*))
   b5668:	b508      	push	{r3, lr}
   b566a:	4b02      	ldr	r3, [pc, #8]	; (b5674 <os_mutex_recursive_create+0xc>)
   b566c:	681b      	ldr	r3, [r3, #0]
   b566e:	6c5b      	ldr	r3, [r3, #68]	; 0x44
   b5670:	9301      	str	r3, [sp, #4]
   b5672:	bd08      	pop	{r3, pc}
   b5674:	00030248 	.word	0x00030248

000b5678 <os_mutex_recursive_lock>:
DYNALIB_FN(18, hal_concurrent, os_mutex_recursive_destroy, int(os_mutex_recursive_t))
DYNALIB_FN(19, hal_concurrent, os_mutex_recursive_lock, int(os_mutex_recursive_t))
   b5678:	b508      	push	{r3, lr}
   b567a:	4b02      	ldr	r3, [pc, #8]	; (b5684 <os_mutex_recursive_lock+0xc>)
   b567c:	681b      	ldr	r3, [r3, #0]
   b567e:	6cdb      	ldr	r3, [r3, #76]	; 0x4c
   b5680:	9301      	str	r3, [sp, #4]
   b5682:	bd08      	pop	{r3, pc}
   b5684:	00030248 	.word	0x00030248

000b5688 <os_mutex_recursive_unlock>:
DYNALIB_FN(20, hal_concurrent, os_mutex_recursive_trylock, int(os_mutex_recursive_t))
DYNALIB_FN(21, hal_concurrent, os_mutex_recursive_unlock, int(os_mutex_recursive_t))
   b5688:	b508      	push	{r3, lr}
   b568a:	4b02      	ldr	r3, [pc, #8]	; (b5694 <os_mutex_recursive_unlock+0xc>)
   b568c:	681b      	ldr	r3, [r3, #0]
   b568e:	6d5b      	ldr	r3, [r3, #84]	; 0x54
   b5690:	9301      	str	r3, [sp, #4]
   b5692:	bd08      	pop	{r3, pc}
   b5694:	00030248 	.word	0x00030248

000b5698 <os_timer_set_id>:
DYNALIB_FN(24, hal_concurrent, os_queue_destroy, int(os_queue_t, void*))
DYNALIB_FN(25, hal_concurrent, os_queue_put, int(os_queue_t, const void* item, system_tick_t, void*))
DYNALIB_FN(26, hal_concurrent, os_queue_take, int(os_queue_t, void* item, system_tick_t, void*))
DYNALIB_FN(27, hal_concurrent, os_thread_exit, os_result_t(os_thread_t))

DYNALIB_FN(28, hal_concurrent, os_timer_set_id, int(os_timer_t, void*))
   b5698:	b508      	push	{r3, lr}
   b569a:	4b02      	ldr	r3, [pc, #8]	; (b56a4 <os_timer_set_id+0xc>)
   b569c:	681b      	ldr	r3, [r3, #0]
   b569e:	6f1b      	ldr	r3, [r3, #112]	; 0x70
   b56a0:	9301      	str	r3, [sp, #4]
   b56a2:	bd08      	pop	{r3, pc}
   b56a4:	00030248 	.word	0x00030248

000b56a8 <inet_inet_ntop>:
DYNALIB_FN(0, hal_inet, inet_inet_addr, in_addr_t(const char*))
DYNALIB_FN(1, hal_inet, inet_inet_aton, int(const char*, struct in_addr*))
DYNALIB_FN(2, hal_inet, inet_inet_network, in_addr_t(const char*))
DYNALIB_FN(3, hal_inet, inet_inet_ntoa, char*(struct in_addr))
DYNALIB_FN(4, hal_inet, inet_inet_ntoa_r, char*(struct in_addr, char*, socklen_t))
DYNALIB_FN(5, hal_inet, inet_inet_ntop, const char*(int, const void*, char*, socklen_t))
   b56a8:	b508      	push	{r3, lr}
   b56aa:	4b02      	ldr	r3, [pc, #8]	; (b56b4 <inet_inet_ntop+0xc>)
   b56ac:	681b      	ldr	r3, [r3, #0]
   b56ae:	695b      	ldr	r3, [r3, #20]
   b56b0:	9301      	str	r3, [sp, #4]
   b56b2:	bd08      	pop	{r3, pc}
   b56b4:	00030264 	.word	0x00030264

000b56b8 <inet_htonl>:
DYNALIB_FN(6, hal_inet, inet_inet_pton, int(int, const char*, void*))
DYNALIB_FN(7, hal_inet, inet_ntohl, uint32_t(uint32_t))
DYNALIB_FN(8, hal_inet, inet_htonl, uint32_t(uint32_t))
   b56b8:	b508      	push	{r3, lr}
   b56ba:	4b02      	ldr	r3, [pc, #8]	; (b56c4 <inet_htonl+0xc>)
   b56bc:	681b      	ldr	r3, [r3, #0]
   b56be:	6a1b      	ldr	r3, [r3, #32]
   b56c0:	9301      	str	r3, [sp, #4]
   b56c2:	bd08      	pop	{r3, pc}
   b56c4:	00030264 	.word	0x00030264

000b56c8 <inet_ntohs>:
DYNALIB_FN(9, hal_inet, inet_ntohs, uint16_t(uint16_t))
   b56c8:	b508      	push	{r3, lr}
   b56ca:	4b02      	ldr	r3, [pc, #8]	; (b56d4 <inet_ntohs+0xc>)
   b56cc:	681b      	ldr	r3, [r3, #0]
   b56ce:	6a5b      	ldr	r3, [r3, #36]	; 0x24
   b56d0:	9301      	str	r3, [sp, #4]
   b56d2:	bd08      	pop	{r3, pc}
   b56d4:	00030264 	.word	0x00030264

000b56d8 <inet_htons>:
DYNALIB_FN(10, hal_inet, inet_htons, uint16_t(uint16_t))
   b56d8:	b508      	push	{r3, lr}
   b56da:	4b02      	ldr	r3, [pc, #8]	; (b56e4 <inet_htons+0xc>)
   b56dc:	681b      	ldr	r3, [r3, #0]
   b56de:	6a9b      	ldr	r3, [r3, #40]	; 0x28
   b56e0:	9301      	str	r3, [sp, #4]
   b56e2:	bd08      	pop	{r3, pc}
   b56e4:	00030264 	.word	0x00030264

000b56e8 <hal_usart_write>:
#endif

DYNALIB_FN(BASE_IDX + 0, hal_usart, hal_usart_init, void(hal_usart_interface_t, hal_usart_ring_buffer_t*, hal_usart_ring_buffer_t*))
DYNALIB_FN(BASE_IDX + 1, hal_usart, hal_usart_begin, void(hal_usart_interface_t, uint32_t))
DYNALIB_FN(BASE_IDX + 2, hal_usart, hal_usart_end, void(hal_usart_interface_t))
DYNALIB_FN(BASE_IDX + 3, hal_usart, hal_usart_write, uint32_t(hal_usart_interface_t, uint8_t))
   b56e8:	b508      	push	{r3, lr}
   b56ea:	4b02      	ldr	r3, [pc, #8]	; (b56f4 <hal_usart_write+0xc>)
   b56ec:	681b      	ldr	r3, [r3, #0]
   b56ee:	68db      	ldr	r3, [r3, #12]
   b56f0:	9301      	str	r3, [sp, #4]
   b56f2:	bd08      	pop	{r3, pc}
   b56f4:	0003023c 	.word	0x0003023c

000b56f8 <hal_usart_available>:
DYNALIB_FN(BASE_IDX + 4, hal_usart, hal_usart_available, int32_t(hal_usart_interface_t))
   b56f8:	b508      	push	{r3, lr}
   b56fa:	4b02      	ldr	r3, [pc, #8]	; (b5704 <hal_usart_available+0xc>)
   b56fc:	681b      	ldr	r3, [r3, #0]
   b56fe:	691b      	ldr	r3, [r3, #16]
   b5700:	9301      	str	r3, [sp, #4]
   b5702:	bd08      	pop	{r3, pc}
   b5704:	0003023c 	.word	0x0003023c

000b5708 <hal_usart_read>:
DYNALIB_FN(BASE_IDX + 5, hal_usart, hal_usart_read, int32_t(hal_usart_interface_t))
   b5708:	b508      	push	{r3, lr}
   b570a:	4b02      	ldr	r3, [pc, #8]	; (b5714 <hal_usart_read+0xc>)
   b570c:	681b      	ldr	r3, [r3, #0]
   b570e:	695b      	ldr	r3, [r3, #20]
   b5710:	9301      	str	r3, [sp, #4]
   b5712:	bd08      	pop	{r3, pc}
   b5714:	0003023c 	.word	0x0003023c

000b5718 <hal_usart_peek>:
DYNALIB_FN(BASE_IDX + 6, hal_usart, hal_usart_peek, int32_t(hal_usart_interface_t))
   b5718:	b508      	push	{r3, lr}
   b571a:	4b02      	ldr	r3, [pc, #8]	; (b5724 <hal_usart_peek+0xc>)
   b571c:	681b      	ldr	r3, [r3, #0]
   b571e:	699b      	ldr	r3, [r3, #24]
   b5720:	9301      	str	r3, [sp, #4]
   b5722:	bd08      	pop	{r3, pc}
   b5724:	0003023c 	.word	0x0003023c

000b5728 <hal_usart_flush>:
DYNALIB_FN(BASE_IDX + 7, hal_usart, hal_usart_flush, void(hal_usart_interface_t))
   b5728:	b508      	push	{r3, lr}
   b572a:	4b02      	ldr	r3, [pc, #8]	; (b5734 <hal_usart_flush+0xc>)
   b572c:	681b      	ldr	r3, [r3, #0]
   b572e:	69db      	ldr	r3, [r3, #28]
   b5730:	9301      	str	r3, [sp, #4]
   b5732:	bd08      	pop	{r3, pc}
   b5734:	0003023c 	.word	0x0003023c

000b5738 <hal_usart_is_enabled>:
DYNALIB_FN(BASE_IDX + 8, hal_usart, hal_usart_is_enabled, bool(hal_usart_interface_t))
   b5738:	b508      	push	{r3, lr}
   b573a:	4b02      	ldr	r3, [pc, #8]	; (b5744 <hal_usart_is_enabled+0xc>)
   b573c:	681b      	ldr	r3, [r3, #0]
   b573e:	6a1b      	ldr	r3, [r3, #32]
   b5740:	9301      	str	r3, [sp, #4]
   b5742:	bd08      	pop	{r3, pc}
   b5744:	0003023c 	.word	0x0003023c

000b5748 <hal_usart_available_data_for_write>:
DYNALIB_FN(BASE_IDX + 9, hal_usart, hal_usart_half_duplex, void(hal_usart_interface_t, bool))
DYNALIB_FN(BASE_IDX + 10, hal_usart, hal_usart_available_data_for_write, int32_t(hal_usart_interface_t))
   b5748:	b508      	push	{r3, lr}
   b574a:	4b02      	ldr	r3, [pc, #8]	; (b5754 <hal_usart_available_data_for_write+0xc>)
   b574c:	681b      	ldr	r3, [r3, #0]
   b574e:	6a9b      	ldr	r3, [r3, #40]	; 0x28
   b5750:	9301      	str	r3, [sp, #4]
   b5752:	bd08      	pop	{r3, pc}
   b5754:	0003023c 	.word	0x0003023c

000b5758 <hal_usart_init_ex>:
DYNALIB_FN(BASE_IDX2 + 0, hal_usart, hal_usart_begin_config, void(hal_usart_interface_t serial, uint32_t baud, uint32_t config, void *ptr))
DYNALIB_FN(BASE_IDX2 + 1, hal_usart, hal_usart_write_nine_bits, uint32_t(hal_usart_interface_t serial, uint16_t data))
DYNALIB_FN(BASE_IDX2 + 2, hal_usart, hal_usart_send_break, void(hal_usart_interface_t, void*))
DYNALIB_FN(BASE_IDX2 + 3, hal_usart, hal_usart_break_detected, uint8_t(hal_usart_interface_t))
DYNALIB_FN(BASE_IDX2 + 4, hal_usart, hal_usart_sleep, int(hal_usart_interface_t serial, bool, void*))
DYNALIB_FN(BASE_IDX2 + 5, hal_usart, hal_usart_init_ex, int(hal_usart_interface_t, const hal_usart_buffer_config_t*, void*))
   b5758:	b508      	push	{r3, lr}
   b575a:	4b02      	ldr	r3, [pc, #8]	; (b5764 <hal_usart_init_ex+0xc>)
   b575c:	681b      	ldr	r3, [r3, #0]
   b575e:	6c1b      	ldr	r3, [r3, #64]	; 0x40
   b5760:	9301      	str	r3, [sp, #4]
   b5762:	bd08      	pop	{r3, pc}
   b5764:	0003023c 	.word	0x0003023c

000b5768 <hal_i2c_write>:
DYNALIB_FN(3, hal_i2c, hal_i2c_begin, void(hal_i2c_interface_t, hal_i2c_mode_t, uint8_t, void*))
DYNALIB_FN(4, hal_i2c, hal_i2c_end, void(hal_i2c_interface_t, void*))
DYNALIB_FN(5, hal_i2c, hal_i2c_request, uint32_t(hal_i2c_interface_t, uint8_t, uint8_t, uint8_t, void*))
DYNALIB_FN(6, hal_i2c, hal_i2c_begin_transmission, void(hal_i2c_interface_t, uint8_t, const hal_i2c_transmission_config_t*))
DYNALIB_FN(7, hal_i2c, hal_i2c_end_transmission, uint8_t(hal_i2c_interface_t, uint8_t, void*))
DYNALIB_FN(8, hal_i2c, hal_i2c_write, uint32_t(hal_i2c_interface_t, uint8_t, void*))
   b5768:	b508      	push	{r3, lr}
   b576a:	4b02      	ldr	r3, [pc, #8]	; (b5774 <hal_i2c_write+0xc>)
   b576c:	681b      	ldr	r3, [r3, #0]
   b576e:	6a1b      	ldr	r3, [r3, #32]
   b5770:	9301      	str	r3, [sp, #4]
   b5772:	bd08      	pop	{r3, pc}
   b5774:	00030228 	.word	0x00030228

000b5778 <hal_i2c_available>:
DYNALIB_FN(9, hal_i2c, hal_i2c_available, int32_t(hal_i2c_interface_t, void*))
   b5778:	b508      	push	{r3, lr}
   b577a:	4b02      	ldr	r3, [pc, #8]	; (b5784 <hal_i2c_available+0xc>)
   b577c:	681b      	ldr	r3, [r3, #0]
   b577e:	6a5b      	ldr	r3, [r3, #36]	; 0x24
   b5780:	9301      	str	r3, [sp, #4]
   b5782:	bd08      	pop	{r3, pc}
   b5784:	00030228 	.word	0x00030228

000b5788 <hal_i2c_read>:
DYNALIB_FN(10, hal_i2c, hal_i2c_read, int32_t(hal_i2c_interface_t, void*))
   b5788:	b508      	push	{r3, lr}
   b578a:	4b02      	ldr	r3, [pc, #8]	; (b5794 <hal_i2c_read+0xc>)
   b578c:	681b      	ldr	r3, [r3, #0]
   b578e:	6a9b      	ldr	r3, [r3, #40]	; 0x28
   b5790:	9301      	str	r3, [sp, #4]
   b5792:	bd08      	pop	{r3, pc}
   b5794:	00030228 	.word	0x00030228

000b5798 <hal_i2c_peek>:
DYNALIB_FN(11, hal_i2c, hal_i2c_peek, int32_t(hal_i2c_interface_t, void*))
   b5798:	b508      	push	{r3, lr}
   b579a:	4b02      	ldr	r3, [pc, #8]	; (b57a4 <hal_i2c_peek+0xc>)
   b579c:	681b      	ldr	r3, [r3, #0]
   b579e:	6adb      	ldr	r3, [r3, #44]	; 0x2c
   b57a0:	9301      	str	r3, [sp, #4]
   b57a2:	bd08      	pop	{r3, pc}
   b57a4:	00030228 	.word	0x00030228

000b57a8 <hal_i2c_flush>:
DYNALIB_FN(12, hal_i2c, hal_i2c_flush, void(hal_i2c_interface_t, void*))
   b57a8:	b508      	push	{r3, lr}
   b57aa:	4b02      	ldr	r3, [pc, #8]	; (b57b4 <hal_i2c_flush+0xc>)
   b57ac:	681b      	ldr	r3, [r3, #0]
   b57ae:	6b1b      	ldr	r3, [r3, #48]	; 0x30
   b57b0:	9301      	str	r3, [sp, #4]
   b57b2:	bd08      	pop	{r3, pc}
   b57b4:	00030228 	.word	0x00030228

000b57b8 <hal_i2c_is_enabled>:
DYNALIB_FN(13, hal_i2c, hal_i2c_is_enabled, bool(hal_i2c_interface_t, void*))
   b57b8:	b508      	push	{r3, lr}
   b57ba:	4b02      	ldr	r3, [pc, #8]	; (b57c4 <hal_i2c_is_enabled+0xc>)
   b57bc:	681b      	ldr	r3, [r3, #0]
   b57be:	6b5b      	ldr	r3, [r3, #52]	; 0x34
   b57c0:	9301      	str	r3, [sp, #4]
   b57c2:	bd08      	pop	{r3, pc}
   b57c4:	00030228 	.word	0x00030228

000b57c8 <hal_i2c_init>:
DYNALIB_FN(14, hal_i2c, hal_i2c_set_callback_on_received, void(hal_i2c_interface_t, void(*)(int), void*))
DYNALIB_FN(15, hal_i2c, hal_i2c_set_callback_on_requested, void(hal_i2c_interface_t, void(*)(void), void*))
DYNALIB_FN(16, hal_i2c, hal_i2c_init, int(hal_i2c_interface_t, const hal_i2c_config_t*))
   b57c8:	b508      	push	{r3, lr}
   b57ca:	4b02      	ldr	r3, [pc, #8]	; (b57d4 <hal_i2c_init+0xc>)
   b57cc:	681b      	ldr	r3, [r3, #0]
   b57ce:	6c1b      	ldr	r3, [r3, #64]	; 0x40
   b57d0:	9301      	str	r3, [sp, #4]
   b57d2:	bd08      	pop	{r3, pc}
   b57d4:	00030228 	.word	0x00030228

000b57d8 <sock_bind>:
// GNINRAW

DYNALIB_BEGIN(hal_socket)

DYNALIB_FN(0, hal_socket, sock_accept, int(int, struct sockaddr*, socklen_t*))
DYNALIB_FN(1, hal_socket, sock_bind, int(int, const struct sockaddr*, socklen_t))
   b57d8:	b508      	push	{r3, lr}
   b57da:	4b02      	ldr	r3, [pc, #8]	; (b57e4 <sock_bind+0xc>)
   b57dc:	681b      	ldr	r3, [r3, #0]
   b57de:	685b      	ldr	r3, [r3, #4]
   b57e0:	9301      	str	r3, [sp, #4]
   b57e2:	bd08      	pop	{r3, pc}
   b57e4:	00030238 	.word	0x00030238

000b57e8 <sock_setsockopt>:
DYNALIB_FN(2, hal_socket, sock_shutdown, int(int, int))
DYNALIB_FN(3, hal_socket, sock_getpeername, int(int, struct sockaddr*, socklen_t*))
DYNALIB_FN(4, hal_socket, sock_getsockname, int(int, struct sockaddr*, socklen_t*))
DYNALIB_FN(5, hal_socket, sock_getsockopt, int(int, int, int, void*, socklen_t*))
DYNALIB_FN(6, hal_socket, sock_setsockopt, int(int, int, int, const void*, socklen_t))
   b57e8:	b508      	push	{r3, lr}
   b57ea:	4b02      	ldr	r3, [pc, #8]	; (b57f4 <sock_setsockopt+0xc>)
   b57ec:	681b      	ldr	r3, [r3, #0]
   b57ee:	699b      	ldr	r3, [r3, #24]
   b57f0:	9301      	str	r3, [sp, #4]
   b57f2:	bd08      	pop	{r3, pc}
   b57f4:	00030238 	.word	0x00030238

000b57f8 <sock_close>:
DYNALIB_FN(7, hal_socket, sock_close, int(int))
   b57f8:	b508      	push	{r3, lr}
   b57fa:	4b02      	ldr	r3, [pc, #8]	; (b5804 <sock_close+0xc>)
   b57fc:	681b      	ldr	r3, [r3, #0]
   b57fe:	69db      	ldr	r3, [r3, #28]
   b5800:	9301      	str	r3, [sp, #4]
   b5802:	bd08      	pop	{r3, pc}
   b5804:	00030238 	.word	0x00030238

000b5808 <sock_recvfrom>:
DYNALIB_FN(8, hal_socket, sock_connect, int(int, const struct sockaddr*, socklen_t))
DYNALIB_FN(9, hal_socket, sock_listen, int(int, int))
DYNALIB_FN(10, hal_socket, sock_recv, int(int, void*, size_t, int))
DYNALIB_FN(11, hal_socket, sock_recvfrom, int(int, void*, size_t, int, struct sockaddr*, socklen_t*))
   b5808:	b508      	push	{r3, lr}
   b580a:	4b02      	ldr	r3, [pc, #8]	; (b5814 <sock_recvfrom+0xc>)
   b580c:	681b      	ldr	r3, [r3, #0]
   b580e:	6adb      	ldr	r3, [r3, #44]	; 0x2c
   b5810:	9301      	str	r3, [sp, #4]
   b5812:	bd08      	pop	{r3, pc}
   b5814:	00030238 	.word	0x00030238

000b5818 <sock_sendto>:
DYNALIB_FN(12, hal_socket, sock_send, int(int, const void*, size_t, int))
DYNALIB_FN(13, hal_socket, sock_sendto, int(int, const void*, size_t, int, const struct sockaddr*, socklen_t))
   b5818:	b508      	push	{r3, lr}
   b581a:	4b02      	ldr	r3, [pc, #8]	; (b5824 <sock_sendto+0xc>)
   b581c:	681b      	ldr	r3, [r3, #0]
   b581e:	6b5b      	ldr	r3, [r3, #52]	; 0x34
   b5820:	9301      	str	r3, [sp, #4]
   b5822:	bd08      	pop	{r3, pc}
   b5824:	00030238 	.word	0x00030238

000b5828 <sock_socket>:
DYNALIB_FN(14, hal_socket, sock_socket, int(int, int, int))
   b5828:	b508      	push	{r3, lr}
   b582a:	4b02      	ldr	r3, [pc, #8]	; (b5834 <sock_socket+0xc>)
   b582c:	681b      	ldr	r3, [r3, #0]
   b582e:	6b9b      	ldr	r3, [r3, #56]	; 0x38
   b5830:	9301      	str	r3, [sp, #4]
   b5832:	bd08      	pop	{r3, pc}
   b5834:	00030238 	.word	0x00030238

000b5838 <hal_spi_init>:
DYNALIB_FN(2, hal_spi, hal_spi_set_bit_order, void(hal_spi_interface_t, uint8_t))
DYNALIB_FN(3, hal_spi, hal_spi_set_data_mode, void(hal_spi_interface_t, uint8_t))
DYNALIB_FN(4, hal_spi, hal_spi_set_clock_divider, void(hal_spi_interface_t, uint8_t))
DYNALIB_FN(5, hal_spi, hal_spi_transfer, uint16_t(hal_spi_interface_t, uint16_t))
DYNALIB_FN(6, hal_spi, hal_spi_is_enabled_deprecated, bool(void))
DYNALIB_FN(7, hal_spi, hal_spi_init, void(hal_spi_interface_t))
   b5838:	b508      	push	{r3, lr}
   b583a:	4b02      	ldr	r3, [pc, #8]	; (b5844 <hal_spi_init+0xc>)
   b583c:	681b      	ldr	r3, [r3, #0]
   b583e:	69db      	ldr	r3, [r3, #28]
   b5840:	9301      	str	r3, [sp, #4]
   b5842:	bd08      	pop	{r3, pc}
   b5844:	00030230 	.word	0x00030230

000b5848 <hal_spi_is_enabled>:
DYNALIB_FN(8, hal_spi, hal_spi_is_enabled, bool(hal_spi_interface_t))
   b5848:	b508      	push	{r3, lr}
   b584a:	4b02      	ldr	r3, [pc, #8]	; (b5854 <hal_spi_is_enabled+0xc>)
   b584c:	681b      	ldr	r3, [r3, #0]
   b584e:	6a1b      	ldr	r3, [r3, #32]
   b5850:	9301      	str	r3, [sp, #4]
   b5852:	bd08      	pop	{r3, pc}
   b5854:	00030230 	.word	0x00030230

000b5858 <HAL_USB_USART_Init>:
// GNINRAW

DYNALIB_BEGIN(hal_usb)

#ifdef USB_CDC_ENABLE
DYNALIB_FN(0, hal_usb, HAL_USB_USART_Init, void(HAL_USB_USART_Serial, const HAL_USB_USART_Config*))
   b5858:	b508      	push	{r3, lr}
   b585a:	4b02      	ldr	r3, [pc, #8]	; (b5864 <HAL_USB_USART_Init+0xc>)
   b585c:	681b      	ldr	r3, [r3, #0]
   b585e:	681b      	ldr	r3, [r3, #0]
   b5860:	9301      	str	r3, [sp, #4]
   b5862:	bd08      	pop	{r3, pc}
   b5864:	0003024c 	.word	0x0003024c

000b5868 <HAL_USB_USART_Available_Data>:
DYNALIB_FN(1, hal_usb, HAL_USB_USART_Begin, void(HAL_USB_USART_Serial, uint32_t, void *))
DYNALIB_FN(2, hal_usb, HAL_USB_USART_End, void(HAL_USB_USART_Serial))
DYNALIB_FN(3, hal_usb, HAL_USB_USART_Baud_Rate, unsigned int(HAL_USB_USART_Serial))
DYNALIB_FN(4, hal_usb, HAL_USB_USART_Available_Data, int32_t(HAL_USB_USART_Serial))
   b5868:	b508      	push	{r3, lr}
   b586a:	4b02      	ldr	r3, [pc, #8]	; (b5874 <HAL_USB_USART_Available_Data+0xc>)
   b586c:	681b      	ldr	r3, [r3, #0]
   b586e:	691b      	ldr	r3, [r3, #16]
   b5870:	9301      	str	r3, [sp, #4]
   b5872:	bd08      	pop	{r3, pc}
   b5874:	0003024c 	.word	0x0003024c

000b5878 <HAL_USB_USART_Available_Data_For_Write>:
DYNALIB_FN(5, hal_usb, HAL_USB_USART_Available_Data_For_Write, int32_t(HAL_USB_USART_Serial))
   b5878:	b508      	push	{r3, lr}
   b587a:	4b02      	ldr	r3, [pc, #8]	; (b5884 <HAL_USB_USART_Available_Data_For_Write+0xc>)
   b587c:	681b      	ldr	r3, [r3, #0]
   b587e:	695b      	ldr	r3, [r3, #20]
   b5880:	9301      	str	r3, [sp, #4]
   b5882:	bd08      	pop	{r3, pc}
   b5884:	0003024c 	.word	0x0003024c

000b5888 <HAL_USB_USART_Receive_Data>:
DYNALIB_FN(6, hal_usb, HAL_USB_USART_Receive_Data, int32_t(HAL_USB_USART_Serial, uint8_t))
   b5888:	b508      	push	{r3, lr}
   b588a:	4b02      	ldr	r3, [pc, #8]	; (b5894 <HAL_USB_USART_Receive_Data+0xc>)
   b588c:	681b      	ldr	r3, [r3, #0]
   b588e:	699b      	ldr	r3, [r3, #24]
   b5890:	9301      	str	r3, [sp, #4]
   b5892:	bd08      	pop	{r3, pc}
   b5894:	0003024c 	.word	0x0003024c

000b5898 <HAL_USB_USART_Send_Data>:
DYNALIB_FN(7, hal_usb, HAL_USB_USART_Send_Data, int32_t(HAL_USB_USART_Serial, uint8_t))
   b5898:	b508      	push	{r3, lr}
   b589a:	4b02      	ldr	r3, [pc, #8]	; (b58a4 <HAL_USB_USART_Send_Data+0xc>)
   b589c:	681b      	ldr	r3, [r3, #0]
   b589e:	69db      	ldr	r3, [r3, #28]
   b58a0:	9301      	str	r3, [sp, #4]
   b58a2:	bd08      	pop	{r3, pc}
   b58a4:	0003024c 	.word	0x0003024c

000b58a8 <HAL_USB_USART_Flush_Data>:
DYNALIB_FN(8, hal_usb, HAL_USB_USART_Flush_Data, void(HAL_USB_USART_Serial))
   b58a8:	b508      	push	{r3, lr}
   b58aa:	4b02      	ldr	r3, [pc, #8]	; (b58b4 <HAL_USB_USART_Flush_Data+0xc>)
   b58ac:	681b      	ldr	r3, [r3, #0]
   b58ae:	6a1b      	ldr	r3, [r3, #32]
   b58b0:	9301      	str	r3, [sp, #4]
   b58b2:	bd08      	pop	{r3, pc}
   b58b4:	0003024c 	.word	0x0003024c

000b58b8 <wlan_connected_info>:
DYNALIB_FN(24, hal_wlan, wlan_get_credentials, int(wlan_scan_result_t, void*))
DYNALIB_FN(25, hal_wlan, softap_set_application_page_handler, int(PageProvider* provider, void* reserved))
DYNALIB_FN(26, hal_wlan, wlan_restart, int(void*))
DYNALIB_FN(27, hal_wlan, wlan_set_hostname, int(const char*, void*))
DYNALIB_FN(28, hal_wlan, wlan_get_hostname, int(char*, size_t, void*))
DYNALIB_FN(29, hal_wlan, wlan_connected_info, int(void*, wlan_connected_info_t*, void*))
   b58b8:	b508      	push	{r3, lr}
   b58ba:	4b02      	ldr	r3, [pc, #8]	; (b58c4 <wlan_connected_info+0xc>)
   b58bc:	681b      	ldr	r3, [r3, #0]
   b58be:	6f5b      	ldr	r3, [r3, #116]	; 0x74
   b58c0:	9301      	str	r3, [sp, #4]
   b58c2:	bd08      	pop	{r3, pc}
   b58c4:	00030274 	.word	0x00030274

000b58c8 <panic_>:
DYNALIB_FN(9, services, LED_Toggle, void(Led_TypeDef))
DYNALIB_FN(10, services, LED_Fade, void(Led_TypeDef))
DYNALIB_FN(11, services, Get_LED_Brightness, uint8_t(void))

DYNALIB_FN(12, services, set_logger_output, void(debug_output_fn, LoggerOutputLevel)) // Deprecated
DYNALIB_FN(13, services, panic_, void(ePanicCode, void*, void(*)(uint32_t)))
   b58c8:	b508      	push	{r3, lr}
   b58ca:	4b02      	ldr	r3, [pc, #8]	; (b58d4 <panic_+0xc>)
   b58cc:	681b      	ldr	r3, [r3, #0]
   b58ce:	6b5b      	ldr	r3, [r3, #52]	; 0x34
   b58d0:	9301      	str	r3, [sp, #4]
   b58d2:	bd08      	pop	{r3, pc}
   b58d4:	00030260 	.word	0x00030260

000b58d8 <log_message>:
DYNALIB_FN(16, services, log_print_, void(int, int, const char*, const char*, const char*, ...)) // Deprecated
DYNALIB_FN(17, services, LED_RGB_SetChangeHandler, void(led_update_handler_fn, void*))
DYNALIB_FN(18, services, log_print_direct_, void(int, void*, const char*, ...)) // Deprecated
DYNALIB_FN(19, services, LED_GetColor, uint32_t(uint32_t, void*))

DYNALIB_FN(20, services, log_message, void(int, const char*, LogAttributes*, void*, const char*, ...))
   b58d8:	b508      	push	{r3, lr}
   b58da:	4b02      	ldr	r3, [pc, #8]	; (b58e4 <log_message+0xc>)
   b58dc:	681b      	ldr	r3, [r3, #0]
   b58de:	6d1b      	ldr	r3, [r3, #80]	; 0x50
   b58e0:	9301      	str	r3, [sp, #4]
   b58e2:	bd08      	pop	{r3, pc}
   b58e4:	00030260 	.word	0x00030260

000b58e8 <system_mode>:
#include "system_ble_prov.h"
#endif

DYNALIB_BEGIN(system)

DYNALIB_FN(0, system, system_mode, System_Mode_TypeDef(void))
   b58e8:	b508      	push	{r3, lr}
   b58ea:	4b02      	ldr	r3, [pc, #8]	; (b58f4 <system_mode+0xc>)
   b58ec:	681b      	ldr	r3, [r3, #0]
   b58ee:	681b      	ldr	r3, [r3, #0]
   b58f0:	9301      	str	r3, [sp, #4]
   b58f2:	bd08      	pop	{r3, pc}
   b58f4:	00030220 	.word	0x00030220

000b58f8 <set_system_mode>:
DYNALIB_FN(1, system, set_system_mode, void(System_Mode_TypeDef))
   b58f8:	b508      	push	{r3, lr}
   b58fa:	4b02      	ldr	r3, [pc, #8]	; (b5904 <set_system_mode+0xc>)
   b58fc:	681b      	ldr	r3, [r3, #0]
   b58fe:	685b      	ldr	r3, [r3, #4]
   b5900:	9301      	str	r3, [sp, #4]
   b5902:	bd08      	pop	{r3, pc}
   b5904:	00030220 	.word	0x00030220

000b5908 <system_delay_ms>:

DYNALIB_FN(2, system, set_ymodem_serial_flash_update_handler, void(ymodem_serial_flash_update_handler))
DYNALIB_FN(3, system, system_firmwareUpdate, bool(Stream*, void*))
DYNALIB_FN(4, system, system_fileTransfer, bool(system_file_transfer_t*, void*))

DYNALIB_FN(5, system, system_delay_ms, void(unsigned long, bool))
   b5908:	b508      	push	{r3, lr}
   b590a:	4b02      	ldr	r3, [pc, #8]	; (b5914 <system_delay_ms+0xc>)
   b590c:	681b      	ldr	r3, [r3, #0]
   b590e:	695b      	ldr	r3, [r3, #20]
   b5910:	9301      	str	r3, [sp, #4]
   b5912:	bd08      	pop	{r3, pc}
   b5914:	00030220 	.word	0x00030220

000b5918 <system_thread_set_state>:
DYNALIB_FN(6, system, system_sleep, int(Spark_Sleep_TypeDef, long, uint32_t, void*))
DYNALIB_FN(7, system, system_sleep_pin, int(uint16_t, uint16_t, long, uint32_t, void*))
DYNALIB_FN(8, system, system_subscribe_event, int(system_event_t, system_event_handler_t*, SystemEventContext*))
DYNALIB_FN(9, system, system_unsubscribe_event, void(system_event_t, system_event_handler_t*, const SystemEventContext*))
DYNALIB_FN(10, system, system_button_pushed_duration, uint16_t(uint8_t, void*))
DYNALIB_FN(11, system, system_thread_set_state, void(spark::feature::State, void*))
   b5918:	b508      	push	{r3, lr}
   b591a:	4b02      	ldr	r3, [pc, #8]	; (b5924 <system_thread_set_state+0xc>)
   b591c:	681b      	ldr	r3, [r3, #0]
   b591e:	6adb      	ldr	r3, [r3, #44]	; 0x2c
   b5920:	9301      	str	r3, [sp, #4]
   b5922:	bd08      	pop	{r3, pc}
   b5924:	00030220 	.word	0x00030220

000b5928 <application_thread_current>:
DYNALIB_FN(15, system, system_get_flag, int(system_flag_t, uint8_t*, void*))
DYNALIB_FN(16, system, Spark_Prepare_For_Firmware_Update, int(FileTransfer::Descriptor&, uint32_t, void*))
DYNALIB_FN(17, system, Spark_Save_Firmware_Chunk, int(FileTransfer::Descriptor&, const uint8_t*, void*))
DYNALIB_FN(18, system, Spark_Finish_Firmware_Update, int(FileTransfer::Descriptor&, uint32_t, void*))

DYNALIB_FN(19, system, application_thread_current, uint8_t(void*))
   b5928:	b508      	push	{r3, lr}
   b592a:	4b02      	ldr	r3, [pc, #8]	; (b5934 <application_thread_current+0xc>)
   b592c:	681b      	ldr	r3, [r3, #0]
   b592e:	6cdb      	ldr	r3, [r3, #76]	; 0x4c
   b5930:	9301      	str	r3, [sp, #4]
   b5932:	bd08      	pop	{r3, pc}
   b5934:	00030220 	.word	0x00030220

000b5938 <application_thread_invoke>:
DYNALIB_FN(20, system, system_thread_current, uint8_t(void*))
DYNALIB_FN(21, system, application_thread_invoke, uint8_t(void(*)(void*), void*, void*))
   b5938:	b508      	push	{r3, lr}
   b593a:	4b02      	ldr	r3, [pc, #8]	; (b5944 <application_thread_invoke+0xc>)
   b593c:	681b      	ldr	r3, [r3, #0]
   b593e:	6d5b      	ldr	r3, [r3, #84]	; 0x54
   b5940:	9301      	str	r3, [sp, #4]
   b5942:	bd08      	pop	{r3, pc}
   b5944:	00030220 	.word	0x00030220

000b5948 <system_thread_get_state>:
DYNALIB_FN(22, system, system_thread_get_state, spark::feature::State(void*))
   b5948:	b508      	push	{r3, lr}
   b594a:	4b02      	ldr	r3, [pc, #8]	; (b5954 <system_thread_get_state+0xc>)
   b594c:	681b      	ldr	r3, [r3, #0]
   b594e:	6d9b      	ldr	r3, [r3, #88]	; 0x58
   b5950:	9301      	str	r3, [sp, #4]
   b5952:	bd08      	pop	{r3, pc}
   b5954:	00030220 	.word	0x00030220

000b5958 <system_ctrl_set_app_request_handler>:
DYNALIB_FN(BASE_IDX + 6, system, led_pattern_period, uint16_t(int, int, void*))
DYNALIB_FN(BASE_IDX + 7, system, system_set_tester_handlers, int(system_tester_handlers_t*, void*))
DYNALIB_FN(BASE_IDX + 8, system, system_format_diag_data, int(const uint16_t*, size_t, unsigned, appender_fn, void*, void*))

// Control requests
DYNALIB_FN(BASE_IDX + 9, system, system_ctrl_set_app_request_handler, int(ctrl_request_handler_fn, void*))
   b5958:	b508      	push	{r3, lr}
   b595a:	4b03      	ldr	r3, [pc, #12]	; (b5968 <system_ctrl_set_app_request_handler+0x10>)
   b595c:	681b      	ldr	r3, [r3, #0]
   b595e:	f8d3 3088 	ldr.w	r3, [r3, #136]	; 0x88
   b5962:	9301      	str	r3, [sp, #4]
   b5964:	bd08      	pop	{r3, pc}
   b5966:	0000      	.short	0x0000
   b5968:	00030220 	.word	0x00030220

000b596c <system_ctrl_set_result>:
DYNALIB_FN(BASE_IDX + 10, system, system_ctrl_alloc_reply_data, int(ctrl_request*, size_t, void*))
DYNALIB_FN(BASE_IDX + 11, system, system_ctrl_free_request_data, void(ctrl_request*, void*))
DYNALIB_FN(BASE_IDX + 12, system, system_ctrl_set_result, void(ctrl_request*, int, ctrl_completion_handler_fn, void*, void*))
   b596c:	b508      	push	{r3, lr}
   b596e:	4b03      	ldr	r3, [pc, #12]	; (b597c <system_ctrl_set_result+0x10>)
   b5970:	681b      	ldr	r3, [r3, #0]
   b5972:	f8d3 3094 	ldr.w	r3, [r3, #148]	; 0x94
   b5976:	9301      	str	r3, [sp, #4]
   b5978:	bd08      	pop	{r3, pc}
   b597a:	0000      	.short	0x0000
   b597c:	00030220 	.word	0x00030220

000b5980 <network_connect>:
#endif

DYNALIB_BEGIN(system_net)

DYNALIB_FN(0, system_net, network_config, const void*(network_handle_t, uint32_t, void*))
DYNALIB_FN(1, system_net, network_connect, void(network_handle_t, uint32_t, uint32_t, void*))
   b5980:	b508      	push	{r3, lr}
   b5982:	4b02      	ldr	r3, [pc, #8]	; (b598c <network_connect+0xc>)
   b5984:	681b      	ldr	r3, [r3, #0]
   b5986:	685b      	ldr	r3, [r3, #4]
   b5988:	9301      	str	r3, [sp, #4]
   b598a:	bd08      	pop	{r3, pc}
   b598c:	00030240 	.word	0x00030240

000b5990 <network_connecting>:
DYNALIB_FN(2, system_net, network_connecting, bool(network_handle_t, uint32_t, void*))
   b5990:	b508      	push	{r3, lr}
   b5992:	4b02      	ldr	r3, [pc, #8]	; (b599c <network_connecting+0xc>)
   b5994:	681b      	ldr	r3, [r3, #0]
   b5996:	689b      	ldr	r3, [r3, #8]
   b5998:	9301      	str	r3, [sp, #4]
   b599a:	bd08      	pop	{r3, pc}
   b599c:	00030240 	.word	0x00030240

000b59a0 <network_disconnect>:
DYNALIB_FN(3, system_net, network_disconnect, void(network_handle_t, uint32_t, void*))
   b59a0:	b508      	push	{r3, lr}
   b59a2:	4b02      	ldr	r3, [pc, #8]	; (b59ac <network_disconnect+0xc>)
   b59a4:	681b      	ldr	r3, [r3, #0]
   b59a6:	68db      	ldr	r3, [r3, #12]
   b59a8:	9301      	str	r3, [sp, #4]
   b59aa:	bd08      	pop	{r3, pc}
   b59ac:	00030240 	.word	0x00030240

000b59b0 <network_ready>:
DYNALIB_FN(4, system_net, network_ready, bool(network_handle_t, uint32_t, void*))
   b59b0:	b508      	push	{r3, lr}
   b59b2:	4b02      	ldr	r3, [pc, #8]	; (b59bc <network_ready+0xc>)
   b59b4:	681b      	ldr	r3, [r3, #0]
   b59b6:	691b      	ldr	r3, [r3, #16]
   b59b8:	9301      	str	r3, [sp, #4]
   b59ba:	bd08      	pop	{r3, pc}
   b59bc:	00030240 	.word	0x00030240

000b59c0 <network_on>:
DYNALIB_FN(5, system_net, network_on, void(network_handle_t, uint32_t, uint32_t, void*))
   b59c0:	b508      	push	{r3, lr}
   b59c2:	4b02      	ldr	r3, [pc, #8]	; (b59cc <network_on+0xc>)
   b59c4:	681b      	ldr	r3, [r3, #0]
   b59c6:	695b      	ldr	r3, [r3, #20]
   b59c8:	9301      	str	r3, [sp, #4]
   b59ca:	bd08      	pop	{r3, pc}
   b59cc:	00030240 	.word	0x00030240

000b59d0 <network_off>:
DYNALIB_FN(6, system_net, network_off, void(network_handle_t, uint32_t, uint32_t, void*))
   b59d0:	b508      	push	{r3, lr}
   b59d2:	4b02      	ldr	r3, [pc, #8]	; (b59dc <network_off+0xc>)
   b59d4:	681b      	ldr	r3, [r3, #0]
   b59d6:	699b      	ldr	r3, [r3, #24]
   b59d8:	9301      	str	r3, [sp, #4]
   b59da:	bd08      	pop	{r3, pc}
   b59dc:	00030240 	.word	0x00030240

000b59e0 <network_listen>:
DYNALIB_FN(7, system_net, network_listen, void(network_handle_t, uint32_t, void*))
   b59e0:	b508      	push	{r3, lr}
   b59e2:	4b02      	ldr	r3, [pc, #8]	; (b59ec <network_listen+0xc>)
   b59e4:	681b      	ldr	r3, [r3, #0]
   b59e6:	69db      	ldr	r3, [r3, #28]
   b59e8:	9301      	str	r3, [sp, #4]
   b59ea:	bd08      	pop	{r3, pc}
   b59ec:	00030240 	.word	0x00030240

000b59f0 <network_listening>:
DYNALIB_FN(8, system_net, network_listening, bool(network_handle_t, uint32_t, void*))
   b59f0:	b508      	push	{r3, lr}
   b59f2:	4b02      	ldr	r3, [pc, #8]	; (b59fc <network_listening+0xc>)
   b59f4:	681b      	ldr	r3, [r3, #0]
   b59f6:	6a1b      	ldr	r3, [r3, #32]
   b59f8:	9301      	str	r3, [sp, #4]
   b59fa:	bd08      	pop	{r3, pc}
   b59fc:	00030240 	.word	0x00030240

000b5a00 <network_set_listen_timeout>:
DYNALIB_FN(9, system_net, network_has_credentials, bool(network_handle_t, uint32_t, void*))
DYNALIB_FN(10, system_net, network_set_credentials, int(network_handle_t, uint32_t, NetworkCredentials*, void*))
DYNALIB_FN(11, system_net, network_clear_credentials, bool(network_handle_t, uint32_t, NetworkCredentials*, void*))
DYNALIB_FN(12, system_net, network_set_listen_timeout, void(network_handle_t, uint16_t, void*))
   b5a00:	b508      	push	{r3, lr}
   b5a02:	4b02      	ldr	r3, [pc, #8]	; (b5a0c <network_set_listen_timeout+0xc>)
   b5a04:	681b      	ldr	r3, [r3, #0]
   b5a06:	6b1b      	ldr	r3, [r3, #48]	; 0x30
   b5a08:	9301      	str	r3, [sp, #4]
   b5a0a:	bd08      	pop	{r3, pc}
   b5a0c:	00030240 	.word	0x00030240

000b5a10 <network_get_listen_timeout>:
DYNALIB_FN(13, system_net, network_get_listen_timeout, uint16_t(network_handle_t, uint32_t, void*))
   b5a10:	b508      	push	{r3, lr}
   b5a12:	4b02      	ldr	r3, [pc, #8]	; (b5a1c <network_get_listen_timeout+0xc>)
   b5a14:	681b      	ldr	r3, [r3, #0]
   b5a16:	6b5b      	ldr	r3, [r3, #52]	; 0x34
   b5a18:	9301      	str	r3, [sp, #4]
   b5a1a:	bd08      	pop	{r3, pc}
   b5a1c:	00030240 	.word	0x00030240

000b5a20 <network_is_on>:
DYNALIB_FN(14, system_net, network_set_hostname, int(network_handle_t, uint32_t, const char*, void*))
DYNALIB_FN(15, system_net, network_get_hostname, int(network_handle_t, uint32_t, char*, size_t, void*))
DYNALIB_FN(16, system_net, network_is_on, bool(network_handle_t, void*))
   b5a20:	b508      	push	{r3, lr}
   b5a22:	4b02      	ldr	r3, [pc, #8]	; (b5a2c <network_is_on+0xc>)
   b5a24:	681b      	ldr	r3, [r3, #0]
   b5a26:	6c1b      	ldr	r3, [r3, #64]	; 0x40
   b5a28:	9301      	str	r3, [sp, #4]
   b5a2a:	bd08      	pop	{r3, pc}
   b5a2c:	00030240 	.word	0x00030240

000b5a30 <network_is_off>:
DYNALIB_FN(17, system_net, network_is_off, bool(network_handle_t, void*))
   b5a30:	b508      	push	{r3, lr}
   b5a32:	4b02      	ldr	r3, [pc, #8]	; (b5a3c <network_is_off+0xc>)
   b5a34:	681b      	ldr	r3, [r3, #0]
   b5a36:	6c5b      	ldr	r3, [r3, #68]	; 0x44
   b5a38:	9301      	str	r3, [sp, #4]
   b5a3a:	bd08      	pop	{r3, pc}
   b5a3c:	00030240 	.word	0x00030240

000b5a40 <spark_process>:

DYNALIB_BEGIN(system_cloud)

DYNALIB_FN(0, system_cloud, spark_variable, bool(const char*, const void*, Spark_Data_TypeDef, spark_variable_t*))
DYNALIB_FN(1, system_cloud, spark_function, bool(const char*, p_user_function_int_str_t, void*))
DYNALIB_FN(2, system_cloud, spark_process, void(void))
   b5a40:	b508      	push	{r3, lr}
   b5a42:	4b02      	ldr	r3, [pc, #8]	; (b5a4c <spark_process+0xc>)
   b5a44:	681b      	ldr	r3, [r3, #0]
   b5a46:	689b      	ldr	r3, [r3, #8]
   b5a48:	9301      	str	r3, [sp, #4]
   b5a4a:	bd08      	pop	{r3, pc}
   b5a4c:	00030244 	.word	0x00030244

000b5a50 <spark_cloud_flag_connected>:
DYNALIB_FN(3, system_cloud, spark_cloud_flag_connect, void(void))
DYNALIB_FN(4, system_cloud, spark_cloud_flag_disconnect, void(void))
DYNALIB_FN(5, system_cloud, spark_cloud_flag_connected, bool(void))
   b5a50:	b508      	push	{r3, lr}
   b5a52:	4b02      	ldr	r3, [pc, #8]	; (b5a5c <spark_cloud_flag_connected+0xc>)
   b5a54:	681b      	ldr	r3, [r3, #0]
   b5a56:	695b      	ldr	r3, [r3, #20]
   b5a58:	9301      	str	r3, [sp, #4]
   b5a5a:	bd08      	pop	{r3, pc}
   b5a5c:	00030244 	.word	0x00030244

000b5a60 <spark_send_event>:
DYNALIB_FN(6, system_cloud, system_cloud_protocol_instance, ProtocolFacade*(void))
DYNALIB_FN(7, system_cloud, spark_deviceID, String(void))
DYNALIB_FN(8, system_cloud, spark_send_event, bool(const char*, const char*, int, uint32_t, void*))
   b5a60:	b508      	push	{r3, lr}
   b5a62:	4b02      	ldr	r3, [pc, #8]	; (b5a6c <spark_send_event+0xc>)
   b5a64:	681b      	ldr	r3, [r3, #0]
   b5a66:	6a1b      	ldr	r3, [r3, #32]
   b5a68:	9301      	str	r3, [sp, #4]
   b5a6a:	bd08      	pop	{r3, pc}
   b5a6c:	00030244 	.word	0x00030244

000b5a70 <spark_subscribe>:
DYNALIB_FN(9, system_cloud, spark_subscribe, bool(const char*, EventHandler, void*, Spark_Subscription_Scope_TypeDef, const char*, void*))
   b5a70:	b508      	push	{r3, lr}
   b5a72:	4b02      	ldr	r3, [pc, #8]	; (b5a7c <spark_subscribe+0xc>)
   b5a74:	681b      	ldr	r3, [r3, #0]
   b5a76:	6a5b      	ldr	r3, [r3, #36]	; 0x24
   b5a78:	9301      	str	r3, [sp, #4]
   b5a7a:	bd08      	pop	{r3, pc}
   b5a7c:	00030244 	.word	0x00030244

000b5a80 <spark_sync_time_pending>:
DYNALIB_FN(10, system_cloud, spark_unsubscribe, void(void*))
DYNALIB_FN(11, system_cloud, spark_sync_time, bool(void*))
DYNALIB_FN(12, system_cloud, spark_sync_time_pending, bool(void*))
   b5a80:	b508      	push	{r3, lr}
   b5a82:	4b02      	ldr	r3, [pc, #8]	; (b5a8c <spark_sync_time_pending+0xc>)
   b5a84:	681b      	ldr	r3, [r3, #0]
   b5a86:	6b1b      	ldr	r3, [r3, #48]	; 0x30
   b5a88:	9301      	str	r3, [sp, #4]
   b5a8a:	bd08      	pop	{r3, pc}
   b5a8c:	00030244 	.word	0x00030244

000b5a90 <spark_set_random_seed_from_cloud_handler>:
DYNALIB_FN(13, system_cloud, spark_sync_time_last, system_tick_t(time32_t*, time_t*))
DYNALIB_FN(14, system_cloud, spark_set_connection_property, int(unsigned, unsigned, const void*, void*))
DYNALIB_FN(15, system_cloud, spark_set_random_seed_from_cloud_handler, int(void (*handler)(unsigned int), void*))
   b5a90:	b508      	push	{r3, lr}
   b5a92:	4b02      	ldr	r3, [pc, #8]	; (b5a9c <spark_set_random_seed_from_cloud_handler+0xc>)
   b5a94:	681b      	ldr	r3, [r3, #0]
   b5a96:	6bdb      	ldr	r3, [r3, #60]	; 0x3c
   b5a98:	9301      	str	r3, [sp, #4]
   b5a9a:	bd08      	pop	{r3, pc}
   b5a9c:	00030244 	.word	0x00030244

000b5aa0 <malloc>:
#include "hal_platform.h"
#endif // defined(DYNALIB_EXPORT) || (defined(DYNALIB_IMPORT) && !defined(RT_DYNALIB_NO_DEPENDENCY_BREAKING_IMPORTS))

DYNALIB_BEGIN(rt)

DYNALIB_FN(0, rt, malloc, void*(size_t))
   b5aa0:	b508      	push	{r3, lr}
   b5aa2:	4b02      	ldr	r3, [pc, #8]	; (b5aac <malloc+0xc>)
   b5aa4:	681b      	ldr	r3, [r3, #0]
   b5aa6:	681b      	ldr	r3, [r3, #0]
   b5aa8:	9301      	str	r3, [sp, #4]
   b5aaa:	bd08      	pop	{r3, pc}
   b5aac:	0003021c 	.word	0x0003021c

000b5ab0 <free>:
DYNALIB_FN(1, rt, free, void(void*))
   b5ab0:	b508      	push	{r3, lr}
   b5ab2:	4b02      	ldr	r3, [pc, #8]	; (b5abc <free+0xc>)
   b5ab4:	681b      	ldr	r3, [r3, #0]
   b5ab6:	685b      	ldr	r3, [r3, #4]
   b5ab8:	9301      	str	r3, [sp, #4]
   b5aba:	bd08      	pop	{r3, pc}
   b5abc:	0003021c 	.word	0x0003021c

000b5ac0 <realloc>:
DYNALIB_FN(2, rt, realloc, void*(void*, size_t))
   b5ac0:	b508      	push	{r3, lr}
   b5ac2:	4b02      	ldr	r3, [pc, #8]	; (b5acc <realloc+0xc>)
   b5ac4:	681b      	ldr	r3, [r3, #0]
   b5ac6:	689b      	ldr	r3, [r3, #8]
   b5ac8:	9301      	str	r3, [sp, #4]
   b5aca:	bd08      	pop	{r3, pc}
   b5acc:	0003021c 	.word	0x0003021c

000b5ad0 <sprintf>:
DYNALIB_FN(3, rt, sprintf, int(char*, const char*, ...))
   b5ad0:	b508      	push	{r3, lr}
   b5ad2:	4b02      	ldr	r3, [pc, #8]	; (b5adc <sprintf+0xc>)
   b5ad4:	681b      	ldr	r3, [r3, #0]
   b5ad6:	68db      	ldr	r3, [r3, #12]
   b5ad8:	9301      	str	r3, [sp, #4]
   b5ada:	bd08      	pop	{r3, pc}
   b5adc:	0003021c 	.word	0x0003021c

000b5ae0 <vsnprintf>:
DYNALIB_FN(4, rt, siprintf, int(char*, const char*, ...))
DYNALIB_FN(5, rt, sscanf, int(const char*, const char*, ...))
DYNALIB_FN(6, rt, siscanf, int(const char*, const char*, ...))
DYNALIB_FN(7, rt, snprintf, int(char*, size_t, const char*, ...))
DYNALIB_FN(8, rt, sniprintf, int(char*, size_t, const char*, ...))
DYNALIB_FN(9, rt, vsnprintf, int(char*, size_t, const char*, va_list))
   b5ae0:	b508      	push	{r3, lr}
   b5ae2:	4b02      	ldr	r3, [pc, #8]	; (b5aec <vsnprintf+0xc>)
   b5ae4:	681b      	ldr	r3, [r3, #0]
   b5ae6:	6a5b      	ldr	r3, [r3, #36]	; 0x24
   b5ae8:	9301      	str	r3, [sp, #4]
   b5aea:	bd08      	pop	{r3, pc}
   b5aec:	0003021c 	.word	0x0003021c

000b5af0 <abort>:
DYNALIB_FN(10, rt, vsniprintf, int(char*, size_t, const char*, va_list))
DYNALIB_FN(11, rt, abort, void(void))
   b5af0:	b508      	push	{r3, lr}
   b5af2:	4b02      	ldr	r3, [pc, #8]	; (b5afc <abort+0xc>)
   b5af4:	681b      	ldr	r3, [r3, #0]
   b5af6:	6adb      	ldr	r3, [r3, #44]	; 0x2c
   b5af8:	9301      	str	r3, [sp, #4]
   b5afa:	bd08      	pop	{r3, pc}
   b5afc:	0003021c 	.word	0x0003021c

000b5b00 <_malloc_r>:
DYNALIB_FN(12, rt, _malloc_r, void*(struct _reent*, size_t))
   b5b00:	b508      	push	{r3, lr}
   b5b02:	4b02      	ldr	r3, [pc, #8]	; (b5b0c <_malloc_r+0xc>)
   b5b04:	681b      	ldr	r3, [r3, #0]
   b5b06:	6b1b      	ldr	r3, [r3, #48]	; 0x30
   b5b08:	9301      	str	r3, [sp, #4]
   b5b0a:	bd08      	pop	{r3, pc}
   b5b0c:	0003021c 	.word	0x0003021c

000b5b10 <__errno>:
DYNALIB_FN(13, rt, _free_r, void(struct _reent*, void*))
DYNALIB_FN(14, rt, _realloc_r, void*(struct _reent*, void*, size_t))
DYNALIB_FN(15, rt, __errno, int*())
   b5b10:	b508      	push	{r3, lr}
   b5b12:	4b02      	ldr	r3, [pc, #8]	; (b5b1c <__errno+0xc>)
   b5b14:	681b      	ldr	r3, [r3, #0]
   b5b16:	6bdb      	ldr	r3, [r3, #60]	; 0x3c
   b5b18:	9301      	str	r3, [sp, #4]
   b5b1a:	bd08      	pop	{r3, pc}
   b5b1c:	0003021c 	.word	0x0003021c

000b5b20 <__assert_func>:

#if defined(DYNALIB_EXPORT) || (defined(DYNALIB_IMPORT) && !defined(RT_DYNALIB_NO_DEPENDENCY_BREAKING_IMPORTS))
DYNALIB_FN(16, rt, __assert_func, void(const char*, int, const char*, const char*))
   b5b20:	b508      	push	{r3, lr}
   b5b22:	4b02      	ldr	r3, [pc, #8]	; (b5b2c <__assert_func+0xc>)
   b5b24:	681b      	ldr	r3, [r3, #0]
   b5b26:	6c1b      	ldr	r3, [r3, #64]	; 0x40
   b5b28:	9301      	str	r3, [sp, #4]
   b5b2a:	bd08      	pop	{r3, pc}
   b5b2c:	0003021c 	.word	0x0003021c

000b5b30 <newlib_impure_ptr_callback>:
DYNALIB_FN(17, rt, newlib_impure_ptr_callback, void(void (*)(struct _reent*, size_t, uint32_t, void*), void*))
   b5b30:	b508      	push	{r3, lr}
   b5b32:	4b02      	ldr	r3, [pc, #8]	; (b5b3c <newlib_impure_ptr_callback+0xc>)
   b5b34:	681b      	ldr	r3, [r3, #0]
   b5b36:	6c5b      	ldr	r3, [r3, #68]	; 0x44
   b5b38:	9301      	str	r3, [sp, #4]
   b5b3a:	bd08      	pop	{r3, pc}
   b5b3c:	0003021c 	.word	0x0003021c

000b5b40 <localtime_r>:

#if HAL_PLATFORM_EXPORT_STDLIB_RT_DYNALIB
DYNALIB_FN(18, rt, strftime, size_t(char* __restrict, size_t, const char* __restrict, const struct tm* __restrict))
DYNALIB_FN(19, rt, localtime_r, struct tm*(const time_t* __restrict, struct tm* __restrict))
   b5b40:	b508      	push	{r3, lr}
   b5b42:	4b02      	ldr	r3, [pc, #8]	; (b5b4c <localtime_r+0xc>)
   b5b44:	681b      	ldr	r3, [r3, #0]
   b5b46:	6cdb      	ldr	r3, [r3, #76]	; 0x4c
   b5b48:	9301      	str	r3, [sp, #4]
   b5b4a:	bd08      	pop	{r3, pc}
   b5b4c:	0003021c 	.word	0x0003021c

000b5b50 <_ZN5spark13EthernetClass9listeningEv>:
    uint16_t getListenTimeout(void) {
        return network_get_listen_timeout(*this, 0, NULL);
    }

    bool listening(void) {
        return network_listening(*this, 0, NULL);
   b5b50:	2200      	movs	r2, #0
   b5b52:	6840      	ldr	r0, [r0, #4]
   b5b54:	4611      	mov	r1, r2
   b5b56:	f7ff bf4b 	b.w	b59f0 <network_listening>

000b5b5a <_ZN5spark13EthernetClass16getListenTimeoutEv>:
        return network_get_listen_timeout(*this, 0, NULL);
   b5b5a:	2200      	movs	r2, #0
   b5b5c:	6840      	ldr	r0, [r0, #4]
   b5b5e:	4611      	mov	r1, r2
   b5b60:	f7ff bf56 	b.w	b5a10 <network_get_listen_timeout>

000b5b64 <_ZN5spark13EthernetClass16setListenTimeoutEt>:
        network_set_listen_timeout(*this, timeout, NULL);
   b5b64:	6840      	ldr	r0, [r0, #4]
   b5b66:	2200      	movs	r2, #0
   b5b68:	f7ff bf4a 	b.w	b5a00 <network_set_listen_timeout>

000b5b6c <_ZN5spark13EthernetClass6listenEb>:
        network_listen(*this, begin ? 0 : 1, NULL);
   b5b6c:	6840      	ldr	r0, [r0, #4]
   b5b6e:	2200      	movs	r2, #0
   b5b70:	f081 0101 	eor.w	r1, r1, #1
   b5b74:	f7ff bf34 	b.w	b59e0 <network_listen>

000b5b78 <_ZN5spark13EthernetClass3offEv>:
        network_off(*this, 0, 0, NULL);
   b5b78:	2300      	movs	r3, #0
   b5b7a:	6840      	ldr	r0, [r0, #4]
   b5b7c:	461a      	mov	r2, r3
   b5b7e:	4619      	mov	r1, r3
   b5b80:	f7ff bf26 	b.w	b59d0 <network_off>

000b5b84 <_ZN5spark13EthernetClass2onEv>:
        network_on(*this, 0, 0, NULL);
   b5b84:	2300      	movs	r3, #0
   b5b86:	6840      	ldr	r0, [r0, #4]
   b5b88:	461a      	mov	r2, r3
   b5b8a:	4619      	mov	r1, r3
   b5b8c:	f7ff bf18 	b.w	b59c0 <network_on>

000b5b90 <_ZN5spark13EthernetClass5readyEv>:
    }

    bool ready() {
        return network_ready(*this, 0,  NULL);
   b5b90:	2200      	movs	r2, #0
   b5b92:	6840      	ldr	r0, [r0, #4]
   b5b94:	4611      	mov	r1, r2
   b5b96:	f7ff bf0b 	b.w	b59b0 <network_ready>

000b5b9a <_ZN5spark13EthernetClass10connectingEv>:
        return network_connecting(*this, 0, NULL);
   b5b9a:	2200      	movs	r2, #0
   b5b9c:	6840      	ldr	r0, [r0, #4]
   b5b9e:	4611      	mov	r1, r2
   b5ba0:	f7ff bef6 	b.w	b5990 <network_connecting>

000b5ba4 <_ZN5spark13EthernetClass10disconnectEv>:
        network_disconnect(*this, NETWORK_DISCONNECT_REASON_USER, NULL);
   b5ba4:	6840      	ldr	r0, [r0, #4]
   b5ba6:	2200      	movs	r2, #0
   b5ba8:	2102      	movs	r1, #2
   b5baa:	f7ff bef9 	b.w	b59a0 <network_disconnect>

000b5bae <_ZN5spark13EthernetClass7connectEj>:
        network_connect(*this, flags, 0, NULL);
   b5bae:	2300      	movs	r3, #0
   b5bb0:	6840      	ldr	r0, [r0, #4]
   b5bb2:	461a      	mov	r2, r3
   b5bb4:	f7ff bee4 	b.w	b5980 <network_connect>

000b5bb8 <_GLOBAL__sub_I__ZN5spark8EthernetE>:
    static NetworkClass& from(network_interface_t nif);

    virtual IPAddress resolve(const char* name);

    explicit NetworkClass(network_interface_t iface)
            : iface_(iface) {
   b5bb8:	4b02      	ldr	r3, [pc, #8]	; (b5bc4 <_GLOBAL__sub_I__ZN5spark8EthernetE+0xc>)
   b5bba:	2203      	movs	r2, #3
   b5bbc:	605a      	str	r2, [r3, #4]
            NetworkClass(NETWORK_INTERFACE_ETHERNET) {
   b5bbe:	4a02      	ldr	r2, [pc, #8]	; (b5bc8 <_GLOBAL__sub_I__ZN5spark8EthernetE+0x10>)
   b5bc0:	601a      	str	r2, [r3, #0]

namespace spark {

EthernetClass Ethernet;

} // spark
   b5bc2:	4770      	bx	lr
   b5bc4:	2003e674 	.word	0x2003e674
   b5bc8:	000bbdfc 	.word	0x000bbdfc

000b5bcc <_ZN8SPIClassC1E19hal_spi_interface_t>:
    }
    return particle::SPISettings(info->clock, info->bit_order, info->data_mode);
}
} // namespace

SPIClass::SPIClass(hal_spi_interface_t spi)
   b5bcc:	b510      	push	{r4, lr}
   b5bce:	4604      	mov	r4, r0
   b5bd0:	4608      	mov	r0, r1
{
    _spi = spi;
   b5bd2:	7021      	strb	r1, [r4, #0]
    hal_spi_init(_spi);
   b5bd4:	f7ff fe30 	bl	b5838 <hal_spi_init>
    _dividerReference = SPI_CLK_SYSTEM; // 0 indicates the system clock
   b5bd8:	2300      	movs	r3, #0
   b5bda:	6063      	str	r3, [r4, #4]
}
   b5bdc:	4620      	mov	r0, r4
   b5bde:	bd10      	pop	{r4, pc}

000b5be0 <_ZN11SystemClass10freeMemoryEv>:
    System.systemSleepResult_ = SystemSleepResult(SleepResult(ret, pins, pins_count));
    return System.systemSleepResult_;
}

uint32_t SystemClass::freeMemory()
{
   b5be0:	b510      	push	{r4, lr}
    runtime_info_t info;
    memset(&info, 0, sizeof(info));
   b5be2:	2420      	movs	r4, #32
{
   b5be4:	b088      	sub	sp, #32
    memset(&info, 0, sizeof(info));
   b5be6:	4622      	mov	r2, r4
   b5be8:	2100      	movs	r1, #0
   b5bea:	4668      	mov	r0, sp
   b5bec:	f003 fdb9 	bl	b9762 <memset>
    info.size = sizeof(info);
    HAL_Core_Runtime_Info(&info, NULL);
   b5bf0:	2100      	movs	r1, #0
   b5bf2:	4668      	mov	r0, sp
    info.size = sizeof(info);
   b5bf4:	f8ad 4000 	strh.w	r4, [sp]
    HAL_Core_Runtime_Info(&info, NULL);
   b5bf8:	f7ff fc84 	bl	b5504 <HAL_Core_Runtime_Info>
    return info.freeheap;
}
   b5bfc:	9801      	ldr	r0, [sp, #4]
   b5bfe:	b008      	add	sp, #32
   b5c00:	bd10      	pop	{r4, pc}
	...

000b5c04 <_GLOBAL__sub_I_System>:
} // namespace particle

// particle::Flag<TagT, ValueT>
template<typename TagT, typename ValueT>
inline particle::Flag<TagT, ValueT>::Flag(ValueT val) :
        val_(val) {
   b5c04:	4b05      	ldr	r3, [pc, #20]	; (b5c1c <_GLOBAL__sub_I_System+0x18>)
   b5c06:	2202      	movs	r2, #2
   b5c08:	601a      	str	r2, [r3, #0]

class SystemSleepResult {
public:
    SystemSleepResult()
            : wakeupSource_(nullptr),
              error_(SYSTEM_ERROR_NONE) {
   b5c0a:	4b05      	ldr	r3, [pc, #20]	; (b5c20 <_GLOBAL__sub_I_System+0x1c>)
    SleepResult() {}
   b5c0c:	4a05      	ldr	r2, [pc, #20]	; (b5c24 <_GLOBAL__sub_I_System+0x20>)
   b5c0e:	609a      	str	r2, [r3, #8]
              error_(SYSTEM_ERROR_NONE) {
   b5c10:	2000      	movs	r0, #0
   b5c12:	e9c3 0000 	strd	r0, r0, [r3]

class SystemClass {
public:

    SystemClass(System_Mode_TypeDef mode = DEFAULT) {
        set_system_mode(mode);
   b5c16:	f7ff be6f 	b.w	b58f8 <set_system_mode>
   b5c1a:	bf00      	nop
   b5c1c:	2003e688 	.word	0x2003e688
   b5c20:	2003e67c 	.word	0x2003e67c
   b5c24:	ffff0000 	.word	0xffff0000

000b5c28 <_Z11str_reversePc>:

//------------------------------------------------------------------------------------------
#define BUFSIZE (sizeof(long) * 8 + 1)

//utility function used by ultoa()
__attribute__((weak)) void str_reverse(char* buffer){
   b5c28:	b510      	push	{r4, lr}
   b5c2a:	4604      	mov	r4, r0
	char *i, *j;
	char c;
	i=buffer;
	j=buffer + strlen(buffer)-1;
   b5c2c:	f003 fe0f 	bl	b984e <strlen>
   b5c30:	3801      	subs	r0, #1
   b5c32:	1823      	adds	r3, r4, r0
   b5c34:	4620      	mov	r0, r4
	while(i<j){
   b5c36:	4283      	cmp	r3, r0
   b5c38:	d906      	bls.n	b5c48 <_Z11str_reversePc+0x20>
		c = *i;
   b5c3a:	7802      	ldrb	r2, [r0, #0]
		*i = *j;
   b5c3c:	7819      	ldrb	r1, [r3, #0]
   b5c3e:	f800 1b01 	strb.w	r1, [r0], #1
		*j = c;
   b5c42:	f803 2901 	strb.w	r2, [r3], #-1
	while(i<j){
   b5c46:	e7f6      	b.n	b5c36 <_Z11str_reversePc+0xe>
		++i;
		--j;
	}
}
   b5c48:	bd10      	pop	{r4, pc}

000b5c4a <ultoa>:
      memcpy(head, ++tail, i);
      return str;
}

//convert unsigned long to string
__attribute__((weak)) char* ultoa(unsigned long a, char* buffer, int radix, char pad){
   b5c4a:	b570      	push	{r4, r5, r6, lr}
   b5c4c:	460c      	mov	r4, r1
	if(radix<2 || radix>36){
   b5c4e:	1e91      	subs	r1, r2, #2
   b5c50:	2922      	cmp	r1, #34	; 0x22
   b5c52:	d81d      	bhi.n	b5c90 <ultoa+0x46>
		return NULL;
	}
	char* ptr=buffer;
   b5c54:	4625      	mov	r5, r4

	div_t result;
	while(a){
   b5c56:	b930      	cbnz	r0, b5c66 <ultoa+0x1c>
                *ptr += 'a'-10;
            }
            ++ptr;
            a = result.quot;
	}
        while (ptr < buffer+pad)
   b5c58:	4423      	add	r3, r4
            *ptr++ = '0';
   b5c5a:	2230      	movs	r2, #48	; 0x30
        while (ptr < buffer+pad)
   b5c5c:	429d      	cmp	r5, r3
   b5c5e:	d210      	bcs.n	b5c82 <ultoa+0x38>
            *ptr++ = '0';
   b5c60:	f805 2b01 	strb.w	r2, [r5], #1
        while (ptr < buffer+pad)
   b5c64:	e7fa      	b.n	b5c5c <ultoa+0x12>
            result.quot = a/radix;
   b5c66:	fbb0 f6f2 	udiv	r6, r0, r2
            result.rem = a%radix;
   b5c6a:	fb02 0016 	mls	r0, r2, r6, r0
            *ptr = result.rem;
   b5c6e:	b2c1      	uxtb	r1, r0
            if(result.rem<10){
   b5c70:	2809      	cmp	r0, #9
                *ptr += '0';
   b5c72:	bf94      	ite	ls
   b5c74:	3130      	addls	r1, #48	; 0x30
                *ptr += 'a'-10;
   b5c76:	3157      	addhi	r1, #87	; 0x57
   b5c78:	b2c9      	uxtb	r1, r1
   b5c7a:	f805 1b01 	strb.w	r1, [r5], #1
            a = result.quot;
   b5c7e:	4630      	mov	r0, r6
	while(a){
   b5c80:	e7e9      	b.n	b5c56 <ultoa+0xc>

	*ptr = '\0';
   b5c82:	2300      	movs	r3, #0
	str_reverse(buffer);
   b5c84:	4620      	mov	r0, r4
	*ptr = '\0';
   b5c86:	702b      	strb	r3, [r5, #0]
	str_reverse(buffer);
   b5c88:	f7ff ffce 	bl	b5c28 <_Z11str_reversePc>
	return buffer;
   b5c8c:	4620      	mov	r0, r4
}
   b5c8e:	bd70      	pop	{r4, r5, r6, pc}
		return NULL;
   b5c90:	2000      	movs	r0, #0
   b5c92:	e7fc      	b.n	b5c8e <ultoa+0x44>

000b5c94 <itoa>:

__attribute__((weak)) char* itoa(int a, char* buffer, int radix){
   b5c94:	b538      	push	{r3, r4, r5, lr}
	if(a<0){
   b5c96:	1e03      	subs	r3, r0, #0
__attribute__((weak)) char* itoa(int a, char* buffer, int radix){
   b5c98:	460c      	mov	r4, r1
   b5c9a:	4615      	mov	r5, r2
	if(a<0){
   b5c9c:	da0e      	bge.n	b5cbc <itoa+0x28>
		*buffer = '-';
		unsigned v = a==INT_MIN ? ((unsigned)INT_MAX+1) : -a;
   b5c9e:	f1b3 4f00 	cmp.w	r3, #2147483648	; 0x80000000
		*buffer = '-';
   b5ca2:	f04f 022d 	mov.w	r2, #45	; 0x2d
		unsigned v = a==INT_MIN ? ((unsigned)INT_MAX+1) : -a;
   b5ca6:	bf14      	ite	ne
   b5ca8:	4258      	negne	r0, r3
   b5caa:	4618      	moveq	r0, r3
		ultoa((unsigned)v, buffer + 1, radix);
   b5cac:	2301      	movs	r3, #1
		*buffer = '-';
   b5cae:	700a      	strb	r2, [r1, #0]
		ultoa((unsigned)v, buffer + 1, radix);
   b5cb0:	462a      	mov	r2, r5
   b5cb2:	4419      	add	r1, r3
	}else{
		ultoa(a, buffer, radix);
   b5cb4:	f7ff ffc9 	bl	b5c4a <ultoa>
	}
	return buffer;
}
   b5cb8:	4620      	mov	r0, r4
   b5cba:	bd38      	pop	{r3, r4, r5, pc}
		ultoa(a, buffer, radix);
   b5cbc:	2301      	movs	r3, #1
   b5cbe:	e7f9      	b.n	b5cb4 <itoa+0x20>

000b5cc0 <_ZN3UDP13receivePacketEPcjm>:
     * @param buffer        The buffer to read data to
     * @param buf_size      The buffer size
     * @return The number of bytes written to the buffer, or a negative value on error.
     */
    virtual int receivePacket(uint8_t* buffer, size_t buf_size, system_tick_t timeout = 0);
    virtual int receivePacket(char* buffer, size_t buf_size, system_tick_t timeout = 0) {
   b5cc0:	b410      	push	{r4}
        return receivePacket((uint8_t*)buffer, buf_size, timeout);
   b5cc2:	6804      	ldr	r4, [r0, #0]
   b5cc4:	6b24      	ldr	r4, [r4, #48]	; 0x30
   b5cc6:	46a4      	mov	ip, r4
    }
   b5cc8:	f85d 4b04 	ldr.w	r4, [sp], #4
        return receivePacket((uint8_t*)buffer, buf_size, timeout);
   b5ccc:	4760      	bx	ip

000b5cce <_ZN3UDP4readEPcj>:
     * @return
     */
    virtual int read();
    virtual int read(unsigned char* buffer, size_t len);

    virtual int read(char* buffer, size_t len) { return read((unsigned char*)buffer, len); };
   b5cce:	6803      	ldr	r3, [r0, #0]
   b5cd0:	6c9b      	ldr	r3, [r3, #72]	; 0x48
   b5cd2:	4718      	bx	r3

000b5cd4 <_ZN3UDP10remotePortEv>:
    void flush_buffer();

    const uint8_t* buffer() const { return _buffer; }

    virtual IPAddress remoteIP() { return _remoteIP; };
    virtual uint16_t remotePort() { return _remotePort; };
   b5cd4:	8e80      	ldrh	r0, [r0, #52]	; 0x34
   b5cd6:	4770      	bx	lr

000b5cd8 <_ZN3UDP9availableEv>:
    }
    return bound;
}

int UDP::available() {
    return _total - _offset;
   b5cd8:	8f02      	ldrh	r2, [r0, #56]	; 0x38
   b5cda:	8ec0      	ldrh	r0, [r0, #54]	; 0x36
}
   b5cdc:	1a10      	subs	r0, r2, r0
   b5cde:	4770      	bx	lr

000b5ce0 <_ZN3UDP9endPacketEv>:
    _remotePort = port;
    flush_buffer(); // clear buffer
    return _buffer_size;
}

int UDP::endPacket() {
   b5ce0:	b5f0      	push	{r4, r5, r6, r7, lr}
    int result = sendPacket(_buffer, _offset, _remoteIP, _remotePort);
   b5ce2:	6803      	ldr	r3, [r0, #0]
int UDP::endPacket() {
   b5ce4:	b089      	sub	sp, #36	; 0x24
    int result = sendPacket(_buffer, _offset, _remoteIP, _remotePort);
   b5ce6:	6a9f      	ldr	r7, [r3, #40]	; 0x28

/**
 * The IP address stored in host order.
 *
 */
class IPAddress : public Printable {
   b5ce8:	4b0c      	ldr	r3, [pc, #48]	; (b5d1c <_ZN3UDP9endPacketEv+0x3c>)
   b5cea:	9302      	str	r3, [sp, #8]
   b5cec:	f100 0620 	add.w	r6, r0, #32
int UDP::endPacket() {
   b5cf0:	4604      	mov	r4, r0
   b5cf2:	ce0f      	ldmia	r6!, {r0, r1, r2, r3}
   b5cf4:	ad03      	add	r5, sp, #12
   b5cf6:	c50f      	stmia	r5!, {r0, r1, r2, r3}
   b5cf8:	6833      	ldr	r3, [r6, #0]
   b5cfa:	702b      	strb	r3, [r5, #0]
    int result = sendPacket(_buffer, _offset, _remoteIP, _remotePort);
   b5cfc:	8ea3      	ldrh	r3, [r4, #52]	; 0x34
   b5cfe:	8ee2      	ldrh	r2, [r4, #54]	; 0x36
   b5d00:	6be1      	ldr	r1, [r4, #60]	; 0x3c
   b5d02:	9300      	str	r3, [sp, #0]
   b5d04:	4620      	mov	r0, r4
   b5d06:	ab02      	add	r3, sp, #8
   b5d08:	47b8      	blx	r7
    flush(); // wait for send to complete
   b5d0a:	6823      	ldr	r3, [r4, #0]
    int result = sendPacket(_buffer, _offset, _remoteIP, _remotePort);
   b5d0c:	4605      	mov	r5, r0
    flush(); // wait for send to complete
   b5d0e:	69db      	ldr	r3, [r3, #28]
   b5d10:	4620      	mov	r0, r4
   b5d12:	4798      	blx	r3
    return result;
}
   b5d14:	4628      	mov	r0, r5
   b5d16:	b009      	add	sp, #36	; 0x24
   b5d18:	bdf0      	pop	{r4, r5, r6, r7, pc}
   b5d1a:	bf00      	nop
   b5d1c:	000bc0c4 	.word	0x000bc0c4

000b5d20 <_ZN3UDP5writeEh>:
    }

    return sock_sendto(_sock, buffer, buffer_size, 0, (const struct sockaddr*)&s, sizeof(s));
}

size_t UDP::write(uint8_t byte) {
   b5d20:	b507      	push	{r0, r1, r2, lr}
    return write(&byte, 1);
   b5d22:	6803      	ldr	r3, [r0, #0]
size_t UDP::write(uint8_t byte) {
   b5d24:	f88d 1007 	strb.w	r1, [sp, #7]
    return write(&byte, 1);
   b5d28:	68db      	ldr	r3, [r3, #12]
   b5d2a:	2201      	movs	r2, #1
   b5d2c:	f10d 0107 	add.w	r1, sp, #7
   b5d30:	4798      	blx	r3
}
   b5d32:	b003      	add	sp, #12
   b5d34:	f85d fb04 	ldr.w	pc, [sp], #4

000b5d38 <_ZN3UDP4readEv>:
        }
    }
    return ret;
}

int UDP::read() {
   b5d38:	b510      	push	{r4, lr}
    return available() ? _buffer[_offset++] : -1;
   b5d3a:	6803      	ldr	r3, [r0, #0]
   b5d3c:	691b      	ldr	r3, [r3, #16]
int UDP::read() {
   b5d3e:	4604      	mov	r4, r0
    return available() ? _buffer[_offset++] : -1;
   b5d40:	4798      	blx	r3
   b5d42:	b128      	cbz	r0, b5d50 <_ZN3UDP4readEv+0x18>
   b5d44:	8ee3      	ldrh	r3, [r4, #54]	; 0x36
   b5d46:	6be2      	ldr	r2, [r4, #60]	; 0x3c
   b5d48:	1c59      	adds	r1, r3, #1
   b5d4a:	86e1      	strh	r1, [r4, #54]	; 0x36
   b5d4c:	5cd0      	ldrb	r0, [r2, r3]
}
   b5d4e:	bd10      	pop	{r4, pc}
    return available() ? _buffer[_offset++] : -1;
   b5d50:	f04f 30ff 	mov.w	r0, #4294967295
   b5d54:	e7fb      	b.n	b5d4e <_ZN3UDP4readEv+0x16>

000b5d56 <_ZN3UDP4peekEv>:
        _offset += read;
    }
    return read;
}

int UDP::peek() {
   b5d56:	b510      	push	{r4, lr}
    return available() ? _buffer[_offset] : -1;
   b5d58:	6803      	ldr	r3, [r0, #0]
   b5d5a:	691b      	ldr	r3, [r3, #16]
int UDP::peek() {
   b5d5c:	4604      	mov	r4, r0
    return available() ? _buffer[_offset] : -1;
   b5d5e:	4798      	blx	r3
   b5d60:	b118      	cbz	r0, b5d6a <_ZN3UDP4peekEv+0x14>
   b5d62:	8ee3      	ldrh	r3, [r4, #54]	; 0x36
   b5d64:	6be2      	ldr	r2, [r4, #60]	; 0x3c
   b5d66:	5cd0      	ldrb	r0, [r2, r3]
}
   b5d68:	bd10      	pop	{r4, pc}
    return available() ? _buffer[_offset] : -1;
   b5d6a:	f04f 30ff 	mov.w	r0, #4294967295
   b5d6e:	e7fb      	b.n	b5d68 <_ZN3UDP4peekEv+0x12>

000b5d70 <_ZN3UDP5flushEv>:

void UDP::flush() {
}
   b5d70:	4770      	bx	lr

000b5d72 <_ZNK3UDP7printToER5Print>:
void UDP::flush_buffer() {
    _offset = 0;
    _total = 0;
}

size_t UDP::printTo(Print& p) const {
   b5d72:	b410      	push	{r4}
   b5d74:	4603      	mov	r3, r0
   b5d76:	4608      	mov	r0, r1
    // can't use available() since this is a `const` method, and available is part of the Stream interface, and is non-const.
    int size = _total - _offset;
    return p.write(_buffer + _offset, size);
   b5d78:	6bdc      	ldr	r4, [r3, #60]	; 0x3c
    int size = _total - _offset;
   b5d7a:	8ed9      	ldrh	r1, [r3, #54]	; 0x36
   b5d7c:	8f1a      	ldrh	r2, [r3, #56]	; 0x38
    return p.write(_buffer + _offset, size);
   b5d7e:	6803      	ldr	r3, [r0, #0]
   b5d80:	1a52      	subs	r2, r2, r1
   b5d82:	68db      	ldr	r3, [r3, #12]
   b5d84:	4421      	add	r1, r4
}
   b5d86:	f85d 4b04 	ldr.w	r4, [sp], #4
    return p.write(_buffer + _offset, size);
   b5d8a:	4718      	bx	r3

000b5d8c <_ZThn16_NK3UDP7printToER5Print>:
    /**
     * Prints the current read parsed packet to the given output.
     * @param p
     * @return
     */
    virtual size_t printTo(Print& p) const;
   b5d8c:	f1a0 0010 	sub.w	r0, r0, #16
   b5d90:	f7ff bfef 	b.w	b5d72 <_ZNK3UDP7printToER5Print>

000b5d94 <_ZN3UDP5beginEtm>:
uint8_t UDP::begin(uint16_t port, network_interface_t nif) {
   b5d94:	b570      	push	{r4, r5, r6, lr}
    stop();
   b5d96:	6803      	ldr	r3, [r0, #0]
uint8_t UDP::begin(uint16_t port, network_interface_t nif) {
   b5d98:	b08c      	sub	sp, #48	; 0x30
    stop();
   b5d9a:	6a5b      	ldr	r3, [r3, #36]	; 0x24
uint8_t UDP::begin(uint16_t port, network_interface_t nif) {
   b5d9c:	4604      	mov	r4, r0
   b5d9e:	460e      	mov	r6, r1
   b5da0:	4615      	mov	r5, r2
    stop();
   b5da2:	4798      	blx	r3
    const int one = 1;
   b5da4:	2301      	movs	r3, #1
    struct sockaddr_in6 saddr = {};
   b5da6:	221c      	movs	r2, #28
   b5da8:	2100      	movs	r1, #0
   b5daa:	a805      	add	r0, sp, #20
    const int one = 1;
   b5dac:	9302      	str	r3, [sp, #8]
    struct sockaddr_in6 saddr = {};
   b5dae:	f003 fcd8 	bl	b9762 <memset>
    saddr.sin6_len = sizeof(saddr);
   b5db2:	f640 231c 	movw	r3, #2588	; 0xa1c
    saddr.sin6_port = htons(port);
   b5db6:	4630      	mov	r0, r6
    saddr.sin6_len = sizeof(saddr);
   b5db8:	f8ad 3014 	strh.w	r3, [sp, #20]
    saddr.sin6_port = htons(port);
   b5dbc:	f7ff fc8c 	bl	b56d8 <inet_htons>
    _sock = sock_socket(HAL_IPv6 ? AF_INET6 : AF_INET, SOCK_DGRAM, IPPROTO_UDP);
   b5dc0:	2211      	movs	r2, #17
    saddr.sin6_port = htons(port);
   b5dc2:	f8ad 0016 	strh.w	r0, [sp, #22]
    _sock = sock_socket(HAL_IPv6 ? AF_INET6 : AF_INET, SOCK_DGRAM, IPPROTO_UDP);
   b5dc6:	2102      	movs	r1, #2
   b5dc8:	200a      	movs	r0, #10
   b5dca:	f7ff fd2d 	bl	b5828 <sock_socket>
    if (_sock < 0) {
   b5dce:	2800      	cmp	r0, #0
    _sock = sock_socket(HAL_IPv6 ? AF_INET6 : AF_INET, SOCK_DGRAM, IPPROTO_UDP);
   b5dd0:	6160      	str	r0, [r4, #20]
    if (_sock < 0) {
   b5dd2:	db25      	blt.n	b5e20 <_ZN3UDP5beginEtm+0x8c>
    if (sock_setsockopt(_sock, SOL_SOCKET, SO_REUSEADDR, &one, sizeof(one))) {
   b5dd4:	2204      	movs	r2, #4
   b5dd6:	9200      	str	r2, [sp, #0]
   b5dd8:	ab02      	add	r3, sp, #8
   b5dda:	f640 71ff 	movw	r1, #4095	; 0xfff
   b5dde:	f7ff fd03 	bl	b57e8 <sock_setsockopt>
   b5de2:	b9e8      	cbnz	r0, b5e20 <_ZN3UDP5beginEtm+0x8c>
    if (nif != 0) {
   b5de4:	b195      	cbz	r5, b5e0c <_ZN3UDP5beginEtm+0x78>
        struct ifreq ifr = {};
   b5de6:	9003      	str	r0, [sp, #12]
   b5de8:	f8ad 0010 	strh.w	r0, [sp, #16]
        if (if_index_to_name(nif, ifr.ifr_name)) {
   b5dec:	a903      	add	r1, sp, #12
   b5dee:	b2e8      	uxtb	r0, r5
   b5df0:	f7ff fb58 	bl	b54a4 <if_index_to_name>
   b5df4:	b9a0      	cbnz	r0, b5e20 <_ZN3UDP5beginEtm+0x8c>
        if (sock_setsockopt(_sock, SOL_SOCKET, SO_BINDTODEVICE, &ifr, sizeof(ifr))) {
   b5df6:	2306      	movs	r3, #6
   b5df8:	9300      	str	r3, [sp, #0]
   b5dfa:	6960      	ldr	r0, [r4, #20]
   b5dfc:	ab03      	add	r3, sp, #12
   b5dfe:	f241 020b 	movw	r2, #4107	; 0x100b
   b5e02:	f640 71ff 	movw	r1, #4095	; 0xfff
   b5e06:	f7ff fcef 	bl	b57e8 <sock_setsockopt>
   b5e0a:	b948      	cbnz	r0, b5e20 <_ZN3UDP5beginEtm+0x8c>
    if (sock_bind(_sock, (const struct sockaddr*)&saddr, sizeof(saddr))) {
   b5e0c:	6960      	ldr	r0, [r4, #20]
   b5e0e:	221c      	movs	r2, #28
   b5e10:	a905      	add	r1, sp, #20
   b5e12:	f7ff fce1 	bl	b57d8 <sock_bind>
   b5e16:	b918      	cbnz	r0, b5e20 <_ZN3UDP5beginEtm+0x8c>
    _nif = nif;
   b5e18:	6465      	str	r5, [r4, #68]	; 0x44
    bound = true;
   b5e1a:	2001      	movs	r0, #1
}
   b5e1c:	b00c      	add	sp, #48	; 0x30
   b5e1e:	bd70      	pop	{r4, r5, r6, pc}
        stop();
   b5e20:	6823      	ldr	r3, [r4, #0]
   b5e22:	4620      	mov	r0, r4
   b5e24:	6a5b      	ldr	r3, [r3, #36]	; 0x24
   b5e26:	4798      	blx	r3
   b5e28:	2000      	movs	r0, #0
   b5e2a:	e7f7      	b.n	b5e1c <_ZN3UDP5beginEtm+0x88>

000b5e2c <_ZN3UDP4stopEv>:
void UDP::stop() {
   b5e2c:	b510      	push	{r4, lr}
   b5e2e:	4604      	mov	r4, r0
    if (isOpen(_sock)) {
   b5e30:	6940      	ldr	r0, [r0, #20]
   b5e32:	2800      	cmp	r0, #0
   b5e34:	db01      	blt.n	b5e3a <_ZN3UDP4stopEv+0xe>
        sock_close(_sock);
   b5e36:	f7ff fcdf 	bl	b57f8 <sock_close>
    _sock = -1;
   b5e3a:	f04f 33ff 	mov.w	r3, #4294967295
   b5e3e:	6163      	str	r3, [r4, #20]
    _offset = 0;
   b5e40:	2300      	movs	r3, #0
   b5e42:	86e3      	strh	r3, [r4, #54]	; 0x36
    _total = 0;
   b5e44:	8723      	strh	r3, [r4, #56]	; 0x38
}
   b5e46:	bd10      	pop	{r4, pc}

000b5e48 <_ZN3UDP5writeEPKhj>:
size_t UDP::write(const uint8_t *buffer, size_t size) {
   b5e48:	b570      	push	{r4, r5, r6, lr}
   b5e4a:	4605      	mov	r5, r0
    size_t available = _buffer ? _buffer_size - _offset : 0;
   b5e4c:	6bc0      	ldr	r0, [r0, #60]	; 0x3c
   b5e4e:	8eee      	ldrh	r6, [r5, #54]	; 0x36
   b5e50:	b168      	cbz	r0, b5e6e <_ZN3UDP5writeEPKhj+0x26>
   b5e52:	6c2b      	ldr	r3, [r5, #64]	; 0x40
   b5e54:	1b9c      	subs	r4, r3, r6
    if (size > available) {
   b5e56:	4294      	cmp	r4, r2
   b5e58:	bf28      	it	cs
   b5e5a:	4614      	movcs	r4, r2
    memcpy(_buffer + _offset, buffer, size);
   b5e5c:	4622      	mov	r2, r4
   b5e5e:	4430      	add	r0, r6
   b5e60:	f003 fc57 	bl	b9712 <memcpy>
    _offset += size;
   b5e64:	8eeb      	ldrh	r3, [r5, #54]	; 0x36
   b5e66:	4423      	add	r3, r4
   b5e68:	86eb      	strh	r3, [r5, #54]	; 0x36
}
   b5e6a:	4620      	mov	r0, r4
   b5e6c:	bd70      	pop	{r4, r5, r6, pc}
    size_t available = _buffer ? _buffer_size - _offset : 0;
   b5e6e:	4604      	mov	r4, r0
   b5e70:	e7f1      	b.n	b5e56 <_ZN3UDP5writeEPKhj+0xe>

000b5e72 <_ZN3UDP4readEPhj>:
int UDP::read(unsigned char* buffer, size_t len) {
   b5e72:	b5d0      	push	{r4, r6, r7, lr}
    if (available()) {
   b5e74:	6803      	ldr	r3, [r0, #0]
   b5e76:	691b      	ldr	r3, [r3, #16]
int UDP::read(unsigned char* buffer, size_t len) {
   b5e78:	4604      	mov	r4, r0
   b5e7a:	460f      	mov	r7, r1
   b5e7c:	4616      	mov	r6, r2
    if (available()) {
   b5e7e:	4798      	blx	r3
   b5e80:	b190      	cbz	r0, b5ea8 <_ZN3UDP4readEPhj+0x36>
        read = min(int(len), available());
   b5e82:	6823      	ldr	r3, [r4, #0]
   b5e84:	4620      	mov	r0, r4
   b5e86:	691b      	ldr	r3, [r3, #16]
   b5e88:	4798      	blx	r3
        memcpy(buffer, &_buffer[_offset], read);
   b5e8a:	8ee3      	ldrh	r3, [r4, #54]	; 0x36
   b5e8c:	6be1      	ldr	r1, [r4, #60]	; 0x3c
   b5e8e:	4286      	cmp	r6, r0
   b5e90:	bfa8      	it	ge
   b5e92:	4606      	movge	r6, r0
   b5e94:	4419      	add	r1, r3
   b5e96:	4632      	mov	r2, r6
   b5e98:	4638      	mov	r0, r7
   b5e9a:	f003 fc3a 	bl	b9712 <memcpy>
        _offset += read;
   b5e9e:	8ee3      	ldrh	r3, [r4, #54]	; 0x36
   b5ea0:	4433      	add	r3, r6
   b5ea2:	86e3      	strh	r3, [r4, #54]	; 0x36
}
   b5ea4:	4630      	mov	r0, r6
   b5ea6:	bdd0      	pop	{r4, r6, r7, pc}
    int read = -1;
   b5ea8:	f04f 36ff 	mov.w	r6, #4294967295
    return read;
   b5eac:	e7fa      	b.n	b5ea4 <_ZN3UDP4readEPhj+0x32>

000b5eae <_ZN9IPAddressaSIPKhEERS_T_.isra.0>:
    void set_ipv4(uint8_t b0, uint8_t b1, uint8_t b2, uint8_t b3);


    // Overloaded copy operators to allow initialisation of IPAddress objects from other types
    template<typename T>
    IPAddress& operator=(T address) {
   b5eae:	b530      	push	{r4, r5, lr}
   b5eb0:	b087      	sub	sp, #28
   b5eb2:	4604      	mov	r4, r0
class IPAddress : public Printable {
   b5eb4:	ad01      	add	r5, sp, #4
        return *this = IPAddress(address);
   b5eb6:	4668      	mov	r0, sp
   b5eb8:	f002 fa44 	bl	b8344 <_ZN9IPAddressC1EPKh>
class IPAddress : public Printable {
   b5ebc:	cd0f      	ldmia	r5!, {r0, r1, r2, r3}
   b5ebe:	3404      	adds	r4, #4
   b5ec0:	c40f      	stmia	r4!, {r0, r1, r2, r3}
   b5ec2:	682b      	ldr	r3, [r5, #0]
   b5ec4:	7023      	strb	r3, [r4, #0]
    }
   b5ec6:	b007      	add	sp, #28
   b5ec8:	bd30      	pop	{r4, r5, pc}
	...

000b5ecc <_ZN3UDP10sendPacketEPKcj9IPAddresst>:
    virtual int sendPacket(const char* buffer, size_t buffer_size, IPAddress destination, uint16_t port) {
   b5ecc:	b5f0      	push	{r4, r5, r6, r7, lr}
   b5ece:	4696      	mov	lr, r2
        return sendPacket((uint8_t*)buffer, buffer_size, destination, port);
   b5ed0:	6802      	ldr	r2, [r0, #0]
    virtual int sendPacket(const char* buffer, size_t buffer_size, IPAddress destination, uint16_t port) {
   b5ed2:	b089      	sub	sp, #36	; 0x24
        return sendPacket((uint8_t*)buffer, buffer_size, destination, port);
   b5ed4:	6a97      	ldr	r7, [r2, #40]	; 0x28
class IPAddress : public Printable {
   b5ed6:	4a0a      	ldr	r2, [pc, #40]	; (b5f00 <_ZN3UDP10sendPacketEPKcj9IPAddresst+0x34>)
   b5ed8:	9202      	str	r2, [sp, #8]
   b5eda:	1d1c      	adds	r4, r3, #4
    virtual int sendPacket(const char* buffer, size_t buffer_size, IPAddress destination, uint16_t port) {
   b5edc:	468c      	mov	ip, r1
   b5ede:	4606      	mov	r6, r0
   b5ee0:	cc0f      	ldmia	r4!, {r0, r1, r2, r3}
   b5ee2:	ad03      	add	r5, sp, #12
   b5ee4:	c50f      	stmia	r5!, {r0, r1, r2, r3}
   b5ee6:	6823      	ldr	r3, [r4, #0]
   b5ee8:	702b      	strb	r3, [r5, #0]
        return sendPacket((uint8_t*)buffer, buffer_size, destination, port);
   b5eea:	f8bd 3038 	ldrh.w	r3, [sp, #56]	; 0x38
   b5eee:	9300      	str	r3, [sp, #0]
   b5ef0:	4672      	mov	r2, lr
   b5ef2:	ab02      	add	r3, sp, #8
   b5ef4:	4661      	mov	r1, ip
   b5ef6:	4630      	mov	r0, r6
   b5ef8:	47b8      	blx	r7
    }
   b5efa:	b009      	add	sp, #36	; 0x24
   b5efc:	bdf0      	pop	{r4, r5, r6, r7, pc}
   b5efe:	bf00      	nop
   b5f00:	000bc0c4 	.word	0x000bc0c4

000b5f04 <_ZN3UDP8remoteIPEv>:
    virtual IPAddress remoteIP() { return _remoteIP; };
   b5f04:	b570      	push	{r4, r5, r6, lr}
   b5f06:	4604      	mov	r4, r0
   b5f08:	4b05      	ldr	r3, [pc, #20]	; (b5f20 <_ZN3UDP8remoteIPEv+0x1c>)
   b5f0a:	f844 3b04 	str.w	r3, [r4], #4
   b5f0e:	f101 0520 	add.w	r5, r1, #32
   b5f12:	4606      	mov	r6, r0
   b5f14:	cd0f      	ldmia	r5!, {r0, r1, r2, r3}
   b5f16:	c40f      	stmia	r4!, {r0, r1, r2, r3}
   b5f18:	682b      	ldr	r3, [r5, #0]
   b5f1a:	7023      	strb	r3, [r4, #0]
   b5f1c:	4630      	mov	r0, r6
   b5f1e:	bd70      	pop	{r4, r5, r6, pc}
   b5f20:	000bc0c4 	.word	0x000bc0c4

000b5f24 <_ZN5spark6detail23sockaddrToIpAddressPortEPK8sockaddrR9IPAddressPt>:

namespace spark {

namespace detail {

inline void sockaddrToIpAddressPort(const struct sockaddr* saddr, IPAddress& addr, uint16_t* port) {
   b5f24:	b5f0      	push	{r4, r5, r6, r7, lr}
    if (saddr->sa_family == AF_INET) {
   b5f26:	7843      	ldrb	r3, [r0, #1]
   b5f28:	2b02      	cmp	r3, #2
inline void sockaddrToIpAddressPort(const struct sockaddr* saddr, IPAddress& addr, uint16_t* port) {
   b5f2a:	b08d      	sub	sp, #52	; 0x34
   b5f2c:	4605      	mov	r5, r0
   b5f2e:	460c      	mov	r4, r1
   b5f30:	4617      	mov	r7, r2
    if (saddr->sa_family == AF_INET) {
   b5f32:	d104      	bne.n	b5f3e <_ZN5spark6detail23sockaddrToIpAddressPortEPK8sockaddrR9IPAddressPt+0x1a>
        const struct sockaddr_in* inaddr = (const struct sockaddr_in*)saddr;
        addr = (const uint8_t*)(&inaddr->sin_addr.s_addr);
   b5f34:	1d01      	adds	r1, r0, #4
            memcpy(a.ipv6, in6addr->sin6_addr.s6_addr, sizeof(a.ipv6));
            a.v = 6;
            addr = IPAddress(a);
        } else {
            auto ptr = (const uint32_t*)(in6addr->sin6_addr.s6_addr);
            addr = (const uint8_t*)(&ptr[3]);
   b5f36:	4620      	mov	r0, r4
   b5f38:	f7ff ffb9 	bl	b5eae <_ZN9IPAddressaSIPKhEERS_T_.isra.0>
   b5f3c:	e022      	b.n	b5f84 <_ZN5spark6detail23sockaddrToIpAddressPortEPK8sockaddrR9IPAddressPt+0x60>
    else if (saddr->sa_family == AF_INET6) {
   b5f3e:	2b0a      	cmp	r3, #10
   b5f40:	d125      	bne.n	b5f8e <_ZN5spark6detail23sockaddrToIpAddressPortEPK8sockaddrR9IPAddressPt+0x6a>
        HAL_IPAddress a = {};
   b5f42:	2211      	movs	r2, #17
   b5f44:	2100      	movs	r1, #0
   b5f46:	a801      	add	r0, sp, #4
   b5f48:	f003 fc0b 	bl	b9762 <memset>
        if (!IN6_IS_ADDR_V4MAPPED(&in6addr->sin6_addr)) {
   b5f4c:	68ab      	ldr	r3, [r5, #8]
   b5f4e:	b303      	cbz	r3, b5f92 <_ZN5spark6detail23sockaddrToIpAddressPortEPK8sockaddrR9IPAddressPt+0x6e>
            memcpy(a.ipv6, in6addr->sin6_addr.s6_addr, sizeof(a.ipv6));
   b5f50:	f105 0308 	add.w	r3, r5, #8
   b5f54:	ae01      	add	r6, sp, #4
   b5f56:	f105 0c18 	add.w	ip, r5, #24
   b5f5a:	6818      	ldr	r0, [r3, #0]
   b5f5c:	6859      	ldr	r1, [r3, #4]
   b5f5e:	4632      	mov	r2, r6
   b5f60:	c203      	stmia	r2!, {r0, r1}
   b5f62:	3308      	adds	r3, #8
   b5f64:	4563      	cmp	r3, ip
   b5f66:	4616      	mov	r6, r2
   b5f68:	d1f7      	bne.n	b5f5a <_ZN5spark6detail23sockaddrToIpAddressPortEPK8sockaddrR9IPAddressPt+0x36>
            a.v = 6;
   b5f6a:	2306      	movs	r3, #6
            addr = IPAddress(a);
   b5f6c:	a901      	add	r1, sp, #4
   b5f6e:	a806      	add	r0, sp, #24
   b5f70:	ae07      	add	r6, sp, #28
            a.v = 6;
   b5f72:	f88d 3014 	strb.w	r3, [sp, #20]
            addr = IPAddress(a);
   b5f76:	f002 f9a7 	bl	b82c8 <_ZN9IPAddressC1ERK16_HAL_IPAddress_t>
   b5f7a:	ce0f      	ldmia	r6!, {r0, r1, r2, r3}
   b5f7c:	3404      	adds	r4, #4
   b5f7e:	c40f      	stmia	r4!, {r0, r1, r2, r3}
   b5f80:	6833      	ldr	r3, [r6, #0]
   b5f82:	7023      	strb	r3, [r4, #0]
        }
        if (port) {
   b5f84:	b11f      	cbz	r7, b5f8e <_ZN5spark6detail23sockaddrToIpAddressPortEPK8sockaddrR9IPAddressPt+0x6a>
            *port = ntohs(in6addr->sin6_port);
   b5f86:	8868      	ldrh	r0, [r5, #2]
   b5f88:	f7ff fb9e 	bl	b56c8 <inet_ntohs>
   b5f8c:	8038      	strh	r0, [r7, #0]
        }
    }
#endif // HAL_IPv6
}
   b5f8e:	b00d      	add	sp, #52	; 0x34
   b5f90:	bdf0      	pop	{r4, r5, r6, r7, pc}
        if (!IN6_IS_ADDR_V4MAPPED(&in6addr->sin6_addr)) {
   b5f92:	68eb      	ldr	r3, [r5, #12]
   b5f94:	2b00      	cmp	r3, #0
   b5f96:	d1db      	bne.n	b5f50 <_ZN5spark6detail23sockaddrToIpAddressPortEPK8sockaddrR9IPAddressPt+0x2c>
   b5f98:	f64f 70ff 	movw	r0, #65535	; 0xffff
   b5f9c:	692e      	ldr	r6, [r5, #16]
   b5f9e:	f7ff fb8b 	bl	b56b8 <inet_htonl>
   b5fa2:	4286      	cmp	r6, r0
   b5fa4:	d1d4      	bne.n	b5f50 <_ZN5spark6detail23sockaddrToIpAddressPortEPK8sockaddrR9IPAddressPt+0x2c>
            addr = (const uint8_t*)(&ptr[3]);
   b5fa6:	f105 0114 	add.w	r1, r5, #20
   b5faa:	e7c4      	b.n	b5f36 <_ZN5spark6detail23sockaddrToIpAddressPortEPK8sockaddrR9IPAddressPt+0x12>

000b5fac <_ZN3UDP11beginPacketEPKct>:
int UDP::beginPacket(const char *host, uint16_t port) {
   b5fac:	e92d 41f0 	stmdb	sp!, {r4, r5, r6, r7, r8, lr}
   b5fb0:	4617      	mov	r7, r2
   b5fb2:	b08e      	sub	sp, #56	; 0x38
    struct addrinfo* ais = nullptr;
   b5fb4:	2200      	movs	r2, #0
int UDP::beginPacket(const char *host, uint16_t port) {
   b5fb6:	4606      	mov	r6, r0
    CHECK(netdb_getaddrinfo(host, nullptr, nullptr, &ais));
   b5fb8:	ab01      	add	r3, sp, #4
int UDP::beginPacket(const char *host, uint16_t port) {
   b5fba:	4608      	mov	r0, r1
    CHECK(netdb_getaddrinfo(host, nullptr, nullptr, &ais));
   b5fbc:	4611      	mov	r1, r2
    struct addrinfo* ais = nullptr;
   b5fbe:	9201      	str	r2, [sp, #4]
    CHECK(netdb_getaddrinfo(host, nullptr, nullptr, &ais));
   b5fc0:	f7ff fa50 	bl	b5464 <netdb_getaddrinfo>
   b5fc4:	1e04      	subs	r4, r0, #0
   b5fc6:	db20      	blt.n	b600a <_ZN3UDP11beginPacketEPKct+0x5e>
    if (ais && ais->ai_addr) {
   b5fc8:	9b01      	ldr	r3, [sp, #4]
   b5fca:	b32b      	cbz	r3, b6018 <_ZN3UDP11beginPacketEPKct+0x6c>
   b5fcc:	695b      	ldr	r3, [r3, #20]
   b5fce:	b31b      	cbz	r3, b6018 <_ZN3UDP11beginPacketEPKct+0x6c>
        IPAddress addr;
   b5fd0:	a802      	add	r0, sp, #8
   b5fd2:	f002 f96b 	bl	b82ac <_ZN9IPAddressC1Ev>
        detail::sockaddrToIpAddressPort(ais->ai_addr, addr, nullptr);
   b5fd6:	9b01      	ldr	r3, [sp, #4]
   b5fd8:	2200      	movs	r2, #0
   b5fda:	6958      	ldr	r0, [r3, #20]
   b5fdc:	a902      	add	r1, sp, #8
   b5fde:	f7ff ffa1 	bl	b5f24 <_ZN5spark6detail23sockaddrToIpAddressPortEPK8sockaddrR9IPAddressPt>
        return static_cast<const IPAddress*>(this)->operator bool();
   b5fe2:	a802      	add	r0, sp, #8
   b5fe4:	f002 f98a 	bl	b82fc <_ZNK9IPAddresscvbEv>
        if (addr) {
   b5fe8:	b1b0      	cbz	r0, b6018 <_ZN3UDP11beginPacketEPKct+0x6c>
            return beginPacket(addr, port);
   b5fea:	6833      	ldr	r3, [r6, #0]
class IPAddress : public Printable {
   b5fec:	ad03      	add	r5, sp, #12
   b5fee:	f8d3 8038 	ldr.w	r8, [r3, #56]	; 0x38
   b5ff2:	4b0b      	ldr	r3, [pc, #44]	; (b6020 <_ZN3UDP11beginPacketEPKct+0x74>)
   b5ff4:	9308      	str	r3, [sp, #32]
   b5ff6:	cd0f      	ldmia	r5!, {r0, r1, r2, r3}
   b5ff8:	ac09      	add	r4, sp, #36	; 0x24
   b5ffa:	c40f      	stmia	r4!, {r0, r1, r2, r3}
   b5ffc:	682b      	ldr	r3, [r5, #0]
   b5ffe:	7023      	strb	r3, [r4, #0]
   b6000:	463a      	mov	r2, r7
   b6002:	a908      	add	r1, sp, #32
   b6004:	4630      	mov	r0, r6
   b6006:	47c0      	blx	r8
   b6008:	4604      	mov	r4, r0
    SCOPE_GUARD({
   b600a:	9801      	ldr	r0, [sp, #4]
   b600c:	f7ff fa22 	bl	b5454 <netdb_freeaddrinfo>
}
   b6010:	4620      	mov	r0, r4
   b6012:	b00e      	add	sp, #56	; 0x38
   b6014:	e8bd 81f0 	ldmia.w	sp!, {r4, r5, r6, r7, r8, pc}
    return -1;
   b6018:	f04f 34ff 	mov.w	r4, #4294967295
   b601c:	e7f5      	b.n	b600a <_ZN3UDP11beginPacketEPKct+0x5e>
   b601e:	bf00      	nop
   b6020:	000bc0c4 	.word	0x000bc0c4

000b6024 <_ZN3UDP13receivePacketEPhjm>:
int UDP::receivePacket(uint8_t* buffer, size_t size, system_tick_t timeout) {
   b6024:	e92d 47f0 	stmdb	sp!, {r4, r5, r6, r7, r8, r9, sl, lr}
    if (isOpen(_sock) && buffer) {
   b6028:	f8d0 9014 	ldr.w	r9, [r0, #20]
   b602c:	f1b9 0f00 	cmp.w	r9, #0
int UDP::receivePacket(uint8_t* buffer, size_t size, system_tick_t timeout) {
   b6030:	b090      	sub	sp, #64	; 0x40
   b6032:	4605      	mov	r5, r0
   b6034:	460e      	mov	r6, r1
   b6036:	4690      	mov	r8, r2
   b6038:	461c      	mov	r4, r3
    if (isOpen(_sock) && buffer) {
   b603a:	db3c      	blt.n	b60b6 <_ZN3UDP13receivePacketEPhjm+0x92>
   b603c:	2900      	cmp	r1, #0
   b603e:	d03a      	beq.n	b60b6 <_ZN3UDP13receivePacketEPhjm+0x92>
        sockaddr_storage saddr = {};
   b6040:	f04f 0a1c 	mov.w	sl, #28
   b6044:	af09      	add	r7, sp, #36	; 0x24
   b6046:	4652      	mov	r2, sl
   b6048:	2100      	movs	r1, #0
   b604a:	4638      	mov	r0, r7
   b604c:	f003 fb89 	bl	b9762 <memset>
        socklen_t slen = sizeof(saddr);
   b6050:	f8cd a00c 	str.w	sl, [sp, #12]
        if (timeout == 0) {
   b6054:	b1dc      	cbz	r4, b608e <_ZN3UDP13receivePacketEPhjm+0x6a>
            tv.tv_sec = timeout / 1000;
   b6056:	f44f 737a 	mov.w	r3, #1000	; 0x3e8
   b605a:	fbb4 f2f3 	udiv	r2, r4, r3
            tv.tv_usec = (timeout % 1000) * 1000;
   b605e:	fb03 4412 	mls	r4, r3, r2, r4
            struct timeval tv = {};
   b6062:	2100      	movs	r1, #0
            tv.tv_usec = (timeout % 1000) * 1000;
   b6064:	435c      	muls	r4, r3
            ret = sock_setsockopt(_sock, SOL_SOCKET, SO_RCVTIMEO, &tv, sizeof(tv));
   b6066:	2310      	movs	r3, #16
            tv.tv_sec = timeout / 1000;
   b6068:	e9cd 2104 	strd	r2, r1, [sp, #16]
            struct timeval tv = {};
   b606c:	9107      	str	r1, [sp, #28]
            ret = sock_setsockopt(_sock, SOL_SOCKET, SO_RCVTIMEO, &tv, sizeof(tv));
   b606e:	9300      	str	r3, [sp, #0]
   b6070:	f241 0206 	movw	r2, #4102	; 0x1006
   b6074:	446b      	add	r3, sp
   b6076:	f640 71ff 	movw	r1, #4095	; 0xfff
   b607a:	4648      	mov	r0, r9
            tv.tv_usec = (timeout % 1000) * 1000;
   b607c:	9406      	str	r4, [sp, #24]
            ret = sock_setsockopt(_sock, SOL_SOCKET, SO_RCVTIMEO, &tv, sizeof(tv));
   b607e:	f7ff fbb3 	bl	b57e8 <sock_setsockopt>
            if (ret) {
   b6082:	4604      	mov	r4, r0
   b6084:	b120      	cbz	r0, b6090 <_ZN3UDP13receivePacketEPhjm+0x6c>
}
   b6086:	4620      	mov	r0, r4
   b6088:	b010      	add	sp, #64	; 0x40
   b608a:	e8bd 87f0 	ldmia.w	sp!, {r4, r5, r6, r7, r8, r9, sl, pc}
            flags = MSG_DONTWAIT;
   b608e:	2408      	movs	r4, #8
        ret = sock_recvfrom(_sock, buffer, size, flags, (struct sockaddr*)&saddr, &slen);
   b6090:	ab03      	add	r3, sp, #12
   b6092:	e9cd 7300 	strd	r7, r3, [sp]
   b6096:	6968      	ldr	r0, [r5, #20]
   b6098:	4623      	mov	r3, r4
   b609a:	4642      	mov	r2, r8
   b609c:	4631      	mov	r1, r6
   b609e:	f7ff fbb3 	bl	b5808 <sock_recvfrom>
        if (ret >= 0) {
   b60a2:	1e04      	subs	r4, r0, #0
   b60a4:	dbef      	blt.n	b6086 <_ZN3UDP13receivePacketEPhjm+0x62>
            detail::sockaddrToIpAddressPort((const struct sockaddr*)&saddr, _remoteIP, &_remotePort);
   b60a6:	f105 0234 	add.w	r2, r5, #52	; 0x34
   b60aa:	f105 011c 	add.w	r1, r5, #28
   b60ae:	4638      	mov	r0, r7
   b60b0:	f7ff ff38 	bl	b5f24 <_ZN5spark6detail23sockaddrToIpAddressPortEPK8sockaddrR9IPAddressPt>
            LOG_DEBUG(TRACE, "received %d bytes from %s#%d", ret, _remoteIP.toString().c_str(), _remotePort);
   b60b4:	e7e7      	b.n	b6086 <_ZN3UDP13receivePacketEPhjm+0x62>
    int ret = -1;
   b60b6:	f04f 34ff 	mov.w	r4, #4294967295
   b60ba:	e7e4      	b.n	b6086 <_ZN3UDP13receivePacketEPhjm+0x62>

000b60bc <_ZN5spark6detail23ipAddressPortToSockaddrERK9IPAddresstP8sockaddr>:

inline void ipAddressPortToSockaddr(const IPAddress& addr, uint16_t port, struct sockaddr* saddr) {
   b60bc:	b538      	push	{r3, r4, r5, lr}
   b60be:	4605      	mov	r5, r0
   b60c0:	4614      	mov	r4, r2

    String toString() const { return String(*this); }

    uint8_t version() const {
#if HAL_IPv6
    		return address.v;
   b60c2:	7d2b      	ldrb	r3, [r5, #20]
    if (addr.version() == 6) {
   b60c4:	2b06      	cmp	r3, #6
inline void ipAddressPortToSockaddr(const IPAddress& addr, uint16_t port, struct sockaddr* saddr) {
   b60c6:	4608      	mov	r0, r1
    if (addr.version() == 6) {
   b60c8:	d110      	bne.n	b60ec <_ZN5spark6detail23ipAddressPortToSockaddrERK9IPAddresstP8sockaddr+0x30>
        struct sockaddr_in6* in6addr = (struct sockaddr_in6*)saddr;
        in6addr->sin6_len = sizeof(sockaddr_in6);
   b60ca:	f640 231c 	movw	r3, #2588	; 0xa1c
   b60ce:	8013      	strh	r3, [r2, #0]
        in6addr->sin6_family = AF_INET6;
        in6addr->sin6_port = htons(port);
   b60d0:	f7ff fb02 	bl	b56d8 <inet_htons>
        const auto& a = addr.raw();
        memcpy(in6addr->sin6_addr.s6_addr, a.ipv6, sizeof(a.ipv6));
   b60d4:	3408      	adds	r4, #8
   b60d6:	1d2b      	adds	r3, r5, #4
        in6addr->sin6_port = htons(port);
   b60d8:	f824 0c06 	strh.w	r0, [r4, #-6]
        memcpy(in6addr->sin6_addr.s6_addr, a.ipv6, sizeof(a.ipv6));
   b60dc:	3514      	adds	r5, #20
   b60de:	f853 2b04 	ldr.w	r2, [r3], #4
   b60e2:	f844 2b04 	str.w	r2, [r4], #4
   b60e6:	42ab      	cmp	r3, r5
   b60e8:	d1f9      	bne.n	b60de <_ZN5spark6detail23ipAddressPortToSockaddrERK9IPAddresstP8sockaddr+0x22>
        const auto& a = addr.raw();
        // NOTE: HAL_IPAddress.ipv4 is host-order :|
        inaddr->sin_addr.s_addr = htonl(a.ipv4);
    }
#endif // HAL_IPv6
}
   b60ea:	bd38      	pop	{r3, r4, r5, pc}
    else if (addr.version() == 4) {
   b60ec:	2b04      	cmp	r3, #4
   b60ee:	d1fc      	bne.n	b60ea <_ZN5spark6detail23ipAddressPortToSockaddrERK9IPAddresstP8sockaddr+0x2e>
        inaddr->sin_len = sizeof(sockaddr_in);
   b60f0:	f44f 7304 	mov.w	r3, #528	; 0x210
   b60f4:	8013      	strh	r3, [r2, #0]
        inaddr->sin_port = htons(port);
   b60f6:	f7ff faef 	bl	b56d8 <inet_htons>
   b60fa:	8060      	strh	r0, [r4, #2]
        inaddr->sin_addr.s_addr = htonl(a.ipv4);
   b60fc:	6868      	ldr	r0, [r5, #4]
   b60fe:	f7ff fadb 	bl	b56b8 <inet_htonl>
   b6102:	6060      	str	r0, [r4, #4]
}
   b6104:	e7f1      	b.n	b60ea <_ZN5spark6detail23ipAddressPortToSockaddrERK9IPAddresstP8sockaddr+0x2e>

000b6106 <_ZN3UDP10sendPacketEPKhj9IPAddresst>:
int UDP::sendPacket(const uint8_t* buffer, size_t buffer_size, IPAddress remoteIP, uint16_t port) {
   b6106:	e92d 43f0 	stmdb	sp!, {r4, r5, r6, r7, r8, r9, lr}
   b610a:	b08b      	sub	sp, #44	; 0x2c
	sockaddr_storage s = {};
   b610c:	af03      	add	r7, sp, #12
   b610e:	f04f 091c 	mov.w	r9, #28
int UDP::sendPacket(const uint8_t* buffer, size_t buffer_size, IPAddress remoteIP, uint16_t port) {
   b6112:	4698      	mov	r8, r3
   b6114:	4604      	mov	r4, r0
   b6116:	460d      	mov	r5, r1
   b6118:	4616      	mov	r6, r2
	sockaddr_storage s = {};
   b611a:	2100      	movs	r1, #0
   b611c:	464a      	mov	r2, r9
   b611e:	4638      	mov	r0, r7
   b6120:	f003 fb1f 	bl	b9762 <memset>
    detail::ipAddressPortToSockaddr(remoteIP, port, (struct sockaddr*)&s);
   b6124:	f8bd 1048 	ldrh.w	r1, [sp, #72]	; 0x48
   b6128:	463a      	mov	r2, r7
   b612a:	4640      	mov	r0, r8
   b612c:	f7ff ffc6 	bl	b60bc <_ZN5spark6detail23ipAddressPortToSockaddrERK9IPAddresstP8sockaddr>
    if (s.ss_family == AF_UNSPEC) {
   b6130:	f89d 300d 	ldrb.w	r3, [sp, #13]
   b6134:	b153      	cbz	r3, b614c <_ZN3UDP10sendPacketEPKhj9IPAddresst+0x46>
    return sock_sendto(_sock, buffer, buffer_size, 0, (const struct sockaddr*)&s, sizeof(s));
   b6136:	e9cd 7900 	strd	r7, r9, [sp]
   b613a:	6960      	ldr	r0, [r4, #20]
   b613c:	2300      	movs	r3, #0
   b613e:	4632      	mov	r2, r6
   b6140:	4629      	mov	r1, r5
   b6142:	f7ff fb69 	bl	b5818 <sock_sendto>
}
   b6146:	b00b      	add	sp, #44	; 0x2c
   b6148:	e8bd 83f0 	ldmia.w	sp!, {r4, r5, r6, r7, r8, r9, pc}
        return -1;
   b614c:	f04f 30ff 	mov.w	r0, #4294967295
   b6150:	e7f9      	b.n	b6146 <_ZN3UDP10sendPacketEPKhj9IPAddresst+0x40>
	...

000b6154 <_ZN3UDPC1Ev>:
UDP::UDP()
   b6154:	b538      	push	{r3, r4, r5, lr}
    virtual int available() = 0;
    virtual int read() = 0;
    virtual int peek() = 0;
    virtual void flush() = 0;

    Stream() {_timeout=1000;}
   b6156:	2500      	movs	r5, #0
   b6158:	f44f 737a 	mov.w	r3, #1000	; 0x3e8
   b615c:	e9c0 5301 	strd	r5, r3, [r0, #4]
          _buffer_allocated(false) {
   b6160:	4b0b      	ldr	r3, [pc, #44]	; (b6190 <_ZN3UDPC1Ev+0x3c>)
   b6162:	f103 0208 	add.w	r2, r3, #8
   b6166:	336c      	adds	r3, #108	; 0x6c
   b6168:	6103      	str	r3, [r0, #16]
   b616a:	f04f 33ff 	mov.w	r3, #4294967295
UDP::UDP()
   b616e:	4604      	mov	r4, r0
          _buffer_allocated(false) {
   b6170:	6002      	str	r2, [r0, #0]
   b6172:	6143      	str	r3, [r0, #20]
   b6174:	301c      	adds	r0, #28
   b6176:	f002 f899 	bl	b82ac <_ZN9IPAddressC1Ev>
   b617a:	f44f 7300 	mov.w	r3, #512	; 0x200
   b617e:	e9c4 3510 	strd	r3, r5, [r4, #64]	; 0x40
   b6182:	86e5      	strh	r5, [r4, #54]	; 0x36
   b6184:	8725      	strh	r5, [r4, #56]	; 0x38
   b6186:	63e5      	str	r5, [r4, #60]	; 0x3c
   b6188:	f884 5048 	strb.w	r5, [r4, #72]	; 0x48
}
   b618c:	4620      	mov	r0, r4
   b618e:	bd38      	pop	{r3, r4, r5, pc}
   b6190:	000bbe30 	.word	0x000bbe30

000b6194 <_ZN3UDP13releaseBufferEv>:
void UDP::releaseBuffer() {
   b6194:	b510      	push	{r4, lr}
    if (_buffer_allocated && _buffer) {
   b6196:	f890 3048 	ldrb.w	r3, [r0, #72]	; 0x48
void UDP::releaseBuffer() {
   b619a:	4604      	mov	r4, r0
    if (_buffer_allocated && _buffer) {
   b619c:	b123      	cbz	r3, b61a8 <_ZN3UDP13releaseBufferEv+0x14>
   b619e:	6bc0      	ldr	r0, [r0, #60]	; 0x3c
   b61a0:	b110      	cbz	r0, b61a8 <_ZN3UDP13releaseBufferEv+0x14>
        delete _buffer;
   b61a2:	2101      	movs	r1, #1
   b61a4:	f7fd ff7b 	bl	b409e <_ZdlPvj>
    _buffer = NULL;
   b61a8:	2300      	movs	r3, #0
   b61aa:	63e3      	str	r3, [r4, #60]	; 0x3c
    _buffer_allocated = false;
   b61ac:	f884 3048 	strb.w	r3, [r4, #72]	; 0x48
    _buffer_size = 0;
   b61b0:	6423      	str	r3, [r4, #64]	; 0x40
    _offset = 0;
   b61b2:	86e3      	strh	r3, [r4, #54]	; 0x36
    _total = 0;
   b61b4:	8723      	strh	r3, [r4, #56]	; 0x38
}
   b61b6:	bd10      	pop	{r4, pc}

000b61b8 <_ZN3UDP9setBufferEjPh>:
bool UDP::setBuffer(size_t buf_size, uint8_t* buffer) {
   b61b8:	b570      	push	{r4, r5, r6, lr}
   b61ba:	4604      	mov	r4, r0
   b61bc:	4616      	mov	r6, r2
   b61be:	460d      	mov	r5, r1
    releaseBuffer();
   b61c0:	f7ff ffe8 	bl	b6194 <_ZN3UDP13releaseBufferEv>
    _buffer_size = 0;
   b61c4:	2300      	movs	r3, #0
    _buffer = buffer;
   b61c6:	63e6      	str	r6, [r4, #60]	; 0x3c
    _buffer_size = 0;
   b61c8:	6423      	str	r3, [r4, #64]	; 0x40
    if (!_buffer && buf_size) {         // requested allocation
   b61ca:	b12e      	cbz	r6, b61d8 <_ZN3UDP9setBufferEjPh+0x20>
        _buffer_size = buf_size;
   b61cc:	6425      	str	r5, [r4, #64]	; 0x40
    return _buffer_size;
   b61ce:	6c20      	ldr	r0, [r4, #64]	; 0x40
}
   b61d0:	3800      	subs	r0, #0
   b61d2:	bf18      	it	ne
   b61d4:	2001      	movne	r0, #1
   b61d6:	bd70      	pop	{r4, r5, r6, pc}
    if (!_buffer && buf_size) {         // requested allocation
   b61d8:	2d00      	cmp	r5, #0
   b61da:	d0f8      	beq.n	b61ce <_ZN3UDP9setBufferEjPh+0x16>
        _buffer = new uint8_t[buf_size];
   b61dc:	4628      	mov	r0, r5
   b61de:	f7fd ff5c 	bl	b409a <_Znaj>
        _buffer_allocated = true;
   b61e2:	2301      	movs	r3, #1
        _buffer = new uint8_t[buf_size];
   b61e4:	63e0      	str	r0, [r4, #60]	; 0x3c
        _buffer_allocated = true;
   b61e6:	f884 3048 	strb.w	r3, [r4, #72]	; 0x48
    if (_buffer) {
   b61ea:	2800      	cmp	r0, #0
   b61ec:	d0ef      	beq.n	b61ce <_ZN3UDP9setBufferEjPh+0x16>
   b61ee:	e7ed      	b.n	b61cc <_ZN3UDP9setBufferEjPh+0x14>

000b61f0 <_ZN3UDP11beginPacketE9IPAddresst>:
int UDP::beginPacket(IPAddress ip, uint16_t port) {
   b61f0:	b5f8      	push	{r3, r4, r5, r6, r7, lr}
   b61f2:	4617      	mov	r7, r2
    if (!_buffer && _buffer_size) {
   b61f4:	6bc2      	ldr	r2, [r0, #60]	; 0x3c
int UDP::beginPacket(IPAddress ip, uint16_t port) {
   b61f6:	4605      	mov	r5, r0
   b61f8:	460c      	mov	r4, r1
    if (!_buffer && _buffer_size) {
   b61fa:	b91a      	cbnz	r2, b6204 <_ZN3UDP11beginPacketE9IPAddresst+0x14>
   b61fc:	6c01      	ldr	r1, [r0, #64]	; 0x40
   b61fe:	b109      	cbz	r1, b6204 <_ZN3UDP11beginPacketE9IPAddresst+0x14>
        setBuffer(_buffer_size);
   b6200:	f7ff ffda 	bl	b61b8 <_ZN3UDP9setBufferEjPh>
class IPAddress : public Printable {
   b6204:	3404      	adds	r4, #4
   b6206:	cc0f      	ldmia	r4!, {r0, r1, r2, r3}
   b6208:	f105 0620 	add.w	r6, r5, #32
   b620c:	c60f      	stmia	r6!, {r0, r1, r2, r3}
   b620e:	6823      	ldr	r3, [r4, #0]
   b6210:	7033      	strb	r3, [r6, #0]
    _offset = 0;
   b6212:	2300      	movs	r3, #0
}
   b6214:	6c28      	ldr	r0, [r5, #64]	; 0x40
    _remotePort = port;
   b6216:	86af      	strh	r7, [r5, #52]	; 0x34
    _offset = 0;
   b6218:	86eb      	strh	r3, [r5, #54]	; 0x36
    _total = 0;
   b621a:	872b      	strh	r3, [r5, #56]	; 0x38
}
   b621c:	bdf8      	pop	{r3, r4, r5, r6, r7, pc}

000b621e <_ZN3UDP11parsePacketEm>:
int UDP::parsePacket(system_tick_t timeout) {
   b621e:	b537      	push	{r0, r1, r2, r4, r5, lr}
    if (!_buffer && _buffer_size) {
   b6220:	6bc2      	ldr	r2, [r0, #60]	; 0x3c
int UDP::parsePacket(system_tick_t timeout) {
   b6222:	4604      	mov	r4, r0
   b6224:	460b      	mov	r3, r1
    if (!_buffer && _buffer_size) {
   b6226:	b92a      	cbnz	r2, b6234 <_ZN3UDP11parsePacketEm+0x16>
   b6228:	6c01      	ldr	r1, [r0, #64]	; 0x40
   b622a:	b119      	cbz	r1, b6234 <_ZN3UDP11parsePacketEm+0x16>
   b622c:	9301      	str	r3, [sp, #4]
        setBuffer(_buffer_size);
   b622e:	f7ff ffc3 	bl	b61b8 <_ZN3UDP9setBufferEjPh>
   b6232:	9b01      	ldr	r3, [sp, #4]
    if (_buffer && _buffer_size) {
   b6234:	6be1      	ldr	r1, [r4, #60]	; 0x3c
    _offset = 0;
   b6236:	2200      	movs	r2, #0
   b6238:	86e2      	strh	r2, [r4, #54]	; 0x36
    _total = 0;
   b623a:	8722      	strh	r2, [r4, #56]	; 0x38
    if (_buffer && _buffer_size) {
   b623c:	b141      	cbz	r1, b6250 <_ZN3UDP11parsePacketEm+0x32>
   b623e:	6c22      	ldr	r2, [r4, #64]	; 0x40
   b6240:	b132      	cbz	r2, b6250 <_ZN3UDP11parsePacketEm+0x32>
        int result = receivePacket(_buffer, _buffer_size, timeout);
   b6242:	6820      	ldr	r0, [r4, #0]
   b6244:	6b05      	ldr	r5, [r0, #48]	; 0x30
   b6246:	4620      	mov	r0, r4
   b6248:	47a8      	blx	r5
        if (result > 0) {
   b624a:	2800      	cmp	r0, #0
            _total = result;
   b624c:	bfc8      	it	gt
   b624e:	8720      	strhgt	r0, [r4, #56]	; 0x38
    return available();
   b6250:	6823      	ldr	r3, [r4, #0]
   b6252:	691b      	ldr	r3, [r3, #16]
   b6254:	4620      	mov	r0, r4
}
   b6256:	b003      	add	sp, #12
   b6258:	e8bd 4030 	ldmia.w	sp!, {r4, r5, lr}
    return available();
   b625c:	4718      	bx	r3
	...

000b6260 <_ZN3UDPD1Ev>:
    virtual ~UDP() { stop(); releaseBuffer(); }
   b6260:	b510      	push	{r4, lr}
   b6262:	4b07      	ldr	r3, [pc, #28]	; (b6280 <_ZN3UDPD1Ev+0x20>)
   b6264:	f103 0208 	add.w	r2, r3, #8
   b6268:	336c      	adds	r3, #108	; 0x6c
   b626a:	4604      	mov	r4, r0
   b626c:	6002      	str	r2, [r0, #0]
   b626e:	6103      	str	r3, [r0, #16]
   b6270:	f7ff fddc 	bl	b5e2c <_ZN3UDP4stopEv>
   b6274:	4620      	mov	r0, r4
   b6276:	f7ff ff8d 	bl	b6194 <_ZN3UDP13releaseBufferEv>
   b627a:	4620      	mov	r0, r4
   b627c:	bd10      	pop	{r4, pc}
   b627e:	bf00      	nop
   b6280:	000bbe30 	.word	0x000bbe30

000b6284 <_ZN3UDPD0Ev>:
   b6284:	b510      	push	{r4, lr}
   b6286:	4604      	mov	r4, r0
   b6288:	f7ff ffea 	bl	b6260 <_ZN3UDPD1Ev>
   b628c:	4620      	mov	r0, r4
   b628e:	214c      	movs	r1, #76	; 0x4c
   b6290:	f7fd ff05 	bl	b409e <_ZdlPvj>
   b6294:	4620      	mov	r0, r4
   b6296:	bd10      	pop	{r4, pc}

000b6298 <_ZN6StringD1Ev>:
	init();
	char buf[33];
	dtoa(value, decimalPlaces, buf);
        *this = buf;
}
String::~String()
   b6298:	b510      	push	{r4, lr}
   b629a:	4604      	mov	r4, r0
{
	free(buffer);
   b629c:	6800      	ldr	r0, [r0, #0]
   b629e:	f7ff fc07 	bl	b5ab0 <free>
}
   b62a2:	4620      	mov	r0, r4
   b62a4:	bd10      	pop	{r4, pc}

000b62a6 <_ZN6String10invalidateEv>:
	len = 0;
	flags = 0;
}

void String::invalidate(void)
{
   b62a6:	b510      	push	{r4, lr}
   b62a8:	4604      	mov	r4, r0
	if (buffer) free(buffer);
   b62aa:	6800      	ldr	r0, [r0, #0]
   b62ac:	b108      	cbz	r0, b62b2 <_ZN6String10invalidateEv+0xc>
   b62ae:	f7ff fbff 	bl	b5ab0 <free>
	buffer = NULL;
   b62b2:	2300      	movs	r3, #0
	capacity = len = 0;
   b62b4:	e9c4 3301 	strd	r3, r3, [r4, #4]
	buffer = NULL;
   b62b8:	6023      	str	r3, [r4, #0]
}
   b62ba:	bd10      	pop	{r4, pc}

000b62bc <_ZN6String12changeBufferEj>:
	}
	return 0;
}

unsigned char String::changeBuffer(unsigned int maxStrLen)
{
   b62bc:	b538      	push	{r3, r4, r5, lr}
   b62be:	4604      	mov	r4, r0
   b62c0:	460d      	mov	r5, r1
	char *newbuffer = (char *)realloc(buffer, maxStrLen + 1);
   b62c2:	6800      	ldr	r0, [r0, #0]
   b62c4:	3101      	adds	r1, #1
   b62c6:	f7ff fbfb 	bl	b5ac0 <realloc>
	if (newbuffer) {
   b62ca:	b110      	cbz	r0, b62d2 <_ZN6String12changeBufferEj+0x16>
		buffer = newbuffer;
		capacity = maxStrLen;
   b62cc:	e9c4 0500 	strd	r0, r5, [r4]
		return 1;
   b62d0:	2001      	movs	r0, #1
	}
	return 0;
}
   b62d2:	bd38      	pop	{r3, r4, r5, pc}

000b62d4 <_ZN6String7reserveEj>:
{
   b62d4:	b510      	push	{r4, lr}
	if (buffer && capacity >= size) return 1;
   b62d6:	6803      	ldr	r3, [r0, #0]
{
   b62d8:	4604      	mov	r4, r0
	if (buffer && capacity >= size) return 1;
   b62da:	b123      	cbz	r3, b62e6 <_ZN6String7reserveEj+0x12>
   b62dc:	6843      	ldr	r3, [r0, #4]
   b62de:	428b      	cmp	r3, r1
   b62e0:	d301      	bcc.n	b62e6 <_ZN6String7reserveEj+0x12>
   b62e2:	2001      	movs	r0, #1
}
   b62e4:	bd10      	pop	{r4, pc}
	if (changeBuffer(size)) {
   b62e6:	4620      	mov	r0, r4
   b62e8:	f7ff ffe8 	bl	b62bc <_ZN6String12changeBufferEj>
   b62ec:	2800      	cmp	r0, #0
   b62ee:	d0f9      	beq.n	b62e4 <_ZN6String7reserveEj+0x10>
		if (len == 0) buffer[0] = 0;
   b62f0:	68a3      	ldr	r3, [r4, #8]
   b62f2:	2b00      	cmp	r3, #0
   b62f4:	d1f5      	bne.n	b62e2 <_ZN6String7reserveEj+0xe>
   b62f6:	6822      	ldr	r2, [r4, #0]
   b62f8:	7013      	strb	r3, [r2, #0]
   b62fa:	e7f2      	b.n	b62e2 <_ZN6String7reserveEj+0xe>

000b62fc <_ZN6String4copyEPKcj>:
/*********************************************/
/*  Copy and Move                            */
/*********************************************/

String & String::copy(const char *cstr, unsigned int length)
{
   b62fc:	b537      	push	{r0, r1, r2, r4, r5, lr}
   b62fe:	460d      	mov	r5, r1
	if (!reserve(length)) {
   b6300:	4611      	mov	r1, r2
   b6302:	9201      	str	r2, [sp, #4]
{
   b6304:	4604      	mov	r4, r0
	if (!reserve(length)) {
   b6306:	f7ff ffe5 	bl	b62d4 <_ZN6String7reserveEj>
   b630a:	9a01      	ldr	r2, [sp, #4]
   b630c:	b928      	cbnz	r0, b631a <_ZN6String4copyEPKcj+0x1e>
		invalidate();
   b630e:	4620      	mov	r0, r4
   b6310:	f7ff ffc9 	bl	b62a6 <_ZN6String10invalidateEv>
	}
	len = length;
	memcpy(buffer, cstr, length);
	buffer[len] = 0;
	return *this;
}
   b6314:	4620      	mov	r0, r4
   b6316:	b003      	add	sp, #12
   b6318:	bd30      	pop	{r4, r5, pc}
	len = length;
   b631a:	60a2      	str	r2, [r4, #8]
	memcpy(buffer, cstr, length);
   b631c:	4629      	mov	r1, r5
   b631e:	6820      	ldr	r0, [r4, #0]
   b6320:	f003 f9f7 	bl	b9712 <memcpy>
	buffer[len] = 0;
   b6324:	6822      	ldr	r2, [r4, #0]
   b6326:	68a3      	ldr	r3, [r4, #8]
   b6328:	2100      	movs	r1, #0
   b632a:	54d1      	strb	r1, [r2, r3]
	return *this;
   b632c:	e7f2      	b.n	b6314 <_ZN6String4copyEPKcj+0x18>

000b632e <_ZN6StringC1EPK19__FlashStringHelper>:
	buffer = NULL;
   b632e:	2300      	movs	r3, #0
String::String(const __FlashStringHelper *pstr)
   b6330:	b513      	push	{r0, r1, r4, lr}
	capacity = 0;
   b6332:	e9c0 3300 	strd	r3, r3, [r0]
String::String(const __FlashStringHelper *pstr)
   b6336:	4604      	mov	r4, r0
	len = 0;
   b6338:	6083      	str	r3, [r0, #8]
	flags = 0;
   b633a:	7303      	strb	r3, [r0, #12]
	if (cstr) copy(cstr, strlen(cstr));
   b633c:	b141      	cbz	r1, b6350 <_ZN6StringC1EPK19__FlashStringHelper+0x22>
	if (cstr) copy(cstr, strlen(cstr));
   b633e:	4608      	mov	r0, r1
   b6340:	9101      	str	r1, [sp, #4]
   b6342:	f003 fa84 	bl	b984e <strlen>
   b6346:	9901      	ldr	r1, [sp, #4]
   b6348:	4602      	mov	r2, r0
   b634a:	4620      	mov	r0, r4
   b634c:	f7ff ffd6 	bl	b62fc <_ZN6String4copyEPKcj>
}
   b6350:	4620      	mov	r0, r4
   b6352:	b002      	add	sp, #8
   b6354:	bd10      	pop	{r4, pc}

000b6356 <_ZN6String4moveERS_>:
    return copy(reinterpret_cast<const char*>(pstr), length);
}

#ifdef __GXX_EXPERIMENTAL_CXX0X__
void String::move(String &rhs)
{
   b6356:	b538      	push	{r3, r4, r5, lr}
   b6358:	4605      	mov	r5, r0
	if (buffer) {
   b635a:	6800      	ldr	r0, [r0, #0]
{
   b635c:	460c      	mov	r4, r1
	if (buffer) {
   b635e:	b168      	cbz	r0, b637c <_ZN6String4moveERS_+0x26>
		if (capacity >= rhs.len) {
   b6360:	686a      	ldr	r2, [r5, #4]
   b6362:	688b      	ldr	r3, [r1, #8]
   b6364:	429a      	cmp	r2, r3
   b6366:	d307      	bcc.n	b6378 <_ZN6String4moveERS_+0x22>
			strcpy(buffer, rhs.buffer);
   b6368:	6809      	ldr	r1, [r1, #0]
   b636a:	f003 fa4a 	bl	b9802 <strcpy>
			len = rhs.len;
   b636e:	68a3      	ldr	r3, [r4, #8]
   b6370:	60ab      	str	r3, [r5, #8]
			rhs.len = 0;
   b6372:	2300      	movs	r3, #0
	buffer = rhs.buffer;
	capacity = rhs.capacity;
	len = rhs.len;
	rhs.buffer = NULL;
	rhs.capacity = 0;
	rhs.len = 0;
   b6374:	60a3      	str	r3, [r4, #8]
}
   b6376:	bd38      	pop	{r3, r4, r5, pc}
			free(buffer);
   b6378:	f7ff fb9a 	bl	b5ab0 <free>
	buffer = rhs.buffer;
   b637c:	6823      	ldr	r3, [r4, #0]
   b637e:	602b      	str	r3, [r5, #0]
	capacity = rhs.capacity;
   b6380:	6863      	ldr	r3, [r4, #4]
   b6382:	606b      	str	r3, [r5, #4]
	len = rhs.len;
   b6384:	68a3      	ldr	r3, [r4, #8]
   b6386:	60ab      	str	r3, [r5, #8]
	rhs.buffer = NULL;
   b6388:	2300      	movs	r3, #0
	rhs.capacity = 0;
   b638a:	e9c4 3300 	strd	r3, r3, [r4]
   b638e:	e7f1      	b.n	b6374 <_ZN6String4moveERS_+0x1e>

000b6390 <_ZN6StringaSERKS_>:
#endif

String & String::operator = (const String &rhs)
{
	if (this == &rhs) return *this;
   b6390:	4288      	cmp	r0, r1
{
   b6392:	b510      	push	{r4, lr}
   b6394:	4604      	mov	r4, r0
	if (this == &rhs) return *this;
   b6396:	d005      	beq.n	b63a4 <_ZN6StringaSERKS_+0x14>

	if (rhs.buffer) copy(rhs.buffer, rhs.len);
   b6398:	680b      	ldr	r3, [r1, #0]
   b639a:	b12b      	cbz	r3, b63a8 <_ZN6StringaSERKS_+0x18>
   b639c:	688a      	ldr	r2, [r1, #8]
   b639e:	4619      	mov	r1, r3
   b63a0:	f7ff ffac 	bl	b62fc <_ZN6String4copyEPKcj>
	else invalidate();

	return *this;
}
   b63a4:	4620      	mov	r0, r4
   b63a6:	bd10      	pop	{r4, pc}
	else invalidate();
   b63a8:	f7ff ff7d 	bl	b62a6 <_ZN6String10invalidateEv>
   b63ac:	e7fa      	b.n	b63a4 <_ZN6StringaSERKS_+0x14>

000b63ae <_ZN6StringC1ERKS_>:
String::String(const String &value)
   b63ae:	b510      	push	{r4, lr}
	buffer = NULL;
   b63b0:	2300      	movs	r3, #0
String::String(const String &value)
   b63b2:	4604      	mov	r4, r0
	capacity = 0;
   b63b4:	e9c0 3300 	strd	r3, r3, [r0]
	len = 0;
   b63b8:	6083      	str	r3, [r0, #8]
	flags = 0;
   b63ba:	7303      	strb	r3, [r0, #12]
	*this = value;
   b63bc:	f7ff ffe8 	bl	b6390 <_ZN6StringaSERKS_>
}
   b63c0:	4620      	mov	r0, r4
   b63c2:	bd10      	pop	{r4, pc}

000b63c4 <_ZN6StringaSEOS_>:
}

#ifdef __GXX_EXPERIMENTAL_CXX0X__
String & String::operator = (String &&rval)
{
	if (this != &rval) move(rval);
   b63c4:	4288      	cmp	r0, r1
{
   b63c6:	b510      	push	{r4, lr}
   b63c8:	4604      	mov	r4, r0
	if (this != &rval) move(rval);
   b63ca:	d001      	beq.n	b63d0 <_ZN6StringaSEOS_+0xc>
   b63cc:	f7ff ffc3 	bl	b6356 <_ZN6String4moveERS_>
	return *this;
}
   b63d0:	4620      	mov	r0, r4
   b63d2:	bd10      	pop	{r4, pc}

000b63d4 <_ZN6StringaSEPKc>:
	return *this;
}
#endif

String & String::operator = (const char *cstr)
{
   b63d4:	b513      	push	{r0, r1, r4, lr}
   b63d6:	4604      	mov	r4, r0
	if (cstr) copy(cstr, strlen(cstr));
   b63d8:	b159      	cbz	r1, b63f2 <_ZN6StringaSEPKc+0x1e>
   b63da:	4608      	mov	r0, r1
   b63dc:	9101      	str	r1, [sp, #4]
   b63de:	f003 fa36 	bl	b984e <strlen>
   b63e2:	9901      	ldr	r1, [sp, #4]
   b63e4:	4602      	mov	r2, r0
   b63e6:	4620      	mov	r0, r4
   b63e8:	f7ff ff88 	bl	b62fc <_ZN6String4copyEPKcj>
	else invalidate();

	return *this;
}
   b63ec:	4620      	mov	r0, r4
   b63ee:	b002      	add	sp, #8
   b63f0:	bd10      	pop	{r4, pc}
	else invalidate();
   b63f2:	f7ff ff58 	bl	b62a6 <_ZN6String10invalidateEv>
   b63f6:	e7f9      	b.n	b63ec <_ZN6StringaSEPKc+0x18>

000b63f8 <_ZN6StringC1Eih>:
String::String(int value, unsigned char base)
   b63f8:	b510      	push	{r4, lr}
   b63fa:	4604      	mov	r4, r0
   b63fc:	b08a      	sub	sp, #40	; 0x28
	buffer = NULL;
   b63fe:	2300      	movs	r3, #0
	capacity = 0;
   b6400:	e9c4 3300 	strd	r3, r3, [r4]
	len = 0;
   b6404:	60a3      	str	r3, [r4, #8]
	flags = 0;
   b6406:	7323      	strb	r3, [r4, #12]
String::String(int value, unsigned char base)
   b6408:	4608      	mov	r0, r1
	itoa(value, buf, base);
   b640a:	a901      	add	r1, sp, #4
   b640c:	f7ff fc42 	bl	b5c94 <itoa>
	*this = buf;
   b6410:	a901      	add	r1, sp, #4
   b6412:	4620      	mov	r0, r4
   b6414:	f7ff ffde 	bl	b63d4 <_ZN6StringaSEPKc>
}
   b6418:	4620      	mov	r0, r4
   b641a:	b00a      	add	sp, #40	; 0x28
   b641c:	bd10      	pop	{r4, pc}

000b641e <_ZN6String6concatEPKcj>:
{
	return concat(s.buffer, s.len);
}

unsigned char String::concat(const char *cstr, unsigned int length)
{
   b641e:	b570      	push	{r4, r5, r6, lr}
   b6420:	4605      	mov	r5, r0
	unsigned int newlen = len + length;
	if (!cstr) return 0;
   b6422:	460e      	mov	r6, r1
   b6424:	b909      	cbnz	r1, b642a <_ZN6String6concatEPKcj+0xc>
   b6426:	2000      	movs	r0, #0
	if (length == 0) return 1;
	if (!reserve(newlen)) return 0;
	strcpy(buffer + len, cstr);
	len = newlen;
	return 1;
}
   b6428:	bd70      	pop	{r4, r5, r6, pc}
	if (length == 0) return 1;
   b642a:	b16a      	cbz	r2, b6448 <_ZN6String6concatEPKcj+0x2a>
	unsigned int newlen = len + length;
   b642c:	6884      	ldr	r4, [r0, #8]
   b642e:	4414      	add	r4, r2
	if (!reserve(newlen)) return 0;
   b6430:	4621      	mov	r1, r4
   b6432:	f7ff ff4f 	bl	b62d4 <_ZN6String7reserveEj>
   b6436:	2800      	cmp	r0, #0
   b6438:	d0f5      	beq.n	b6426 <_ZN6String6concatEPKcj+0x8>
	strcpy(buffer + len, cstr);
   b643a:	6828      	ldr	r0, [r5, #0]
   b643c:	68ab      	ldr	r3, [r5, #8]
   b643e:	4631      	mov	r1, r6
   b6440:	4418      	add	r0, r3
   b6442:	f003 f9de 	bl	b9802 <strcpy>
	len = newlen;
   b6446:	60ac      	str	r4, [r5, #8]
	if (length == 0) return 1;
   b6448:	2001      	movs	r0, #1
   b644a:	e7ed      	b.n	b6428 <_ZN6String6concatEPKcj+0xa>

000b644c <_ZN6String6concatERKS_>:
	return concat(s.buffer, s.len);
   b644c:	688a      	ldr	r2, [r1, #8]
   b644e:	6809      	ldr	r1, [r1, #0]
   b6450:	f7ff bfe5 	b.w	b641e <_ZN6String6concatEPKcj>

000b6454 <_ZN6String6concatEPKc>:

unsigned char String::concat(const char *cstr)
{
   b6454:	b513      	push	{r0, r1, r4, lr}
   b6456:	4604      	mov	r4, r0
	if (!cstr) return 0;
	return concat(cstr, strlen(cstr));
}
   b6458:	4608      	mov	r0, r1
	if (!cstr) return 0;
   b645a:	b151      	cbz	r1, b6472 <_ZN6String6concatEPKc+0x1e>
	return concat(cstr, strlen(cstr));
   b645c:	9101      	str	r1, [sp, #4]
   b645e:	f003 f9f6 	bl	b984e <strlen>
   b6462:	9901      	ldr	r1, [sp, #4]
   b6464:	4602      	mov	r2, r0
   b6466:	4620      	mov	r0, r4
}
   b6468:	b002      	add	sp, #8
   b646a:	e8bd 4010 	ldmia.w	sp!, {r4, lr}
	return concat(cstr, strlen(cstr));
   b646e:	f7ff bfd6 	b.w	b641e <_ZN6String6concatEPKcj>
}
   b6472:	b002      	add	sp, #8
   b6474:	bd10      	pop	{r4, pc}
	...

000b6478 <_ZN6String6formatEPKcz>:
    StringPrintableHelper help(*this);
    printable.printTo(help);
}

String String::format(const char* fmt, ...)
{
   b6478:	b40e      	push	{r1, r2, r3}
   b647a:	b570      	push	{r4, r5, r6, lr}
   b647c:	b087      	sub	sp, #28
   b647e:	ad0b      	add	r5, sp, #44	; 0x2c
   b6480:	4604      	mov	r4, r0
   b6482:	f855 2b04 	ldr.w	r2, [r5], #4
    va_list marker;
    va_start(marker, fmt);
    const int bufsize = 5;
    char test[bufsize];
    size_t n = vsnprintf(test, bufsize, fmt, marker);
   b6486:	9201      	str	r2, [sp, #4]
   b6488:	462b      	mov	r3, r5
   b648a:	2105      	movs	r1, #5
   b648c:	a804      	add	r0, sp, #16
    va_start(marker, fmt);
   b648e:	9503      	str	r5, [sp, #12]
    size_t n = vsnprintf(test, bufsize, fmt, marker);
   b6490:	f7ff fb26 	bl	b5ae0 <vsnprintf>
    va_end(marker);

    String result;
   b6494:	490b      	ldr	r1, [pc, #44]	; (b64c4 <_ZN6String6formatEPKcz+0x4c>)
    size_t n = vsnprintf(test, bufsize, fmt, marker);
   b6496:	4606      	mov	r6, r0
    String result;
   b6498:	4620      	mov	r0, r4
   b649a:	f7ff ff48 	bl	b632e <_ZN6StringC1EPK19__FlashStringHelper>
    result.reserve(n);  // internally adds +1 for null terminator
   b649e:	4631      	mov	r1, r6
   b64a0:	4620      	mov	r0, r4
   b64a2:	f7ff ff17 	bl	b62d4 <_ZN6String7reserveEj>
    if (result.buffer) {
   b64a6:	6820      	ldr	r0, [r4, #0]
   b64a8:	b130      	cbz	r0, b64b8 <_ZN6String6formatEPKcz+0x40>
        va_start(marker, fmt);
        n = vsnprintf(result.buffer, n+1, fmt, marker);
   b64aa:	9a01      	ldr	r2, [sp, #4]
        va_start(marker, fmt);
   b64ac:	9503      	str	r5, [sp, #12]
        n = vsnprintf(result.buffer, n+1, fmt, marker);
   b64ae:	462b      	mov	r3, r5
   b64b0:	1c71      	adds	r1, r6, #1
   b64b2:	f7ff fb15 	bl	b5ae0 <vsnprintf>
        va_end(marker);
        result.len = n;
   b64b6:	60a0      	str	r0, [r4, #8]
    }
    return result;
}
   b64b8:	4620      	mov	r0, r4
   b64ba:	b007      	add	sp, #28
   b64bc:	e8bd 4070 	ldmia.w	sp!, {r4, r5, r6, lr}
   b64c0:	b003      	add	sp, #12
   b64c2:	4770      	bx	lr
   b64c4:	000bbc5e 	.word	0x000bbc5e

000b64c8 <_ZNSt23_Sp_counted_ptr_inplaceIN8particle17BlePeerDeviceImplESaIS1_ELN9__gnu_cxx12_Lock_policyE0EED1Ev>:
      ~_Sp_counted_ptr_inplace() noexcept { }
   b64c8:	4770      	bx	lr

000b64ca <_ZNSt23_Sp_counted_ptr_inplaceIN8particle14BleServiceImplESaIS1_ELN9__gnu_cxx12_Lock_policyE0EED1Ev>:
   b64ca:	4770      	bx	lr

000b64cc <_ZNSt23_Sp_counted_ptr_inplaceIN8particle14BleServiceImplESaIS1_ELN9__gnu_cxx12_Lock_policyE0EE10_M_disposeEv>:
      }
   b64cc:	4770      	bx	lr

000b64ce <_ZNSt23_Sp_counted_ptr_inplaceIN8particle21BleCharacteristicImplESaIS1_ELN9__gnu_cxx12_Lock_policyE0EED1Ev>:
      ~_Sp_counted_ptr_inplace() noexcept { }
   b64ce:	4770      	bx	lr

000b64d0 <_ZNSt23_Sp_counted_ptr_inplaceIN8particle21BleCharacteristicImplESaIS1_ELN9__gnu_cxx12_Lock_policyE0EE14_M_get_deleterERKSt9type_info>:
	    ||
   b64d0:	4b06      	ldr	r3, [pc, #24]	; (b64ec <_ZNSt23_Sp_counted_ptr_inplaceIN8particle21BleCharacteristicImplESaIS1_ELN9__gnu_cxx12_Lock_policyE0EE14_M_get_deleterERKSt9type_info+0x1c>)
   b64d2:	4299      	cmp	r1, r3
      _M_get_deleter(const std::type_info& __ti) noexcept override
   b64d4:	b510      	push	{r4, lr}
      __aligned_buffer(std::nullptr_t) { }

      void*
      _M_addr() noexcept
      {
        return static_cast<void*>(&_M_storage);
   b64d6:	f100 040c 	add.w	r4, r0, #12
	    ||
   b64da:	d005      	beq.n	b64e8 <_ZNSt23_Sp_counted_ptr_inplaceIN8particle21BleCharacteristicImplESaIS1_ELN9__gnu_cxx12_Lock_policyE0EE14_M_get_deleterERKSt9type_info+0x18>
	    _Sp_make_shared_tag::_S_eq(__ti)
   b64dc:	4608      	mov	r0, r1
   b64de:	f002 fb21 	bl	b8b24 <_ZNSt19_Sp_make_shared_tag5_S_eqERKSt9type_info>
	return nullptr;
   b64e2:	2800      	cmp	r0, #0
   b64e4:	bf08      	it	eq
   b64e6:	2400      	moveq	r4, #0
      }
   b64e8:	4620      	mov	r0, r4
   b64ea:	bd10      	pop	{r4, pc}
   b64ec:	000bc040 	.word	0x000bc040

000b64f0 <_ZNSt23_Sp_counted_ptr_inplaceIN8particle14BleServiceImplESaIS1_ELN9__gnu_cxx12_Lock_policyE0EE14_M_get_deleterERKSt9type_info>:
	    ||
   b64f0:	4b06      	ldr	r3, [pc, #24]	; (b650c <_ZNSt23_Sp_counted_ptr_inplaceIN8particle14BleServiceImplESaIS1_ELN9__gnu_cxx12_Lock_policyE0EE14_M_get_deleterERKSt9type_info+0x1c>)
   b64f2:	4299      	cmp	r1, r3
      _M_get_deleter(const std::type_info& __ti) noexcept override
   b64f4:	b510      	push	{r4, lr}
   b64f6:	f100 040c 	add.w	r4, r0, #12
	    ||
   b64fa:	d005      	beq.n	b6508 <_ZNSt23_Sp_counted_ptr_inplaceIN8particle14BleServiceImplESaIS1_ELN9__gnu_cxx12_Lock_policyE0EE14_M_get_deleterERKSt9type_info+0x18>
	    _Sp_make_shared_tag::_S_eq(__ti)
   b64fc:	4608      	mov	r0, r1
   b64fe:	f002 fb11 	bl	b8b24 <_ZNSt19_Sp_make_shared_tag5_S_eqERKSt9type_info>
	return nullptr;
   b6502:	2800      	cmp	r0, #0
   b6504:	bf08      	it	eq
   b6506:	2400      	moveq	r4, #0
      }
   b6508:	4620      	mov	r0, r4
   b650a:	bd10      	pop	{r4, pc}
   b650c:	000bc040 	.word	0x000bc040

000b6510 <_ZNSt23_Sp_counted_ptr_inplaceIN8particle17BlePeerDeviceImplESaIS1_ELN9__gnu_cxx12_Lock_policyE0EE14_M_get_deleterERKSt9type_info>:
	    ||
   b6510:	4b06      	ldr	r3, [pc, #24]	; (b652c <_ZNSt23_Sp_counted_ptr_inplaceIN8particle17BlePeerDeviceImplESaIS1_ELN9__gnu_cxx12_Lock_policyE0EE14_M_get_deleterERKSt9type_info+0x1c>)
   b6512:	4299      	cmp	r1, r3
      _M_get_deleter(const std::type_info& __ti) noexcept override
   b6514:	b510      	push	{r4, lr}
   b6516:	f100 040c 	add.w	r4, r0, #12
	    ||
   b651a:	d005      	beq.n	b6528 <_ZNSt23_Sp_counted_ptr_inplaceIN8particle17BlePeerDeviceImplESaIS1_ELN9__gnu_cxx12_Lock_policyE0EE14_M_get_deleterERKSt9type_info+0x18>
	    _Sp_make_shared_tag::_S_eq(__ti)
   b651c:	4608      	mov	r0, r1
   b651e:	f002 fb01 	bl	b8b24 <_ZNSt19_Sp_make_shared_tag5_S_eqERKSt9type_info>
	return nullptr;
   b6522:	2800      	cmp	r0, #0
   b6524:	bf08      	it	eq
   b6526:	2400      	moveq	r4, #0
      }
   b6528:	4620      	mov	r0, r4
   b652a:	bd10      	pop	{r4, pc}
   b652c:	000bc040 	.word	0x000bc040

000b6530 <_ZNSt23_Sp_counted_ptr_inplaceIN8particle21BleCharacteristicImplESaIS1_ELN9__gnu_cxx12_Lock_policyE0EED0Ev>:
      ~_Sp_counted_ptr_inplace() noexcept { }
   b6530:	b510      	push	{r4, lr}
   b6532:	2168      	movs	r1, #104	; 0x68
   b6534:	4604      	mov	r4, r0
   b6536:	f7fd fdb2 	bl	b409e <_ZdlPvj>
   b653a:	4620      	mov	r0, r4
   b653c:	bd10      	pop	{r4, pc}

000b653e <_ZNSt23_Sp_counted_ptr_inplaceIN8particle14BleServiceImplESaIS1_ELN9__gnu_cxx12_Lock_policyE0EED0Ev>:
   b653e:	b510      	push	{r4, lr}
   b6540:	2128      	movs	r1, #40	; 0x28
   b6542:	4604      	mov	r4, r0
   b6544:	f7fd fdab 	bl	b409e <_ZdlPvj>
   b6548:	4620      	mov	r0, r4
   b654a:	bd10      	pop	{r4, pc}

000b654c <_ZNSt23_Sp_counted_ptr_inplaceIN8particle17BlePeerDeviceImplESaIS1_ELN9__gnu_cxx12_Lock_policyE0EED0Ev>:
   b654c:	b510      	push	{r4, lr}
   b654e:	2130      	movs	r1, #48	; 0x30
   b6550:	4604      	mov	r4, r0
   b6552:	f7fd fda4 	bl	b409e <_ZdlPvj>
   b6556:	4620      	mov	r0, r4
   b6558:	bd10      	pop	{r4, pc}

000b655a <_ZNSt23_Sp_counted_ptr_inplaceIN8particle21BleCharacteristicImplESaIS1_ELN9__gnu_cxx12_Lock_policyE0EE10_M_destroyEv>:
# endif
			      std::align_val_t(alignof(_Tp)));
	    return;
	  }
#endif
	::operator delete(__p
   b655a:	2168      	movs	r1, #104	; 0x68
   b655c:	f7fd bd9f 	b.w	b409e <_ZdlPvj>

000b6560 <_ZNSt23_Sp_counted_ptr_inplaceIN8particle14BleServiceImplESaIS1_ELN9__gnu_cxx12_Lock_policyE0EE10_M_destroyEv>:
   b6560:	2128      	movs	r1, #40	; 0x28
   b6562:	f7fd bd9c 	b.w	b409e <_ZdlPvj>

000b6566 <_ZNSt23_Sp_counted_ptr_inplaceIN8particle17BlePeerDeviceImplESaIS1_ELN9__gnu_cxx12_Lock_policyE0EE10_M_destroyEv>:
   b6566:	2130      	movs	r1, #48	; 0x30
   b6568:	f7fd bd99 	b.w	b409e <_ZdlPvj>

000b656c <_ZN8particle18BleAdvertisingData6locateEPKhjNS_22BleAdvertisingDataTypeEPj.part.0>:
        break;
    }
    return uuids;
}

size_t BleAdvertisingData::locate(const uint8_t* buf, size_t len, BleAdvertisingDataType type, size_t* offset) {
   b656c:	b5f0      	push	{r4, r5, r6, r7, lr}
    if (offset == nullptr) {
        return 0;
    }
    uint8_t adsType = static_cast<uint8_t>(type);
    size_t adsLen;
    for (size_t i = 0; (i + 3) <= len; i = i) {
   b656e:	2500      	movs	r5, #0
   b6570:	1cec      	adds	r4, r5, #3
   b6572:	428c      	cmp	r4, r1
   b6574:	d80d      	bhi.n	b6592 <_ZN8particle18BleAdvertisingData6locateEPKhjNS_22BleAdvertisingDataTypeEPj.part.0+0x26>
        adsLen = buf[i];
        if (buf[i + 1] == adsType) {
   b6576:	1c6e      	adds	r6, r5, #1
        adsLen = buf[i];
   b6578:	5d44      	ldrb	r4, [r0, r5]
        if (buf[i + 1] == adsType) {
   b657a:	5d87      	ldrb	r7, [r0, r6]
   b657c:	4297      	cmp	r7, r2
   b657e:	d105      	bne.n	b658c <_ZN8particle18BleAdvertisingData6locateEPKhjNS_22BleAdvertisingDataTypeEPj.part.0+0x20>
            // The value of adsLen doesn't include the length field of an AD structure.
            if ((i + adsLen + 1) <= len) {
   b6580:	4426      	add	r6, r4
   b6582:	42b1      	cmp	r1, r6
   b6584:	d305      	bcc.n	b6592 <_ZN8particle18BleAdvertisingData6locateEPKhjNS_22BleAdvertisingDataTypeEPj.part.0+0x26>
                *offset = i;
   b6586:	601d      	str	r5, [r3, #0]
                adsLen += 1;
   b6588:	1c60      	adds	r0, r4, #1
            // Navigate to the next AD structure.
            i += (adsLen + 1);
        }
    }
    return 0;
}
   b658a:	bdf0      	pop	{r4, r5, r6, r7, pc}
            i += (adsLen + 1);
   b658c:	3401      	adds	r4, #1
   b658e:	4425      	add	r5, r4
    for (size_t i = 0; (i + 3) <= len; i = i) {
   b6590:	e7ee      	b.n	b6570 <_ZN8particle18BleAdvertisingData6locateEPKhjNS_22BleAdvertisingDataTypeEPj.part.0+0x4>
    return 0;
   b6592:	2000      	movs	r0, #0
   b6594:	e7f9      	b.n	b658a <_ZN8particle18BleAdvertisingData6locateEPKhjNS_22BleAdvertisingDataTypeEPj.part.0+0x1e>
	...

000b6598 <_ZN8particle10BleServiceC2ERKNS_7BleUuidE.part.0>:
}

BleCharacteristic::BleCharacteristic(const BleCharacteristic& characteristic)
        : impl_(characteristic.impl_) {
    if (!impl()) {
        SPARK_ASSERT(false);
   b6598:	4a02      	ldr	r2, [pc, #8]	; (b65a4 <_ZN8particle10BleServiceC2ERKNS_7BleUuidE.part.0+0xc>)
   b659a:	4903      	ldr	r1, [pc, #12]	; (b65a8 <_ZN8particle10BleServiceC2ERKNS_7BleUuidE.part.0+0x10>)
   b659c:	200a      	movs	r0, #10
   b659e:	f7ff b993 	b.w	b58c8 <panic_>
   b65a2:	bf00      	nop
   b65a4:	000b54c5 	.word	0x000b54c5
   b65a8:	000bbea0 	.word	0x000bbea0

000b65ac <_ZNSt17_Function_handlerIFvRKN8particle13BlePeerDeviceEESt5_BindIFPFvS3_PvESt12_PlaceholderILi1EES6_EEE9_M_invokeERKSt9_Any_dataS3_>:
      _M_invoke(const _Any_data& __functor, _ArgTypes&&... __args)
   b65ac:	4603      	mov	r3, r0
   b65ae:	4608      	mov	r0, r1
	    return __source._M_access<_Functor*>();
   b65b0:	681b      	ldr	r3, [r3, #0]
   b65b2:	e9d3 2100 	ldrd	r2, r1, [r3]
   b65b6:	4710      	bx	r2

000b65b8 <_ZNSt17_Function_handlerIFvPKhjRKN8particle13BlePeerDeviceEESt5_BindIFPFvS1_jS5_PvESt12_PlaceholderILi1EESB_ILi2EESB_ILi3EES8_EEE9_M_invokeERKSt9_Any_dataOS1_OjS5_>:
      _M_invoke(const _Any_data& __functor, _ArgTypes&&... __args)
   b65b8:	b430      	push	{r4, r5}
   b65ba:	460d      	mov	r5, r1
   b65bc:	4611      	mov	r1, r2
   b65be:	461a      	mov	r2, r3
	    return __source._M_access<_Functor*>();
   b65c0:	6803      	ldr	r3, [r0, #0]
   b65c2:	6809      	ldr	r1, [r1, #0]
   b65c4:	6828      	ldr	r0, [r5, #0]
   b65c6:	e9d3 4300 	ldrd	r4, r3, [r3]
   b65ca:	46a4      	mov	ip, r4
      }
   b65cc:	bc30      	pop	{r4, r5}
   b65ce:	4760      	bx	ip

000b65d0 <_ZNSt17_Function_handlerIFvRKN8particle13BlePeerDeviceEESt5_BindIFPFvS3_PvESt12_PlaceholderILi1EES6_EEE10_M_managerERSt9_Any_dataRKSE_St18_Manager_operation>:
	switch (__op)
   b65d0:	2a01      	cmp	r2, #1
      _M_manager(_Any_data& __dest, const _Any_data& __source,
   b65d2:	b538      	push	{r3, r4, r5, lr}
   b65d4:	4604      	mov	r4, r0
	switch (__op)
   b65d6:	d102      	bne.n	b65de <_ZNSt17_Function_handlerIFvRKN8particle13BlePeerDeviceEESt5_BindIFPFvS3_PvESt12_PlaceholderILi1EES6_EEE10_M_managerERSt9_Any_dataRKSE_St18_Manager_operation+0xe>
	    return __source._M_access<_Functor*>();
   b65d8:	680b      	ldr	r3, [r1, #0]
	  __dest._M_access<_Functor*>() =
   b65da:	6023      	str	r3, [r4, #0]
	}
   b65dc:	e003      	b.n	b65e6 <_ZNSt17_Function_handlerIFvRKN8particle13BlePeerDeviceEESt5_BindIFPFvS3_PvESt12_PlaceholderILi1EES6_EEE10_M_managerERSt9_Any_dataRKSE_St18_Manager_operation+0x16>
	  switch (__op)
   b65de:	2a02      	cmp	r2, #2
   b65e0:	d003      	beq.n	b65ea <_ZNSt17_Function_handlerIFvRKN8particle13BlePeerDeviceEESt5_BindIFPFvS3_PvESt12_PlaceholderILi1EES6_EEE10_M_managerERSt9_Any_dataRKSE_St18_Manager_operation+0x1a>
   b65e2:	2a03      	cmp	r2, #3
   b65e4:	d00d      	beq.n	b6602 <_ZNSt17_Function_handlerIFvRKN8particle13BlePeerDeviceEESt5_BindIFPFvS3_PvESt12_PlaceholderILi1EES6_EEE10_M_managerERSt9_Any_dataRKSE_St18_Manager_operation+0x32>
      }
   b65e6:	2000      	movs	r0, #0
   b65e8:	bd38      	pop	{r3, r4, r5, pc}
	    new _Functor(*__source._M_access<const _Functor*>());
   b65ea:	2008      	movs	r0, #8
	  __dest._M_access<_Functor*>() =
   b65ec:	680d      	ldr	r5, [r1, #0]
	    new _Functor(*__source._M_access<const _Functor*>());
   b65ee:	f7fd fd52 	bl	b4096 <_Znwj>
   b65f2:	4603      	mov	r3, r0
   b65f4:	2800      	cmp	r0, #0
   b65f6:	d0f0      	beq.n	b65da <_ZNSt17_Function_handlerIFvRKN8particle13BlePeerDeviceEESt5_BindIFPFvS3_PvESt12_PlaceholderILi1EES6_EEE10_M_managerERSt9_Any_dataRKSE_St18_Manager_operation+0xa>
   b65f8:	e895 0003 	ldmia.w	r5, {r0, r1}
   b65fc:	e883 0003 	stmia.w	r3, {r0, r1}
   b6600:	e7eb      	b.n	b65da <_ZNSt17_Function_handlerIFvRKN8particle13BlePeerDeviceEESt5_BindIFPFvS3_PvESt12_PlaceholderILi1EES6_EEE10_M_managerERSt9_Any_dataRKSE_St18_Manager_operation+0xa>
	  delete __victim._M_access<_Functor*>();
   b6602:	6800      	ldr	r0, [r0, #0]
   b6604:	2800      	cmp	r0, #0
   b6606:	d0ee      	beq.n	b65e6 <_ZNSt17_Function_handlerIFvRKN8particle13BlePeerDeviceEESt5_BindIFPFvS3_PvESt12_PlaceholderILi1EES6_EEE10_M_managerERSt9_Any_dataRKSE_St18_Manager_operation+0x16>
   b6608:	2108      	movs	r1, #8
   b660a:	f7fd fd48 	bl	b409e <_ZdlPvj>
   b660e:	e7ea      	b.n	b65e6 <_ZNSt17_Function_handlerIFvRKN8particle13BlePeerDeviceEESt5_BindIFPFvS3_PvESt12_PlaceholderILi1EES6_EEE10_M_managerERSt9_Any_dataRKSE_St18_Manager_operation+0x16>

000b6610 <_ZNSt17_Function_handlerIFvPKhjRKN8particle13BlePeerDeviceEESt5_BindIFPFvS1_jS5_PvESt12_PlaceholderILi1EESB_ILi2EESB_ILi3EES8_EEE10_M_managerERSt9_Any_dataRKSI_St18_Manager_operation>:
	switch (__op)
   b6610:	2a01      	cmp	r2, #1
      _M_manager(_Any_data& __dest, const _Any_data& __source,
   b6612:	b538      	push	{r3, r4, r5, lr}
   b6614:	4604      	mov	r4, r0
	switch (__op)
   b6616:	d102      	bne.n	b661e <_ZNSt17_Function_handlerIFvPKhjRKN8particle13BlePeerDeviceEESt5_BindIFPFvS1_jS5_PvESt12_PlaceholderILi1EESB_ILi2EESB_ILi3EES8_EEE10_M_managerERSt9_Any_dataRKSI_St18_Manager_operation+0xe>
	    return __source._M_access<_Functor*>();
   b6618:	680b      	ldr	r3, [r1, #0]
	  __dest._M_access<_Functor*>() =
   b661a:	6023      	str	r3, [r4, #0]
	}
   b661c:	e003      	b.n	b6626 <_ZNSt17_Function_handlerIFvPKhjRKN8particle13BlePeerDeviceEESt5_BindIFPFvS1_jS5_PvESt12_PlaceholderILi1EESB_ILi2EESB_ILi3EES8_EEE10_M_managerERSt9_Any_dataRKSI_St18_Manager_operation+0x16>
	  switch (__op)
   b661e:	2a02      	cmp	r2, #2
   b6620:	d003      	beq.n	b662a <_ZNSt17_Function_handlerIFvPKhjRKN8particle13BlePeerDeviceEESt5_BindIFPFvS1_jS5_PvESt12_PlaceholderILi1EESB_ILi2EESB_ILi3EES8_EEE10_M_managerERSt9_Any_dataRKSI_St18_Manager_operation+0x1a>
   b6622:	2a03      	cmp	r2, #3
   b6624:	d00d      	beq.n	b6642 <_ZNSt17_Function_handlerIFvPKhjRKN8particle13BlePeerDeviceEESt5_BindIFPFvS1_jS5_PvESt12_PlaceholderILi1EESB_ILi2EESB_ILi3EES8_EEE10_M_managerERSt9_Any_dataRKSI_St18_Manager_operation+0x32>
      }
   b6626:	2000      	movs	r0, #0
   b6628:	bd38      	pop	{r3, r4, r5, pc}
	    new _Functor(*__source._M_access<const _Functor*>());
   b662a:	2008      	movs	r0, #8
	  __dest._M_access<_Functor*>() =
   b662c:	680d      	ldr	r5, [r1, #0]
	    new _Functor(*__source._M_access<const _Functor*>());
   b662e:	f7fd fd32 	bl	b4096 <_Znwj>
   b6632:	4603      	mov	r3, r0
   b6634:	2800      	cmp	r0, #0
   b6636:	d0f0      	beq.n	b661a <_ZNSt17_Function_handlerIFvPKhjRKN8particle13BlePeerDeviceEESt5_BindIFPFvS1_jS5_PvESt12_PlaceholderILi1EESB_ILi2EESB_ILi3EES8_EEE10_M_managerERSt9_Any_dataRKSI_St18_Manager_operation+0xa>
   b6638:	e895 0003 	ldmia.w	r5, {r0, r1}
   b663c:	e883 0003 	stmia.w	r3, {r0, r1}
   b6640:	e7eb      	b.n	b661a <_ZNSt17_Function_handlerIFvPKhjRKN8particle13BlePeerDeviceEESt5_BindIFPFvS1_jS5_PvESt12_PlaceholderILi1EESB_ILi2EESB_ILi3EES8_EEE10_M_managerERSt9_Any_dataRKSI_St18_Manager_operation+0xa>
	  delete __victim._M_access<_Functor*>();
   b6642:	6800      	ldr	r0, [r0, #0]
   b6644:	2800      	cmp	r0, #0
   b6646:	d0ee      	beq.n	b6626 <_ZNSt17_Function_handlerIFvPKhjRKN8particle13BlePeerDeviceEESt5_BindIFPFvS1_jS5_PvESt12_PlaceholderILi1EESB_ILi2EESB_ILi3EES8_EEE10_M_managerERSt9_Any_dataRKSI_St18_Manager_operation+0x16>
   b6648:	2108      	movs	r1, #8
   b664a:	f7fd fd28 	bl	b409e <_ZdlPvj>
   b664e:	e7ea      	b.n	b6626 <_ZNSt17_Function_handlerIFvPKhjRKN8particle13BlePeerDeviceEESt5_BindIFPFvS1_jS5_PvESt12_PlaceholderILi1EESB_ILi2EESB_ILi3EES8_EEE10_M_managerERSt9_Any_dataRKSI_St18_Manager_operation+0x16>

000b6650 <_ZNSt23_Sp_counted_ptr_inplaceIN8particle21BleCharacteristicImplESaIS1_ELN9__gnu_cxx12_Lock_policyE0EE10_M_disposeEv>:
      _M_dispose() noexcept
   b6650:	b510      	push	{r4, lr}
   b6652:	4604      	mov	r4, r0
    class function<_Res(_ArgTypes...)>
   b6654:	3058      	adds	r0, #88	; 0x58
   b6656:	f7fd febf 	bl	b43d8 <_ZNSt14_Function_baseD1Ev>
    ~BleCharacteristicImpl() = default;
   b665a:	f104 0048 	add.w	r0, r4, #72	; 0x48
      }
   b665e:	e8bd 4010 	ldmia.w	sp!, {r4, lr}
   b6662:	f7ff be19 	b.w	b6298 <_ZN6StringD1Ev>

000b6666 <_ZN8particle11hexToNibbleEc>:
#include <cstdint>

namespace particle {

inline int hexToNibble(char c) {
    if (c >= '0' && c <= '9') {
   b6666:	f1a0 0330 	sub.w	r3, r0, #48	; 0x30
   b666a:	b2da      	uxtb	r2, r3
   b666c:	2a09      	cmp	r2, #9
   b666e:	d801      	bhi.n	b6674 <_ZN8particle11hexToNibbleEc+0xe>
        return (c - '0');
   b6670:	4618      	mov	r0, r3
   b6672:	4770      	bx	lr
    } else if (c >= 'a' && c <= 'f') {
   b6674:	f1a0 0361 	sub.w	r3, r0, #97	; 0x61
   b6678:	2b05      	cmp	r3, #5
   b667a:	d801      	bhi.n	b6680 <_ZN8particle11hexToNibbleEc+0x1a>
        return (c - 'a' + 0x0a);
   b667c:	3857      	subs	r0, #87	; 0x57
   b667e:	4770      	bx	lr
    } else if (c >= 'A' && c <= 'F') {
   b6680:	f1a0 0341 	sub.w	r3, r0, #65	; 0x41
   b6684:	2b05      	cmp	r3, #5
        return (c - 'A' + 0x0a);
   b6686:	bf94      	ite	ls
   b6688:	3837      	subls	r0, #55	; 0x37
    }
    return -1;
   b668a:	f04f 30ff 	movhi.w	r0, #4294967295
}
   b668e:	4770      	bx	lr

000b6690 <_ZN8particle3ble13WiringBleLockC1Ev>:
    WiringBleLock() :
   b6690:	b510      	push	{r4, lr}
            locked_(false) {
   b6692:	2300      	movs	r3, #0
   b6694:	7003      	strb	r3, [r0, #0]
            os_mutex_recursive_destroy(handle_);
            handle_ = nullptr;
        }
    }

    void lock() { os_mutex_recursive_lock(handle_); }
   b6696:	4b04      	ldr	r3, [pc, #16]	; (b66a8 <_ZN8particle3ble13WiringBleLockC1Ev+0x18>)
    WiringBleLock() :
   b6698:	4604      	mov	r4, r0
   b669a:	6818      	ldr	r0, [r3, #0]
   b669c:	f7fe ffec 	bl	b5678 <os_mutex_recursive_lock>
        locked_ = true;
   b66a0:	2301      	movs	r3, #1
   b66a2:	7023      	strb	r3, [r4, #0]
    }
   b66a4:	4620      	mov	r0, r4
   b66a6:	bd10      	pop	{r4, pc}
   b66a8:	2003e694 	.word	0x2003e694

000b66ac <_ZN8particle3ble13WiringBleLockD1Ev>:
    ~WiringBleLock() {
   b66ac:	b510      	push	{r4, lr}
        if (locked_) {
   b66ae:	7803      	ldrb	r3, [r0, #0]
    ~WiringBleLock() {
   b66b0:	4604      	mov	r4, r0
        if (locked_) {
   b66b2:	b11b      	cbz	r3, b66bc <_ZN8particle3ble13WiringBleLockD1Ev+0x10>
    bool trylock() { return os_mutex_recursive_trylock(handle_)==0; }
    bool try_lock() { return trylock(); }
    void unlock() { os_mutex_recursive_unlock(handle_); }
   b66b4:	4b02      	ldr	r3, [pc, #8]	; (b66c0 <_ZN8particle3ble13WiringBleLockD1Ev+0x14>)
   b66b6:	6818      	ldr	r0, [r3, #0]
   b66b8:	f7fe ffe6 	bl	b5688 <os_mutex_recursive_unlock>
    }
   b66bc:	4620      	mov	r0, r4
   b66be:	bd10      	pop	{r4, pc}
   b66c0:	2003e694 	.word	0x2003e694

000b66c4 <_ZN8particle10BleAddressaSERK14hal_ble_addr_t>:
BleAddress& BleAddress::operator=(const hal_ble_addr_t& addr) {
   b66c4:	b082      	sub	sp, #8
   b66c6:	4603      	mov	r3, r0
    address_ = addr;
   b66c8:	6808      	ldr	r0, [r1, #0]
   b66ca:	6849      	ldr	r1, [r1, #4]
   b66cc:	466a      	mov	r2, sp
   b66ce:	c203      	stmia	r2!, {r0, r1}
    address_ = addr.address_;
   b66d0:	466a      	mov	r2, sp
   b66d2:	ca03      	ldmia	r2!, {r0, r1}
   b66d4:	6018      	str	r0, [r3, #0]
}
   b66d6:	4618      	mov	r0, r3
    address_ = addr.address_;
   b66d8:	6059      	str	r1, [r3, #4]
}
   b66da:	b002      	add	sp, #8
   b66dc:	4770      	bx	lr

000b66de <_ZNK8particle10BleAddresseqERKS0_>:
bool BleAddress::operator==(const BleAddress& addr) const {
   b66de:	b508      	push	{r3, lr}
    if (address_.addr_type == addr.address_.addr_type && !memcmp(address_.addr, addr.address_.addr, BLE_SIG_ADDR_LEN)) {
   b66e0:	7982      	ldrb	r2, [r0, #6]
   b66e2:	798b      	ldrb	r3, [r1, #6]
   b66e4:	429a      	cmp	r2, r3
   b66e6:	d106      	bne.n	b66f6 <_ZNK8particle10BleAddresseqERKS0_+0x18>
   b66e8:	2206      	movs	r2, #6
   b66ea:	f003 f802 	bl	b96f2 <memcmp>
   b66ee:	fab0 f080 	clz	r0, r0
   b66f2:	0940      	lsrs	r0, r0, #5
}
   b66f4:	bd08      	pop	{r3, pc}
    return false;
   b66f6:	2000      	movs	r0, #0
   b66f8:	e7fc      	b.n	b66f4 <_ZNK8particle10BleAddresseqERKS0_+0x16>

000b66fa <_ZN8particle10BleAddress5clearEv>:
    memset(address_.addr, 0xFF, BLE_SIG_ADDR_LEN);
   b66fa:	f04f 33ff 	mov.w	r3, #4294967295
   b66fe:	6003      	str	r3, [r0, #0]
   b6700:	8083      	strh	r3, [r0, #4]
}
   b6702:	2000      	movs	r0, #0
   b6704:	4770      	bx	lr

000b6706 <_ZN8particle10BleAddressC1Ev>:
BleAddress::BleAddress()
   b6706:	b508      	push	{r3, lr}
   b6708:	4602      	mov	r2, r0
        : address_{} {
   b670a:	2100      	movs	r1, #0
   b670c:	6001      	str	r1, [r0, #0]
   b670e:	6041      	str	r1, [r0, #4]
    clear();
   b6710:	f7ff fff3 	bl	b66fa <_ZN8particle10BleAddress5clearEv>
    address_.addr_type = BLE_SIG_ADDR_TYPE_PUBLIC;
   b6714:	7191      	strb	r1, [r2, #6]
}
   b6716:	4610      	mov	r0, r2
   b6718:	bd08      	pop	{r3, pc}
	...

000b671c <_ZN8particle7BleUuidC1Ev>:
BleUuid::BleUuid()
   b671c:	b510      	push	{r4, lr}
        : type_(BleUuidType::LONG) {
   b671e:	2301      	movs	r3, #1
   b6720:	6103      	str	r3, [r0, #16]
    memcpy(uuid128_, BASE_UUID, BLE_SIG_UUID_128BIT_LEN);
   b6722:	4b05      	ldr	r3, [pc, #20]	; (b6738 <_ZN8particle7BleUuidC1Ev+0x1c>)
   b6724:	4602      	mov	r2, r0
   b6726:	f103 0110 	add.w	r1, r3, #16
   b672a:	f853 4b04 	ldr.w	r4, [r3], #4
   b672e:	f842 4b04 	str.w	r4, [r2], #4
   b6732:	428b      	cmp	r3, r1
   b6734:	d1f9      	bne.n	b672a <_ZN8particle7BleUuidC1Ev+0xe>
}
   b6736:	bd10      	pop	{r4, pc}
   b6738:	000bc04e 	.word	0x000bc04e

000b673c <_ZN8particle7BleUuidC1EPKhNS_12BleUuidOrderE>:
BleUuid::BleUuid(const uint8_t* uuid128, BleUuidOrder order) {
   b673c:	b510      	push	{r4, lr}
    if (uuid128) {
   b673e:	460b      	mov	r3, r1
BleUuid::BleUuid(const uint8_t* uuid128, BleUuidOrder order) {
   b6740:	4604      	mov	r4, r0
    if (uuid128) {
   b6742:	b1b1      	cbz	r1, b6772 <_ZN8particle7BleUuidC1EPKhNS_12BleUuidOrderE+0x36>
        if (order == BleUuidOrder::LSB) {
   b6744:	2a01      	cmp	r2, #1
   b6746:	f101 0210 	add.w	r2, r1, #16
   b674a:	d10a      	bne.n	b6762 <_ZN8particle7BleUuidC1EPKhNS_12BleUuidOrderE+0x26>
            memcpy(uuid128_, uuid128, BLE_SIG_UUID_128BIT_LEN);
   b674c:	4601      	mov	r1, r0
   b674e:	f853 0b04 	ldr.w	r0, [r3], #4
   b6752:	f841 0b04 	str.w	r0, [r1], #4
   b6756:	4293      	cmp	r3, r2
   b6758:	d1f9      	bne.n	b674e <_ZN8particle7BleUuidC1EPKhNS_12BleUuidOrderE+0x12>
        type_ = BleUuidType::LONG;
   b675a:	2301      	movs	r3, #1
   b675c:	6123      	str	r3, [r4, #16]
}
   b675e:	4620      	mov	r0, r4
   b6760:	bd10      	pop	{r4, pc}
   b6762:	1e41      	subs	r1, r0, #1
                uuid128_[i] = uuid128[j];
   b6764:	f812 0d01 	ldrb.w	r0, [r2, #-1]!
   b6768:	f801 0f01 	strb.w	r0, [r1, #1]!
            for (uint8_t i = 0, j = BLE_SIG_UUID_128BIT_LEN - 1; i < BLE_SIG_UUID_128BIT_LEN; i++, j--) {
   b676c:	429a      	cmp	r2, r3
   b676e:	d1f9      	bne.n	b6764 <_ZN8particle7BleUuidC1EPKhNS_12BleUuidOrderE+0x28>
   b6770:	e7f3      	b.n	b675a <_ZN8particle7BleUuidC1EPKhNS_12BleUuidOrderE+0x1e>
        memset(uuid128_, 0x00, BLE_SIG_UUID_128BIT_LEN);
   b6772:	2210      	movs	r2, #16
   b6774:	f002 fff5 	bl	b9762 <memset>
   b6778:	e7f1      	b.n	b675e <_ZN8particle7BleUuidC1EPKhNS_12BleUuidOrderE+0x22>

000b677a <_ZN8particle7BleUuidC1EPKhtNS_12BleUuidOrderE>:
BleUuid::BleUuid(const uint8_t* uuid128, uint16_t uuid16, BleUuidOrder order)
   b677a:	b538      	push	{r3, r4, r5, lr}
   b677c:	4604      	mov	r4, r0
   b677e:	4615      	mov	r5, r2
        : BleUuid(uuid128, order) {
   b6780:	461a      	mov	r2, r3
   b6782:	f7ff ffdb 	bl	b673c <_ZN8particle7BleUuidC1EPKhNS_12BleUuidOrderE>
    uuid128_[UUID16_LO] = (uint8_t)(uuid16 & 0x00FF);
   b6786:	81a5      	strh	r5, [r4, #12]
}
   b6788:	4620      	mov	r0, r4
   b678a:	bd38      	pop	{r3, r4, r5, pc}

000b678c <_ZNK8particle7BleUuid7isValidEv>:
bool BleUuid::isValid() const {
   b678c:	b508      	push	{r3, lr}
    if (type() == BleUuidType::SHORT) {
   b678e:	6902      	ldr	r2, [r0, #16]
   b6790:	b922      	cbnz	r2, b679c <_ZNK8particle7BleUuid7isValidEv+0x10>
        return (uuid128_[UUID16_LO] != 0x00 || uuid128_[UUID16_HI] != 0x00);
   b6792:	8980      	ldrh	r0, [r0, #12]
        return memcmp(uuid128_, BASE_UUID, BLE_SIG_UUID_128BIT_LEN);
   b6794:	3800      	subs	r0, #0
   b6796:	bf18      	it	ne
   b6798:	2001      	movne	r0, #1
}
   b679a:	bd08      	pop	{r3, pc}
        return memcmp(uuid128_, BASE_UUID, BLE_SIG_UUID_128BIT_LEN);
   b679c:	4902      	ldr	r1, [pc, #8]	; (b67a8 <_ZNK8particle7BleUuid7isValidEv+0x1c>)
   b679e:	2210      	movs	r2, #16
   b67a0:	f002 ffa7 	bl	b96f2 <memcmp>
   b67a4:	e7f6      	b.n	b6794 <_ZNK8particle7BleUuid7isValidEv+0x8>
   b67a6:	bf00      	nop
   b67a8:	000bc06e 	.word	0x000bc06e

000b67ac <_ZNK8particle7BleUuid4typeEv>:
}
   b67ac:	6900      	ldr	r0, [r0, #16]
   b67ae:	4770      	bx	lr

000b67b0 <_ZN8particle7BleUuid7halUUIDEv>:
hal_ble_uuid_t BleUuid::halUUID() {
   b67b0:	b538      	push	{r3, r4, r5, lr}
   b67b2:	460c      	mov	r4, r1
    hal_ble_uuid_t uuid = {};
   b67b4:	2214      	movs	r2, #20
   b67b6:	2100      	movs	r1, #0
hal_ble_uuid_t BleUuid::halUUID() {
   b67b8:	4605      	mov	r5, r0
    hal_ble_uuid_t uuid = {};
   b67ba:	f002 ffd2 	bl	b9762 <memset>
    if (type_ == BleUuidType::SHORT) {
   b67be:	6923      	ldr	r3, [r4, #16]
   b67c0:	b91b      	cbnz	r3, b67ca <_ZN8particle7BleUuid7halUUIDEv+0x1a>
        uuid.uuid16 = (uint16_t)uuid128_[UUID16_LO] | ((uint16_t)uuid128_[UUID16_HI] << 8);
   b67c2:	89a3      	ldrh	r3, [r4, #12]
   b67c4:	802b      	strh	r3, [r5, #0]
}
   b67c6:	4628      	mov	r0, r5
   b67c8:	bd38      	pop	{r3, r4, r5, pc}
        uuid.type = BLE_UUID_TYPE_128BIT;
   b67ca:	2301      	movs	r3, #1
   b67cc:	742b      	strb	r3, [r5, #16]
        memcpy(uuid.uuid128, uuid128_, BLE_SIG_UUID_128BIT_LEN);
   b67ce:	4621      	mov	r1, r4
   b67d0:	462b      	mov	r3, r5
   b67d2:	f104 0210 	add.w	r2, r4, #16
   b67d6:	f851 0b04 	ldr.w	r0, [r1], #4
   b67da:	f843 0b04 	str.w	r0, [r3], #4
   b67de:	4291      	cmp	r1, r2
   b67e0:	d1f9      	bne.n	b67d6 <_ZN8particle7BleUuid7halUUIDEv+0x26>
   b67e2:	e7f0      	b.n	b67c6 <_ZN8particle7BleUuid7halUUIDEv+0x16>

000b67e4 <_ZNK8particle7BleUuid7shortedEv>:
}
   b67e4:	8980      	ldrh	r0, [r0, #12]
   b67e6:	4770      	bx	lr

000b67e8 <_ZNK8particle7BleUuid8rawBytesEv>:
}
   b67e8:	4770      	bx	lr

000b67ea <_ZNK8particle7BleUuideqERKS0_>:
bool BleUuid::operator==(const BleUuid& uuid) const {
   b67ea:	b508      	push	{r3, lr}
    return ((type_ == uuid.type_) && !memcmp(uuid128_, uuid.uuid128_, BLE_SIG_UUID_128BIT_LEN));
   b67ec:	6902      	ldr	r2, [r0, #16]
   b67ee:	690b      	ldr	r3, [r1, #16]
   b67f0:	429a      	cmp	r2, r3
   b67f2:	d106      	bne.n	b6802 <_ZNK8particle7BleUuideqERKS0_+0x18>
   b67f4:	2210      	movs	r2, #16
   b67f6:	f002 ff7c 	bl	b96f2 <memcmp>
   b67fa:	fab0 f080 	clz	r0, r0
   b67fe:	0940      	lsrs	r0, r0, #5
}
   b6800:	bd08      	pop	{r3, pc}
    return ((type_ == uuid.type_) && !memcmp(uuid128_, uuid.uuid128_, BLE_SIG_UUID_128BIT_LEN));
   b6802:	2000      	movs	r0, #0
   b6804:	e7fc      	b.n	b6800 <_ZNK8particle7BleUuideqERKS0_+0x16>
	...

000b6808 <_ZN8particle7BleUuid9constructEPKc>:
    type_ = BleUuidType::LONG;
   b6808:	2301      	movs	r3, #1
void BleUuid::construct(const char* uuid) {
   b680a:	e92d 41f3 	stmdb	sp!, {r0, r1, r4, r5, r6, r7, r8, lr}
    type_ = BleUuidType::LONG;
   b680e:	6103      	str	r3, [r0, #16]
    memcpy(uuid128_, BASE_UUID, BLE_SIG_UUID_128BIT_LEN);
   b6810:	4b34      	ldr	r3, [pc, #208]	; (b68e4 <_ZN8particle7BleUuid9constructEPKc+0xdc>)
void BleUuid::construct(const char* uuid) {
   b6812:	460c      	mov	r4, r1
   b6814:	4606      	mov	r6, r0
    memcpy(uuid128_, BASE_UUID, BLE_SIG_UUID_128BIT_LEN);
   b6816:	4602      	mov	r2, r0
   b6818:	f103 0110 	add.w	r1, r3, #16
   b681c:	f853 0b04 	ldr.w	r0, [r3], #4
   b6820:	f842 0b04 	str.w	r0, [r2], #4
   b6824:	428b      	cmp	r3, r1
   b6826:	d1f9      	bne.n	b681c <_ZN8particle7BleUuid9constructEPKc+0x14>
    if (uuid == nullptr) {
   b6828:	b344      	cbz	r4, b687c <_ZN8particle7BleUuid9constructEPKc+0x74>
    if (strnlen(uuid, BLE_SIG_UUID_128BIT_LEN * 2 + 4) == (BLE_SIG_UUID_16BIT_LEN * 2)) {
   b682a:	2124      	movs	r1, #36	; 0x24
   b682c:	4620      	mov	r0, r4
   b682e:	f003 f82a 	bl	b9886 <strnlen>
   b6832:	2804      	cmp	r0, #4
   b6834:	f04f 0500 	mov.w	r5, #0
   b6838:	d123      	bne.n	b6882 <_ZN8particle7BleUuid9constructEPKc+0x7a>
        char buf[2] = {};
   b683a:	f8ad 5004 	strh.w	r5, [sp, #4]
   b683e:	af01      	add	r7, sp, #4
   b6840:	1ca5      	adds	r5, r4, #2
   b6842:	3406      	adds	r4, #6

inline size_t hexToBytes(const char* src, char* dest, size_t size) {
    size_t n = 0;
    while (n < size) {
        const int h = hexToNibble(*src++);
   b6844:	f815 0c02 	ldrb.w	r0, [r5, #-2]
   b6848:	f7ff ff0d 	bl	b6666 <_ZN8particle11hexToNibbleEc>
        if (h < 0) {
   b684c:	f1b0 0800 	subs.w	r8, r0, #0
   b6850:	db12      	blt.n	b6878 <_ZN8particle7BleUuid9constructEPKc+0x70>
            break;
        }
        const int l = hexToNibble(*src++);
   b6852:	f815 0c01 	ldrb.w	r0, [r5, #-1]
   b6856:	f7ff ff06 	bl	b6666 <_ZN8particle11hexToNibbleEc>
        if (l < 0) {
   b685a:	2800      	cmp	r0, #0
   b685c:	db0c      	blt.n	b6878 <_ZN8particle7BleUuid9constructEPKc+0x70>
    while (n < size) {
   b685e:	3502      	adds	r5, #2
            break;
        }
        *dest++ = ((unsigned)h << 4) | (unsigned)l;
   b6860:	ea40 1008 	orr.w	r0, r0, r8, lsl #4
    while (n < size) {
   b6864:	42a5      	cmp	r5, r4
        *dest++ = ((unsigned)h << 4) | (unsigned)l;
   b6866:	f807 0b01 	strb.w	r0, [r7], #1
    while (n < size) {
   b686a:	d1eb      	bne.n	b6844 <_ZN8particle7BleUuid9constructEPKc+0x3c>
            uuid128_[UUID16_LO] = buf[1];
   b686c:	f89d 3005 	ldrb.w	r3, [sp, #5]
   b6870:	7333      	strb	r3, [r6, #12]
            uuid128_[UUID16_HI] = buf[0];
   b6872:	f89d 3004 	ldrb.w	r3, [sp, #4]
   b6876:	7373      	strb	r3, [r6, #13]
        type_ = BleUuidType::SHORT;
   b6878:	2300      	movs	r3, #0
   b687a:	6133      	str	r3, [r6, #16]
}
   b687c:	b002      	add	sp, #8
   b687e:	e8bd 81f0 	ldmia.w	sp!, {r4, r5, r6, r7, r8, pc}
    size_t len = BLE_SIG_UUID_128BIT_LEN;
   b6882:	f04f 0810 	mov.w	r8, #16
    for (size_t i = 0; i < strnlen(uuid, BLE_SIG_UUID_128BIT_LEN * 2 + 4) && len > 0; i++) {
   b6886:	2124      	movs	r1, #36	; 0x24
   b6888:	4620      	mov	r0, r4
   b688a:	f002 fffc 	bl	b9886 <strnlen>
   b688e:	42a8      	cmp	r0, r5
   b6890:	d807      	bhi.n	b68a2 <_ZN8particle7BleUuid9constructEPKc+0x9a>
        uuid128_[len - 1] = 0x00;
   b6892:	4642      	mov	r2, r8
   b6894:	2100      	movs	r1, #0
   b6896:	4630      	mov	r0, r6
}
   b6898:	b002      	add	sp, #8
   b689a:	e8bd 41f0 	ldmia.w	sp!, {r4, r5, r6, r7, r8, lr}
        uuid128_[len - 1] = 0x00;
   b689e:	f002 bf60 	b.w	b9762 <memset>
    for (size_t i = 0; i < strnlen(uuid, BLE_SIG_UUID_128BIT_LEN * 2 + 4) && len > 0; i++) {
   b68a2:	f1b8 0f00 	cmp.w	r8, #0
   b68a6:	d0e9      	beq.n	b687c <_ZN8particle7BleUuid9constructEPKc+0x74>
        int8_t hi = hexToNibble(uuid[i]);
   b68a8:	5d60      	ldrb	r0, [r4, r5]
   b68aa:	f7ff fedc 	bl	b6666 <_ZN8particle11hexToNibbleEc>
        if (hi >= 0) {
   b68ae:	0603      	lsls	r3, r0, #24
   b68b0:	d415      	bmi.n	b68de <_ZN8particle7BleUuid9constructEPKc+0xd6>
            uuid128_[len - 1] = hi << 4;
   b68b2:	0100      	lsls	r0, r0, #4
   b68b4:	f108 38ff 	add.w	r8, r8, #4294967295
   b68b8:	b2c7      	uxtb	r7, r0
   b68ba:	f806 7008 	strb.w	r7, [r6, r8]
            if (++i < strnlen(uuid, BLE_SIG_UUID_128BIT_LEN * 2 + 4)) {
   b68be:	2124      	movs	r1, #36	; 0x24
   b68c0:	4620      	mov	r0, r4
   b68c2:	f002 ffe0 	bl	b9886 <strnlen>
   b68c6:	3501      	adds	r5, #1
   b68c8:	42a8      	cmp	r0, r5
   b68ca:	d908      	bls.n	b68de <_ZN8particle7BleUuid9constructEPKc+0xd6>
                int8_t lo = hexToNibble(uuid[i]);
   b68cc:	5d60      	ldrb	r0, [r4, r5]
   b68ce:	f7ff feca 	bl	b6666 <_ZN8particle11hexToNibbleEc>
   b68d2:	b240      	sxtb	r0, r0
                if (lo >= 0) {
   b68d4:	2800      	cmp	r0, #0
                    uuid128_[len - 1] |= lo;
   b68d6:	bfa4      	itt	ge
   b68d8:	4338      	orrge	r0, r7
   b68da:	f806 0008 	strbge.w	r0, [r6, r8]
    for (size_t i = 0; i < strnlen(uuid, BLE_SIG_UUID_128BIT_LEN * 2 + 4) && len > 0; i++) {
   b68de:	3501      	adds	r5, #1
   b68e0:	e7d1      	b.n	b6886 <_ZN8particle7BleUuid9constructEPKc+0x7e>
   b68e2:	bf00      	nop
   b68e4:	000bc04e 	.word	0x000bc04e

000b68e8 <_ZN8particle7BleUuidC1EPKc>:
BleUuid::BleUuid(const char* uuid)
   b68e8:	b513      	push	{r0, r1, r4, lr}
   b68ea:	4604      	mov	r4, r0
   b68ec:	9101      	str	r1, [sp, #4]
        : BleUuid() {
   b68ee:	f7ff ff15 	bl	b671c <_ZN8particle7BleUuidC1Ev>
    construct(uuid);
   b68f2:	4620      	mov	r0, r4
   b68f4:	9901      	ldr	r1, [sp, #4]
   b68f6:	f7ff ff87 	bl	b6808 <_ZN8particle7BleUuid9constructEPKc>
}
   b68fa:	4620      	mov	r0, r4
   b68fc:	b002      	add	sp, #8
   b68fe:	bd10      	pop	{r4, pc}

000b6900 <_ZN8particle21BleCharacteristicImplC1Ev>:
    BleCharacteristicImpl()
   b6900:	b538      	push	{r3, r4, r5, lr}
              dataReceivedCallback_(nullptr) {
   b6902:	f64f 73ff 	movw	r3, #65535	; 0xffff
   b6906:	2500      	movs	r5, #0
    BleCharacteristicImpl()
   b6908:	4604      	mov	r4, r0
              dataReceivedCallback_(nullptr) {
   b690a:	8043      	strh	r3, [r0, #2]
   b690c:	220e      	movs	r2, #14
   b690e:	4629      	mov	r1, r5
   b6910:	7005      	strb	r5, [r0, #0]
        : value_(0) {
}

template<typename T>
inline particle::EnumFlags<T, typename std::enable_if_t<std::is_enum<T>::value>>::EnumFlags(const T& value) {
    value_ = static_cast<ValueType>(value);
   b6912:	7105      	strb	r5, [r0, #4]
   b6914:	3006      	adds	r0, #6
   b6916:	f002 ff24 	bl	b9762 <memset>
   b691a:	f104 0014 	add.w	r0, r4, #20
   b691e:	f7ff fefd 	bl	b671c <_ZN8particle7BleUuidC1Ev>
   b6922:	f104 0028 	add.w	r0, r4, #40	; 0x28
   b6926:	f7ff fef9 	bl	b671c <_ZN8particle7BleUuidC1Ev>
   b692a:	4904      	ldr	r1, [pc, #16]	; (b693c <_ZN8particle21BleCharacteristicImplC1Ev+0x3c>)
   b692c:	f104 003c 	add.w	r0, r4, #60	; 0x3c
   b6930:	f7ff fcfd 	bl	b632e <_ZN6StringC1EPK19__FlashStringHelper>
    _Function_base() : _M_manager(nullptr) { }
   b6934:	6565      	str	r5, [r4, #84]	; 0x54
    }
   b6936:	4620      	mov	r0, r4
   b6938:	bd38      	pop	{r3, r4, r5, pc}
   b693a:	bf00      	nop
   b693c:	000bbc5e 	.word	0x000bbc5e

000b6940 <_ZN8particle18BleLocalDeviceImpl14findPeerDeviceEt>:
    BlePeerDevice* findPeerDevice(BleConnectionHandle connHandle) {
   b6940:	b510      	push	{r4, lr}
    return data_;
}

template<typename T, typename AllocatorT>
T* spark::Vector<T, AllocatorT>::end() {
    return data_ + size_;
   b6942:	e9d0 3206 	ldrd	r3, r2, [r0, #24]
   b6946:	eb03 02c2 	add.w	r2, r3, r2, lsl #3
        for (auto& peer : peers_) {
   b694a:	4293      	cmp	r3, r2
   b694c:	4618      	mov	r0, r3
   b694e:	d006      	beq.n	b695e <_ZN8particle18BleLocalDeviceImpl14findPeerDeviceEt+0x1e>
            if (peer.impl()->connHandle() == connHandle) {
   b6950:	6804      	ldr	r4, [r0, #0]
   b6952:	8824      	ldrh	r4, [r4, #0]
   b6954:	428c      	cmp	r4, r1
   b6956:	f103 0308 	add.w	r3, r3, #8
   b695a:	d1f6      	bne.n	b694a <_ZN8particle18BleLocalDeviceImpl14findPeerDeviceEt+0xa>
    }
   b695c:	bd10      	pop	{r4, pc}
        return nullptr;
   b695e:	2000      	movs	r0, #0
   b6960:	e7fc      	b.n	b695c <_ZN8particle18BleLocalDeviceImpl14findPeerDeviceEt+0x1c>
	...

000b6964 <_ZN8particle17BleCharacteristic8setValueEPKhjNS_11BleTxRxTypeE>:
    len = std::min(len, desc.length());
    memcpy(buf, desc.c_str(), len);
    return len;
}

ssize_t BleCharacteristic::setValue(const uint8_t* buf, size_t len, BleTxRxType type) {
   b6964:	b5f0      	push	{r4, r5, r6, r7, lr}
   b6966:	4606      	mov	r6, r0
   b6968:	b085      	sub	sp, #20
   b696a:	461f      	mov	r7, r3
    if (buf == nullptr || len == 0) {
   b696c:	460d      	mov	r5, r1
   b696e:	2900      	cmp	r1, #0
   b6970:	d050      	beq.n	b6a14 <_ZN8particle17BleCharacteristic8setValueEPKhjNS_11BleTxRxTypeE+0xb0>
   b6972:	2a00      	cmp	r2, #0
   b6974:	d04e      	beq.n	b6a14 <_ZN8particle17BleCharacteristic8setValueEPKhjNS_11BleTxRxTypeE+0xb0>
        { __shared_ptr(__p, std::move(__d), std::move(__a)).swap(*this); }

      /// Return the stored pointer.
      element_type*
      get() const noexcept
      { return _M_ptr; }
   b6976:	6804      	ldr	r4, [r0, #0]
        return SYSTEM_ERROR_INVALID_ARGUMENT;
    }
    len = std::min(len, (size_t)BLE_MAX_ATTR_VALUE_PACKET_SIZE);
    if (impl()->isLocal()) {
   b6978:	7823      	ldrb	r3, [r4, #0]
   b697a:	2af4      	cmp	r2, #244	; 0xf4
   b697c:	bf28      	it	cs
   b697e:	22f4      	movcs	r2, #244	; 0xf4
   b6980:	b343      	cbz	r3, b69d4 <_ZN8particle17BleCharacteristic8setValueEPKhjNS_11BleTxRxTypeE+0x70>
    return (value_ > 0);
}

template<typename T>
inline bool particle::EnumFlags<T, typename std::enable_if_t<std::is_enum<T>::value>>::isSet(const EnumFlags<T>& flags) const {
    return ((value_ & flags.value_) == flags.value_);
   b6982:	7923      	ldrb	r3, [r4, #4]
        int ret = SYSTEM_ERROR_NOT_SUPPORTED;
        // Updates the local characteristic value for peer to read.
        if (impl()->properties().isSet(BleCharacteristicProperty::READ)) {
   b6984:	0798      	lsls	r0, r3, #30
   b6986:	d509      	bpl.n	b699c <_ZN8particle17BleCharacteristic8setValueEPKhjNS_11BleTxRxTypeE+0x38>
            ret = CHECK(hal_ble_gatt_server_set_characteristic_value(impl()->attrHandles().value_handle, buf, len, nullptr));
   b6988:	89a0      	ldrh	r0, [r4, #12]
   b698a:	9203      	str	r2, [sp, #12]
   b698c:	2300      	movs	r3, #0
   b698e:	f7fe fdf5 	bl	b557c <hal_ble_gatt_server_set_characteristic_value>
   b6992:	2800      	cmp	r0, #0
   b6994:	9a03      	ldr	r2, [sp, #12]
   b6996:	da03      	bge.n	b69a0 <_ZN8particle17BleCharacteristic8setValueEPKhjNS_11BleTxRxTypeE+0x3c>
            return hal_ble_gatt_client_write_with_response(impl()->connHandle(), impl()->attrHandles().value_handle, buf, len, nullptr);
        }
        return SYSTEM_ERROR_NOT_SUPPORTED;
    }
    return SYSTEM_ERROR_INVALID_STATE;
}
   b6998:	b005      	add	sp, #20
   b699a:	bdf0      	pop	{r4, r5, r6, r7, pc}
        int ret = SYSTEM_ERROR_NOT_SUPPORTED;
   b699c:	f06f 0077 	mvn.w	r0, #119	; 0x77
   b69a0:	6834      	ldr	r4, [r6, #0]
   b69a2:	7923      	ldrb	r3, [r4, #4]
        if (impl()->properties().isSet(BleCharacteristicProperty::NOTIFY) && type != BleTxRxType::ACK) {
   b69a4:	06d9      	lsls	r1, r3, #27
   b69a6:	d509      	bpl.n	b69bc <_ZN8particle17BleCharacteristic8setValueEPKhjNS_11BleTxRxTypeE+0x58>
   b69a8:	2f01      	cmp	r7, #1
   b69aa:	d007      	beq.n	b69bc <_ZN8particle17BleCharacteristic8setValueEPKhjNS_11BleTxRxTypeE+0x58>
            return hal_ble_gatt_server_notify_characteristic_value(impl()->attrHandles().value_handle, buf, len, nullptr);
   b69ac:	89a0      	ldrh	r0, [r4, #12]
   b69ae:	2300      	movs	r3, #0
   b69b0:	4629      	mov	r1, r5
}
   b69b2:	b005      	add	sp, #20
   b69b4:	e8bd 40f0 	ldmia.w	sp!, {r4, r5, r6, r7, lr}
            return hal_ble_gatt_server_notify_characteristic_value(impl()->attrHandles().value_handle, buf, len, nullptr);
   b69b8:	f7fe be12 	b.w	b55e0 <hal_ble_gatt_server_notify_characteristic_value>
        if (impl()->properties().isSet(BleCharacteristicProperty::INDICATE) && type != BleTxRxType::NACK) {
   b69bc:	069b      	lsls	r3, r3, #26
   b69be:	d5eb      	bpl.n	b6998 <_ZN8particle17BleCharacteristic8setValueEPKhjNS_11BleTxRxTypeE+0x34>
   b69c0:	2f02      	cmp	r7, #2
   b69c2:	d0e9      	beq.n	b6998 <_ZN8particle17BleCharacteristic8setValueEPKhjNS_11BleTxRxTypeE+0x34>
            return hal_ble_gatt_server_indicate_characteristic_value(impl()->attrHandles().value_handle, buf, len, nullptr);
   b69c4:	89a0      	ldrh	r0, [r4, #12]
   b69c6:	2300      	movs	r3, #0
   b69c8:	4629      	mov	r1, r5
}
   b69ca:	b005      	add	sp, #20
   b69cc:	e8bd 40f0 	ldmia.w	sp!, {r4, r5, r6, r7, lr}
            return hal_ble_gatt_server_indicate_characteristic_value(impl()->attrHandles().value_handle, buf, len, nullptr);
   b69d0:	f7fe be10 	b.w	b55f4 <hal_ble_gatt_server_indicate_characteristic_value>
    if (impl()->connHandle() != BLE_INVALID_CONN_HANDLE) {
   b69d4:	8860      	ldrh	r0, [r4, #2]
   b69d6:	f64f 71ff 	movw	r1, #65535	; 0xffff
   b69da:	4288      	cmp	r0, r1
   b69dc:	d01c      	beq.n	b6a18 <_ZN8particle17BleCharacteristic8setValueEPKhjNS_11BleTxRxTypeE+0xb4>
   b69de:	7921      	ldrb	r1, [r4, #4]
        if (impl()->properties().isSet(BleCharacteristicProperty::WRITE_WO_RSP) && type != BleTxRxType::ACK) {
   b69e0:	074e      	lsls	r6, r1, #29
   b69e2:	d501      	bpl.n	b69e8 <_ZN8particle17BleCharacteristic8setValueEPKhjNS_11BleTxRxTypeE+0x84>
   b69e4:	2f01      	cmp	r7, #1
   b69e6:	d104      	bne.n	b69f2 <_ZN8particle17BleCharacteristic8setValueEPKhjNS_11BleTxRxTypeE+0x8e>
        if (impl()->properties().isSet(BleCharacteristicProperty::WRITE) && type != BleTxRxType::NACK) {
   b69e8:	070b      	lsls	r3, r1, #28
   b69ea:	d409      	bmi.n	b6a00 <_ZN8particle17BleCharacteristic8setValueEPKhjNS_11BleTxRxTypeE+0x9c>
        return SYSTEM_ERROR_NOT_SUPPORTED;
   b69ec:	f06f 0077 	mvn.w	r0, #119	; 0x77
   b69f0:	e7d2      	b.n	b6998 <_ZN8particle17BleCharacteristic8setValueEPKhjNS_11BleTxRxTypeE+0x34>
            return hal_ble_gatt_client_write_without_response(impl()->connHandle(), impl()->attrHandles().value_handle, buf, len, nullptr);
   b69f2:	89a1      	ldrh	r1, [r4, #12]
   b69f4:	9300      	str	r3, [sp, #0]
   b69f6:	4613      	mov	r3, r2
   b69f8:	462a      	mov	r2, r5
   b69fa:	f7fe fdd3 	bl	b55a4 <hal_ble_gatt_client_write_without_response>
   b69fe:	e7cb      	b.n	b6998 <_ZN8particle17BleCharacteristic8setValueEPKhjNS_11BleTxRxTypeE+0x34>
        if (impl()->properties().isSet(BleCharacteristicProperty::WRITE) && type != BleTxRxType::NACK) {
   b6a00:	2f02      	cmp	r7, #2
   b6a02:	d0f3      	beq.n	b69ec <_ZN8particle17BleCharacteristic8setValueEPKhjNS_11BleTxRxTypeE+0x88>
            return hal_ble_gatt_client_write_with_response(impl()->connHandle(), impl()->attrHandles().value_handle, buf, len, nullptr);
   b6a04:	2300      	movs	r3, #0
   b6a06:	89a1      	ldrh	r1, [r4, #12]
   b6a08:	9300      	str	r3, [sp, #0]
   b6a0a:	4613      	mov	r3, r2
   b6a0c:	462a      	mov	r2, r5
   b6a0e:	f7fe fdbf 	bl	b5590 <hal_ble_gatt_client_write_with_response>
   b6a12:	e7c1      	b.n	b6998 <_ZN8particle17BleCharacteristic8setValueEPKhjNS_11BleTxRxTypeE+0x34>
        return SYSTEM_ERROR_INVALID_ARGUMENT;
   b6a14:	4802      	ldr	r0, [pc, #8]	; (b6a20 <_ZN8particle17BleCharacteristic8setValueEPKhjNS_11BleTxRxTypeE+0xbc>)
   b6a16:	e7bf      	b.n	b6998 <_ZN8particle17BleCharacteristic8setValueEPKhjNS_11BleTxRxTypeE+0x34>
    return SYSTEM_ERROR_INVALID_STATE;
   b6a18:	f06f 00d1 	mvn.w	r0, #209	; 0xd1
   b6a1c:	e7bc      	b.n	b6998 <_ZN8particle17BleCharacteristic8setValueEPKhjNS_11BleTxRxTypeE+0x34>
   b6a1e:	bf00      	nop
   b6a20:	fffffef2 	.word	0xfffffef2

000b6a24 <_ZN8particle17BleCharacteristic8setValueERK6StringNS_11BleTxRxTypeE>:

ssize_t BleCharacteristic::setValue(const String& str, BleTxRxType type) {
   b6a24:	4613      	mov	r3, r2
    return setValue(reinterpret_cast<const uint8_t*>(str.c_str()), str.length(), type);
   b6a26:	688a      	ldr	r2, [r1, #8]
   b6a28:	6809      	ldr	r1, [r1, #0]
   b6a2a:	f7ff bf9b 	b.w	b6964 <_ZN8particle17BleCharacteristic8setValueEPKhjNS_11BleTxRxTypeE>
	...

000b6a30 <_ZN8particle10BleServiceC1ERKNS_7BleUuidE>:
    if (!impl()) {
        SPARK_ASSERT(false);
    }
}

BleService::BleService(const BleUuid& uuid)
   b6a30:	e92d 41f0 	stmdb	sp!, {r4, r5, r6, r7, r8, lr}

    protected:
      // This constructor is non-standard, it is used by allocate_shared.
      template<typename _Alloc, typename... _Args>
	__shared_ptr(_Sp_alloc_shared_tag<_Alloc> __tag, _Args&&... __args)
	: _M_ptr(), _M_refcount(_M_ptr, __tag, std::forward<_Args>(__args)...)
   b6a34:	2600      	movs	r6, #0
   b6a36:	6006      	str	r6, [r0, #0]
   b6a38:	4607      	mov	r7, r0
	return static_cast<_Tp*>(::operator new(__n * sizeof(_Tp)));
   b6a3a:	2028      	movs	r0, #40	; 0x28
   b6a3c:	460c      	mov	r4, r1
   b6a3e:	f7fd fb2a 	bl	b4096 <_Znwj>
	  auto __pi = ::new (__mem)
   b6a42:	1e05      	subs	r5, r0, #0
   b6a44:	f105 080c 	add.w	r8, r5, #12
   b6a48:	d00f      	beq.n	b6a6a <_ZN8particle10BleServiceC1ERKNS_7BleUuidE+0x3a>
      : _M_use_count(1), _M_weak_count(1) { }
   b6a4a:	2301      	movs	r3, #1
   b6a4c:	e9c5 3301 	strd	r3, r3, [r5, #4]
	: _M_impl(__a)
   b6a50:	4b08      	ldr	r3, [pc, #32]	; (b6a74 <_ZN8particle10BleServiceC1ERKNS_7BleUuidE+0x44>)
   b6a52:	602b      	str	r3, [r5, #0]
              characteristicsDiscovered_(false) {
   b6a54:	4640      	mov	r0, r8
   b6a56:	f7ff fe61 	bl	b671c <_ZN8particle7BleUuidC1Ev>
        uuid_ = svcUuid;
   b6a5a:	cc0f      	ldmia	r4!, {r0, r1, r2, r3}
              characteristicsDiscovered_(false) {
   b6a5c:	622e      	str	r6, [r5, #32]
   b6a5e:	f885 6024 	strb.w	r6, [r5, #36]	; 0x24
        uuid_ = svcUuid;
   b6a62:	4646      	mov	r6, r8
   b6a64:	c60f      	stmia	r6!, {r0, r1, r2, r3}
   b6a66:	6823      	ldr	r3, [r4, #0]
   b6a68:	6033      	str	r3, [r6, #0]
	  __p = __pi->_M_ptr();
   b6a6a:	e9c7 8500 	strd	r8, r5, [r7]
        : impl_(std::make_shared<BleServiceImpl>(uuid)) {
    if (!impl()) {
        SPARK_ASSERT(false);
    }
}
   b6a6e:	4638      	mov	r0, r7
   b6a70:	e8bd 81f0 	ldmia.w	sp!, {r4, r5, r6, r7, r8, pc}
   b6a74:	000bc010 	.word	0x000bc010

000b6a78 <_ZN8particle13BlePeerDeviceC1Ev>:


/*******************************************************
 * BlePeerDevice class
 */
BlePeerDevice::BlePeerDevice()
   b6a78:	b570      	push	{r4, r5, r6, lr}
	: _M_ptr(), _M_refcount(_M_ptr, __tag, std::forward<_Args>(__args)...)
   b6a7a:	2500      	movs	r5, #0
   b6a7c:	6005      	str	r5, [r0, #0]
   b6a7e:	4606      	mov	r6, r0
   b6a80:	2030      	movs	r0, #48	; 0x30
   b6a82:	f7fd fb08 	bl	b4096 <_Znwj>
	  auto __pi = ::new (__mem)
   b6a86:	4604      	mov	r4, r0
   b6a88:	b188      	cbz	r0, b6aae <_ZN8particle13BlePeerDeviceC1Ev+0x36>
      : _M_use_count(1), _M_weak_count(1) { }
   b6a8a:	2301      	movs	r3, #1
   b6a8c:	e9c0 3301 	strd	r3, r3, [r0, #4]
	: _M_impl(__a)
   b6a90:	4b09      	ldr	r3, [pc, #36]	; (b6ab8 <_ZN8particle13BlePeerDeviceC1Ev+0x40>)
   b6a92:	6003      	str	r3, [r0, #0]
              servicesDiscovered_(false) {
   b6a94:	f64f 73ff 	movw	r3, #65535	; 0xffff
   b6a98:	8183      	strh	r3, [r0, #12]
   b6a9a:	300e      	adds	r0, #14
   b6a9c:	f7ff fe33 	bl	b6706 <_ZN8particle10BleAddressC1Ev>
        capacity_(0) {
   b6aa0:	e9c4 5506 	strd	r5, r5, [r4, #24]
   b6aa4:	e9c4 5508 	strd	r5, r5, [r4, #32]
   b6aa8:	e9c4 550a 	strd	r5, r5, [r4, #40]	; 0x28
   b6aac:	75a5      	strb	r5, [r4, #22]
	  _M_pi = __pi;
   b6aae:	6074      	str	r4, [r6, #4]
   b6ab0:	340c      	adds	r4, #12
	  __p = __pi->_M_ptr();
   b6ab2:	6034      	str	r4, [r6, #0]
        : impl_(std::make_shared<BlePeerDeviceImpl>()) {
    if (!impl()) {
        SPARK_ASSERT(false);
    }
}
   b6ab4:	4630      	mov	r0, r6
   b6ab6:	bd70      	pop	{r4, r5, r6, pc}
   b6ab8:	000bc02c 	.word	0x000bc02c

000b6abc <_ZNK8particle13BlePeerDevice7addressEv>:
void BlePeerDevice::bind(const BleAddress& address) const {
    WiringBleLock lk;
    impl()->address() = address;
}

BleAddress BlePeerDevice::address() const {
   b6abc:	b537      	push	{r0, r1, r2, r4, r5, lr}
   b6abe:	460d      	mov	r5, r1
   b6ac0:	4604      	mov	r4, r0
    WiringBleLock lk;
   b6ac2:	a801      	add	r0, sp, #4
   b6ac4:	f7ff fde4 	bl	b6690 <_ZN8particle3ble13WiringBleLockC1Ev>
      { return _M_ptr; }
   b6ac8:	682a      	ldr	r2, [r5, #0]
    address_ = addr.address_;
   b6aca:	f8d2 3002 	ldr.w	r3, [r2, #2]
   b6ace:	6023      	str	r3, [r4, #0]
   b6ad0:	f8d2 3006 	ldr.w	r3, [r2, #6]
   b6ad4:	6063      	str	r3, [r4, #4]
    WiringBleLock lk;
   b6ad6:	a801      	add	r0, sp, #4
   b6ad8:	f7ff fde8 	bl	b66ac <_ZN8particle3ble13WiringBleLockD1Ev>
    return impl()->address();
}
   b6adc:	4620      	mov	r0, r4
   b6ade:	b003      	add	sp, #12
   b6ae0:	bd30      	pop	{r4, r5, pc}

000b6ae2 <_ZNK8particle13BlePeerDeviceeqERKS0_>:
bool BlePeerDevice::isValid() const {
    WiringBleLock lk;
    return impl()->connHandle() != BLE_INVALID_CONN_HANDLE;
}

bool BlePeerDevice::operator==(const BlePeerDevice& device) const {
   b6ae2:	b530      	push	{r4, r5, lr}
   b6ae4:	4605      	mov	r5, r0
   b6ae6:	b087      	sub	sp, #28
   b6ae8:	460c      	mov	r4, r1
    WiringBleLock lk;
   b6aea:	a801      	add	r0, sp, #4
   b6aec:	f7ff fdd0 	bl	b6690 <_ZN8particle3ble13WiringBleLockC1Ev>
    if (impl()->connHandle() == device.impl()->connHandle() && address() == device.address()) {
   b6af0:	682a      	ldr	r2, [r5, #0]
   b6af2:	6823      	ldr	r3, [r4, #0]
   b6af4:	8812      	ldrh	r2, [r2, #0]
   b6af6:	881b      	ldrh	r3, [r3, #0]
   b6af8:	429a      	cmp	r2, r3
   b6afa:	d10d      	bne.n	b6b18 <_ZNK8particle13BlePeerDeviceeqERKS0_+0x36>
   b6afc:	4629      	mov	r1, r5
   b6afe:	a802      	add	r0, sp, #8
   b6b00:	f7ff ffdc 	bl	b6abc <_ZNK8particle13BlePeerDevice7addressEv>
   b6b04:	4621      	mov	r1, r4
   b6b06:	a804      	add	r0, sp, #16
   b6b08:	f7ff ffd8 	bl	b6abc <_ZNK8particle13BlePeerDevice7addressEv>
   b6b0c:	a904      	add	r1, sp, #16
   b6b0e:	a802      	add	r0, sp, #8
   b6b10:	f7ff fde5 	bl	b66de <_ZNK8particle10BleAddresseqERKS0_>
   b6b14:	4604      	mov	r4, r0
   b6b16:	b900      	cbnz	r0, b6b1a <_ZNK8particle13BlePeerDeviceeqERKS0_+0x38>
        return true;
    }
    return false;
   b6b18:	2400      	movs	r4, #0
    WiringBleLock lk;
   b6b1a:	a801      	add	r0, sp, #4
   b6b1c:	f7ff fdc6 	bl	b66ac <_ZN8particle3ble13WiringBleLockD1Ev>
}
   b6b20:	4620      	mov	r0, r4
   b6b22:	b007      	add	sp, #28
   b6b24:	bd30      	pop	{r4, r5, pc}
	...

000b6b28 <_ZN8particle14BleLocalDeviceC1Ev>:


/*******************************************************
 * BleLocalDevice class
 */
BleLocalDevice::BleLocalDevice()
   b6b28:	b510      	push	{r4, lr}
   b6b2a:	4604      	mov	r4, r0

  /// std::make_unique for single objects
  template<typename _Tp, typename... _Args>
    inline typename _MakeUniq<_Tp>::__single_object
    make_unique(_Args&&... __args)
    { return unique_ptr<_Tp>(new _Tp(std::forward<_Args>(__args)...)); }
   b6b2c:	2064      	movs	r0, #100	; 0x64
   b6b2e:	f7fd fab2 	bl	b4096 <_Znwj>
   b6b32:	b168      	cbz	r0, b6b50 <_ZN8particle14BleLocalDeviceC1Ev+0x28>
   b6b34:	2300      	movs	r3, #0
   b6b36:	e9c0 3300 	strd	r3, r3, [r0]
   b6b3a:	e9c0 3302 	strd	r3, r3, [r0, #8]
   b6b3e:	e9c0 3304 	strd	r3, r3, [r0, #16]
   b6b42:	e9c0 3306 	strd	r3, r3, [r0, #24]
   b6b46:	6203      	str	r3, [r0, #32]
   b6b48:	62c3      	str	r3, [r0, #44]	; 0x2c
   b6b4a:	63c3      	str	r3, [r0, #60]	; 0x3c
   b6b4c:	64c3      	str	r3, [r0, #76]	; 0x4c
   b6b4e:	65c3      	str	r3, [r0, #92]	; 0x5c
      __uniq_ptr_impl(pointer __p) : _M_t() { _M_ptr() = __p; }
   b6b50:	6020      	str	r0, [r4, #0]
        : impl_(std::make_unique<BleLocalDeviceImpl>()) {
    if (!impl()) {
   b6b52:	b920      	cbnz	r0, b6b5e <_ZN8particle14BleLocalDeviceC1Ev+0x36>
        SPARK_ASSERT(false);
   b6b54:	4a0a      	ldr	r2, [pc, #40]	; (b6b80 <_ZN8particle14BleLocalDeviceC1Ev+0x58>)
   b6b56:	490b      	ldr	r1, [pc, #44]	; (b6b84 <_ZN8particle14BleLocalDeviceC1Ev+0x5c>)
   b6b58:	200a      	movs	r0, #10
   b6b5a:	f7fe feb5 	bl	b58c8 <panic_>
    }
    SPARK_ASSERT(hal_ble_stack_init(nullptr) == SYSTEM_ERROR_NONE);
   b6b5e:	2000      	movs	r0, #0
   b6b60:	f7fe fcd8 	bl	b5514 <hal_ble_stack_init>
   b6b64:	b120      	cbz	r0, b6b70 <_ZN8particle14BleLocalDeviceC1Ev+0x48>
   b6b66:	4a06      	ldr	r2, [pc, #24]	; (b6b80 <_ZN8particle14BleLocalDeviceC1Ev+0x58>)
   b6b68:	4907      	ldr	r1, [pc, #28]	; (b6b88 <_ZN8particle14BleLocalDeviceC1Ev+0x60>)
   b6b6a:	200a      	movs	r0, #10
   b6b6c:	f7fe feac 	bl	b58c8 <panic_>
    hal_ble_set_callback_on_periph_link_events(impl()->onBleLinkEvents, impl(), nullptr);
   b6b70:	6821      	ldr	r1, [r4, #0]
   b6b72:	4806      	ldr	r0, [pc, #24]	; (b6b8c <_ZN8particle14BleLocalDeviceC1Ev+0x64>)
   b6b74:	2200      	movs	r2, #0
   b6b76:	f7fe fd29 	bl	b55cc <hal_ble_set_callback_on_periph_link_events>
}
   b6b7a:	4620      	mov	r0, r4
   b6b7c:	bd10      	pop	{r4, pc}
   b6b7e:	bf00      	nop
   b6b80:	000b54c5 	.word	0x000b54c5
   b6b84:	000bbea0 	.word	0x000bbea0
   b6b88:	000bbede 	.word	0x000bbede
   b6b8c:	000b7155 	.word	0x000b7155

000b6b90 <_ZN8particle14BleLocalDevice11getInstanceEv>:

BleLocalDevice& BleLocalDevice::getInstance() {
   b6b90:	b510      	push	{r4, lr}
    static BleLocalDevice instance;
   b6b92:	4c0a      	ldr	r4, [pc, #40]	; (b6bbc <_ZN8particle14BleLocalDevice11getInstanceEv+0x2c>)
   b6b94:	7823      	ldrb	r3, [r4, #0]
   b6b96:	f3bf 8f5b 	dmb	ish
   b6b9a:	07db      	lsls	r3, r3, #31
   b6b9c:	d40c      	bmi.n	b6bb8 <_ZN8particle14BleLocalDevice11getInstanceEv+0x28>
   b6b9e:	4620      	mov	r0, r4
   b6ba0:	f7fd fa7f 	bl	b40a2 <__cxa_guard_acquire>
   b6ba4:	b140      	cbz	r0, b6bb8 <_ZN8particle14BleLocalDevice11getInstanceEv+0x28>
   b6ba6:	4806      	ldr	r0, [pc, #24]	; (b6bc0 <_ZN8particle14BleLocalDevice11getInstanceEv+0x30>)
   b6ba8:	f7ff ffbe 	bl	b6b28 <_ZN8particle14BleLocalDeviceC1Ev>
   b6bac:	4620      	mov	r0, r4
   b6bae:	f7fd fa7d 	bl	b40ac <__cxa_guard_release>
   b6bb2:	4804      	ldr	r0, [pc, #16]	; (b6bc4 <_ZN8particle14BleLocalDevice11getInstanceEv+0x34>)
   b6bb4:	f002 fd90 	bl	b96d8 <atexit>
    return instance;
}
   b6bb8:	4801      	ldr	r0, [pc, #4]	; (b6bc0 <_ZN8particle14BleLocalDevice11getInstanceEv+0x30>)
   b6bba:	bd10      	pop	{r4, pc}
   b6bbc:	2003e68c 	.word	0x2003e68c
   b6bc0:	2003e698 	.word	0x2003e698
   b6bc4:	000b6dfd 	.word	0x000b6dfd

000b6bc8 <_ZN8particle21BleCharacteristicImpl15onBleCharEventsEPK18hal_ble_char_evt_tPv>:
void BleCharacteristicImpl::onBleCharEvents(const hal_ble_char_evt_t *event, void* context) {
   b6bc8:	b530      	push	{r4, r5, lr}
    switch (event->type) {
   b6bca:	6803      	ldr	r3, [r0, #0]
   b6bcc:	3b09      	subs	r3, #9
   b6bce:	2b01      	cmp	r3, #1
void BleCharacteristicImpl::onBleCharEvents(const hal_ble_char_evt_t *event, void* context) {
   b6bd0:	b08d      	sub	sp, #52	; 0x34
   b6bd2:	4604      	mov	r4, r0
   b6bd4:	460d      	mov	r5, r1
    switch (event->type) {
   b6bd6:	d811      	bhi.n	b6bfc <_ZN8particle21BleCharacteristicImpl15onBleCharEventsEPK18hal_ble_char_evt_tPv+0x34>
            auto peer = BleLocalDevice::getInstance().impl()->findPeerDevice(event->conn_handle);
   b6bd8:	f7ff ffda 	bl	b6b90 <_ZN8particle14BleLocalDevice11getInstanceEv>
   b6bdc:	88a1      	ldrh	r1, [r4, #4]
   b6bde:	6800      	ldr	r0, [r0, #0]
   b6be0:	f7ff feae 	bl	b6940 <_ZN8particle18BleLocalDeviceImpl14findPeerDeviceEt>
            if (!peer) {
   b6be4:	4603      	mov	r3, r0
   b6be6:	b958      	cbnz	r0, b6c00 <_ZN8particle21BleCharacteristicImpl15onBleCharEventsEPK18hal_ble_char_evt_tPv+0x38>
                LOG(ERROR, "Peer device is missing!");
   b6be8:	2220      	movs	r2, #32
   b6bea:	e9cd 2004 	strd	r2, r0, [sp, #16]
   b6bee:	4a0b      	ldr	r2, [pc, #44]	; (b6c1c <_ZN8particle21BleCharacteristicImpl15onBleCharEventsEPK18hal_ble_char_evt_tPv+0x54>)
   b6bf0:	9200      	str	r2, [sp, #0]
   b6bf2:	490b      	ldr	r1, [pc, #44]	; (b6c20 <_ZN8particle21BleCharacteristicImpl15onBleCharEventsEPK18hal_ble_char_evt_tPv+0x58>)
   b6bf4:	aa04      	add	r2, sp, #16
   b6bf6:	2032      	movs	r0, #50	; 0x32
   b6bf8:	f7fe fe6e 	bl	b58d8 <log_message>
}
   b6bfc:	b00d      	add	sp, #52	; 0x34
   b6bfe:	bd30      	pop	{r4, r5, pc}
            if (impl->dataReceivedCallback_) {
   b6c00:	6d6a      	ldr	r2, [r5, #84]	; 0x54
   b6c02:	2a00      	cmp	r2, #0
   b6c04:	d0fa      	beq.n	b6bfc <_ZN8particle21BleCharacteristicImpl15onBleCharEventsEPK18hal_ble_char_evt_tPv+0x34>
                impl->dataReceivedCallback_(event->params.data_written.data, event->params.data_written.len, *peer);
   b6c06:	e9d4 2103 	ldrd	r2, r1, [r4, #12]
      return _M_invoker(_M_functor, std::forward<_ArgTypes>(__args)...);
   b6c0a:	f105 004c 	add.w	r0, r5, #76	; 0x4c
   b6c0e:	e9cd 1203 	strd	r1, r2, [sp, #12]
   b6c12:	6dac      	ldr	r4, [r5, #88]	; 0x58
   b6c14:	aa04      	add	r2, sp, #16
   b6c16:	a903      	add	r1, sp, #12
   b6c18:	47a0      	blx	r4
}
   b6c1a:	e7ef      	b.n	b6bfc <_ZN8particle21BleCharacteristicImpl15onBleCharEventsEPK18hal_ble_char_evt_tPv+0x34>
   b6c1c:	000bbf20 	.word	0x000bbf20
   b6c20:	000bbeb7 	.word	0x000bbeb7

000b6c24 <_ZNK8particle14BleLocalDevice2onEv>:
    stopAdvertising(); // BLE HAL will guard that device keeps broadcasting if device is in the Listening/Provisioning mode.
    stopScanning();
    return SYSTEM_ERROR_NONE;
}

int BleLocalDevice::on() const {
   b6c24:	b508      	push	{r3, lr}
    CHECK(hal_ble_stack_init(nullptr));
   b6c26:	2000      	movs	r0, #0
   b6c28:	f7fe fc74 	bl	b5514 <hal_ble_stack_init>
    return SYSTEM_ERROR_NONE;
}
   b6c2c:	ea00 70e0 	and.w	r0, r0, r0, asr #31
   b6c30:	bd08      	pop	{r3, pc}

000b6c32 <_ZNK8particle14BleLocalDevice18setAdvertisingDataEPNS_18BleAdvertisingDataE>:
int BleLocalDevice::getAdvertisingParameters(BleAdvertisingParams& params) const {
    return getAdvertisingParameters(&params);
}

int BleLocalDevice::setAdvertisingData(BleAdvertisingData* advertisingData) const {
    if (advertisingData == nullptr) {
   b6c32:	b919      	cbnz	r1, b6c3c <_ZNK8particle14BleLocalDevice18setAdvertisingDataEPNS_18BleAdvertisingDataE+0xa>
        return hal_ble_gap_set_advertising_data(nullptr, 0, nullptr);
   b6c34:	460a      	mov	r2, r1
   b6c36:	4608      	mov	r0, r1
    } else {
        return hal_ble_gap_set_advertising_data(advertisingData->data(), advertisingData->length(), nullptr);
   b6c38:	f7fe bc74 	b.w	b5524 <hal_ble_gap_set_advertising_data>
   b6c3c:	e9d1 0100 	ldrd	r0, r1, [r1]
   b6c40:	2200      	movs	r2, #0
   b6c42:	e7f9      	b.n	b6c38 <_ZNK8particle14BleLocalDevice18setAdvertisingDataEPNS_18BleAdvertisingDataE+0x6>

000b6c44 <_ZN5spark6VectorIhNS_16DefaultAllocatorEE8removeAtEii>:
inline void spark::Vector<T, AllocatorT>::removeAt(int i, int n) {
   b6c44:	b538      	push	{r3, r4, r5, lr}
    if (n < 0 || i + n > size_) {
   b6c46:	1e14      	subs	r4, r2, #0
   b6c48:	6843      	ldr	r3, [r0, #4]
inline void spark::Vector<T, AllocatorT>::removeAt(int i, int n) {
   b6c4a:	4605      	mov	r5, r0
    if (n < 0 || i + n > size_) {
   b6c4c:	db02      	blt.n	b6c54 <_ZN5spark6VectorIhNS_16DefaultAllocatorEE8removeAtEii+0x10>
   b6c4e:	1862      	adds	r2, r4, r1
   b6c50:	429a      	cmp	r2, r3
   b6c52:	dd00      	ble.n	b6c56 <_ZN5spark6VectorIhNS_16DefaultAllocatorEE8removeAtEii+0x12>
        n = size_ - i;
   b6c54:	1a5c      	subs	r4, r3, r1
    T* const p = data_ + i;
   b6c56:	682a      	ldr	r2, [r5, #0]
   b6c58:	1850      	adds	r0, r2, r1
    destruct(p, p + n);
   b6c5a:	1901      	adds	r1, r0, r4
    move(p, p + n, data_ + size_);
   b6c5c:	441a      	add	r2, r3
        ::memmove(dest, p, (end - p) * sizeof(T));
   b6c5e:	1a52      	subs	r2, r2, r1
   b6c60:	f002 fd65 	bl	b972e <memmove>
    size_ -= n;
   b6c64:	686a      	ldr	r2, [r5, #4]
   b6c66:	1b12      	subs	r2, r2, r4
   b6c68:	606a      	str	r2, [r5, #4]
}
   b6c6a:	bd38      	pop	{r3, r4, r5, pc}

000b6c6c <_ZN8particle18BleAdvertisingData6removeENS_22BleAdvertisingDataTypeE>:
void BleAdvertisingData::remove(BleAdvertisingDataType type) {
   b6c6c:	b537      	push	{r0, r1, r2, r4, r5, lr}
    if (offset == nullptr) {
   b6c6e:	460a      	mov	r2, r1
void BleAdvertisingData::remove(BleAdvertisingDataType type) {
   b6c70:	4604      	mov	r4, r0
   b6c72:	460d      	mov	r5, r1
   b6c74:	ab01      	add	r3, sp, #4
   b6c76:	e9d0 0100 	ldrd	r0, r1, [r0]
   b6c7a:	f7ff fc77 	bl	b656c <_ZN8particle18BleAdvertisingData6locateEPKhjNS_22BleAdvertisingDataTypeEPj.part.0>
    if (len > 0) {
   b6c7e:	4602      	mov	r2, r0
   b6c80:	b138      	cbz	r0, b6c92 <_ZN8particle18BleAdvertisingData6removeENS_22BleAdvertisingDataTypeE+0x26>
        selfData_.removeAt(offset, len);
   b6c82:	9901      	ldr	r1, [sp, #4]
   b6c84:	4620      	mov	r0, r4
   b6c86:	f7ff ffdd 	bl	b6c44 <_ZN5spark6VectorIhNS_16DefaultAllocatorEE8removeAtEii>
        remove(type);
   b6c8a:	4629      	mov	r1, r5
   b6c8c:	4620      	mov	r0, r4
   b6c8e:	f7ff ffed 	bl	b6c6c <_ZN8particle18BleAdvertisingData6removeENS_22BleAdvertisingDataTypeE>
}
   b6c92:	b003      	add	sp, #12
   b6c94:	bd30      	pop	{r4, r5, pc}

000b6c96 <_ZNK8particle14BleLocalDevice19setScanResponseDataEPNS_18BleAdvertisingDataE>:

int BleLocalDevice::setAdvertisingData(BleAdvertisingData& advertisingData) const {
    return setAdvertisingData(&advertisingData);
}

int BleLocalDevice::setScanResponseData(BleAdvertisingData* scanResponse) const {
   b6c96:	b510      	push	{r4, lr}
    if (scanResponse == nullptr) {
   b6c98:	460c      	mov	r4, r1
   b6c9a:	b929      	cbnz	r1, b6ca8 <_ZNK8particle14BleLocalDevice19setScanResponseDataEPNS_18BleAdvertisingDataE+0x12>
        return hal_ble_gap_set_scan_response_data(nullptr, 0, nullptr);
   b6c9c:	460a      	mov	r2, r1
   b6c9e:	4608      	mov	r0, r1
    } else {
        scanResponse->remove(BleAdvertisingDataType::FLAGS);
        return hal_ble_gap_set_scan_response_data(scanResponse->data(), scanResponse->length(), nullptr);
    }
}
   b6ca0:	e8bd 4010 	ldmia.w	sp!, {r4, lr}
        return hal_ble_gap_set_scan_response_data(scanResponse->data(), scanResponse->length(), nullptr);
   b6ca4:	f7fe bc46 	b.w	b5534 <hal_ble_gap_set_scan_response_data>
        scanResponse->remove(BleAdvertisingDataType::FLAGS);
   b6ca8:	2101      	movs	r1, #1
   b6caa:	4620      	mov	r0, r4
   b6cac:	f7ff ffde 	bl	b6c6c <_ZN8particle18BleAdvertisingData6removeENS_22BleAdvertisingDataTypeE>
        return hal_ble_gap_set_scan_response_data(scanResponse->data(), scanResponse->length(), nullptr);
   b6cb0:	e9d4 0100 	ldrd	r0, r1, [r4]
   b6cb4:	2200      	movs	r2, #0
   b6cb6:	e7f3      	b.n	b6ca0 <_ZNK8particle14BleLocalDevice19setScanResponseDataEPNS_18BleAdvertisingDataE+0xa>

000b6cb8 <_ZNK8particle14BleLocalDevice9advertiseEPNS_18BleAdvertisingDataES2_>:

int BleLocalDevice::advertise() const {
    return hal_ble_gap_start_advertising(nullptr);
}

int BleLocalDevice::advertise(BleAdvertisingData* advertisingData, BleAdvertisingData* scanResponse) const {
   b6cb8:	b538      	push	{r3, r4, r5, lr}
   b6cba:	4604      	mov	r4, r0
   b6cbc:	4615      	mov	r5, r2
    CHECK(setAdvertisingData(advertisingData));
   b6cbe:	f7ff ffb8 	bl	b6c32 <_ZNK8particle14BleLocalDevice18setAdvertisingDataEPNS_18BleAdvertisingDataE>
   b6cc2:	2800      	cmp	r0, #0
   b6cc4:	db0a      	blt.n	b6cdc <_ZNK8particle14BleLocalDevice9advertiseEPNS_18BleAdvertisingDataES2_+0x24>
    CHECK(setScanResponseData(scanResponse));
   b6cc6:	4629      	mov	r1, r5
   b6cc8:	4620      	mov	r0, r4
   b6cca:	f7ff ffe4 	bl	b6c96 <_ZNK8particle14BleLocalDevice19setScanResponseDataEPNS_18BleAdvertisingDataE>
   b6cce:	2800      	cmp	r0, #0
   b6cd0:	db04      	blt.n	b6cdc <_ZNK8particle14BleLocalDevice9advertiseEPNS_18BleAdvertisingDataES2_+0x24>
    return advertise();
}
   b6cd2:	e8bd 4038 	ldmia.w	sp!, {r3, r4, r5, lr}
    return hal_ble_gap_start_advertising(nullptr);
   b6cd6:	2000      	movs	r0, #0
   b6cd8:	f7fe bc34 	b.w	b5544 <hal_ble_gap_start_advertising>
}
   b6cdc:	bd38      	pop	{r3, r4, r5, pc}
	...

000b6ce0 <_ZNSt8functionIFvPKhjRKN8particle13BlePeerDeviceEEEC1ISt5_BindIFPFvS1_jS5_PvESt12_PlaceholderILi1EESD_ILi2EESD_ILi3EESA_EEvvEET_>:
      function<_Res(_ArgTypes...)>::
   b6ce0:	b538      	push	{r3, r4, r5, lr}
    _Function_base() : _M_manager(nullptr) { }
   b6ce2:	2300      	movs	r3, #0
      function<_Res(_ArgTypes...)>::
   b6ce4:	4604      	mov	r4, r0
    _Function_base() : _M_manager(nullptr) { }
   b6ce6:	6083      	str	r3, [r0, #8]
	{ __functor._M_access<_Functor*>() = new _Functor(std::move(__f)); }
   b6ce8:	2008      	movs	r0, #8
      function<_Res(_ArgTypes...)>::
   b6cea:	460d      	mov	r5, r1
	{ __functor._M_access<_Functor*>() = new _Functor(std::move(__f)); }
   b6cec:	f7fd f9d3 	bl	b4096 <_Znwj>
   b6cf0:	b118      	cbz	r0, b6cfa <_ZNSt8functionIFvPKhjRKN8particle13BlePeerDeviceEEEC1ISt5_BindIFPFvS1_jS5_PvESt12_PlaceholderILi1EESD_ILi2EESD_ILi3EESA_EEvvEET_+0x1a>
	_Bind(_Functor&& __f, _Args&&... __args)
	: _M_f(std::move(__f)), _M_bound_args(std::forward<_Args>(__args)...)
	{ }

      _Bind(const _Bind&) = default;
      _Bind(_Bind&&) = default;
   b6cf2:	682b      	ldr	r3, [r5, #0]
   b6cf4:	6003      	str	r3, [r0, #0]
      constexpr _Head_base(const _Head_base&) = default;
      constexpr _Head_base(_Head_base&&) = default;

      template<typename _UHead>
        constexpr _Head_base(_UHead&& __h)
	: _M_head_impl(std::forward<_UHead>(__h)) { }
   b6cf6:	686b      	ldr	r3, [r5, #4]
   b6cf8:	6043      	str	r3, [r0, #4]
	    _M_invoker = &_My_handler::_M_invoke;
   b6cfa:	4b03      	ldr	r3, [pc, #12]	; (b6d08 <_ZNSt8functionIFvPKhjRKN8particle13BlePeerDeviceEEEC1ISt5_BindIFPFvS1_jS5_PvESt12_PlaceholderILi1EESD_ILi2EESD_ILi3EESA_EEvvEET_+0x28>)
   b6cfc:	60e3      	str	r3, [r4, #12]
	    _M_manager = &_My_handler::_M_manager;
   b6cfe:	4b03      	ldr	r3, [pc, #12]	; (b6d0c <_ZNSt8functionIFvPKhjRKN8particle13BlePeerDeviceEEEC1ISt5_BindIFPFvS1_jS5_PvESt12_PlaceholderILi1EESD_ILi2EESD_ILi3EESA_EEvvEET_+0x2c>)
	{ __functor._M_access<_Functor*>() = new _Functor(std::move(__f)); }
   b6d00:	6020      	str	r0, [r4, #0]
	    _M_manager = &_My_handler::_M_manager;
   b6d02:	60a3      	str	r3, [r4, #8]
      }
   b6d04:	4620      	mov	r0, r4
   b6d06:	bd38      	pop	{r3, r4, r5, pc}
   b6d08:	000b65b9 	.word	0x000b65b9
   b6d0c:	000b6611 	.word	0x000b6611

000b6d10 <_ZNSt8functionIFvRKN8particle13BlePeerDeviceEEEC1ISt5_BindIFPFvS3_PvESt12_PlaceholderILi1EES8_EEvvEET_>:
      function<_Res(_ArgTypes...)>::
   b6d10:	b538      	push	{r3, r4, r5, lr}
    _Function_base() : _M_manager(nullptr) { }
   b6d12:	2300      	movs	r3, #0
      function<_Res(_ArgTypes...)>::
   b6d14:	4604      	mov	r4, r0
    _Function_base() : _M_manager(nullptr) { }
   b6d16:	6083      	str	r3, [r0, #8]
	{ __functor._M_access<_Functor*>() = new _Functor(std::move(__f)); }
   b6d18:	2008      	movs	r0, #8
      function<_Res(_ArgTypes...)>::
   b6d1a:	460d      	mov	r5, r1
	{ __functor._M_access<_Functor*>() = new _Functor(std::move(__f)); }
   b6d1c:	f7fd f9bb 	bl	b4096 <_Znwj>
   b6d20:	b118      	cbz	r0, b6d2a <_ZNSt8functionIFvRKN8particle13BlePeerDeviceEEEC1ISt5_BindIFPFvS3_PvESt12_PlaceholderILi1EES8_EEvvEET_+0x1a>
   b6d22:	682b      	ldr	r3, [r5, #0]
   b6d24:	6003      	str	r3, [r0, #0]
   b6d26:	686b      	ldr	r3, [r5, #4]
   b6d28:	6043      	str	r3, [r0, #4]
	    _M_invoker = &_My_handler::_M_invoke;
   b6d2a:	4b03      	ldr	r3, [pc, #12]	; (b6d38 <_ZNSt8functionIFvRKN8particle13BlePeerDeviceEEEC1ISt5_BindIFPFvS3_PvESt12_PlaceholderILi1EES8_EEvvEET_+0x28>)
   b6d2c:	60e3      	str	r3, [r4, #12]
	    _M_manager = &_My_handler::_M_manager;
   b6d2e:	4b03      	ldr	r3, [pc, #12]	; (b6d3c <_ZNSt8functionIFvRKN8particle13BlePeerDeviceEEEC1ISt5_BindIFPFvS3_PvESt12_PlaceholderILi1EES8_EEvvEET_+0x2c>)
	{ __functor._M_access<_Functor*>() = new _Functor(std::move(__f)); }
   b6d30:	6020      	str	r0, [r4, #0]
	    _M_manager = &_My_handler::_M_manager;
   b6d32:	60a3      	str	r3, [r4, #8]
      }
   b6d34:	4620      	mov	r0, r4
   b6d36:	bd38      	pop	{r3, r4, r5, pc}
   b6d38:	000b65ad 	.word	0x000b65ad
   b6d3c:	000b65d1 	.word	0x000b65d1

000b6d40 <_ZNSt14__shared_countILN9__gnu_cxx12_Lock_policyE0EEC1ERKS2_>:
      : _M_pi(__r._M_pi)
   b6d40:	680b      	ldr	r3, [r1, #0]
   b6d42:	6003      	str	r3, [r0, #0]
	if (_M_pi != 0)
   b6d44:	b113      	cbz	r3, b6d4c <_ZNSt14__shared_countILN9__gnu_cxx12_Lock_policyE0EEC1ERKS2_+0xc>
    { ++_M_use_count; }
   b6d46:	685a      	ldr	r2, [r3, #4]
   b6d48:	3201      	adds	r2, #1
   b6d4a:	605a      	str	r2, [r3, #4]
      }
   b6d4c:	4770      	bx	lr

000b6d4e <_ZN8particle17BleCharacteristicC1ERKS0_>:
BleCharacteristic::BleCharacteristic(const BleCharacteristic& characteristic)
   b6d4e:	b510      	push	{r4, lr}
      __shared_ptr(const __shared_ptr&) noexcept = default;
   b6d50:	f851 3b04 	ldr.w	r3, [r1], #4
   b6d54:	4604      	mov	r4, r0
   b6d56:	f840 3b04 	str.w	r3, [r0], #4
   b6d5a:	f7ff fff1 	bl	b6d40 <_ZNSt14__shared_countILN9__gnu_cxx12_Lock_policyE0EEC1ERKS2_>
    if (!impl()) {
   b6d5e:	6823      	ldr	r3, [r4, #0]
   b6d60:	b90b      	cbnz	r3, b6d66 <_ZN8particle17BleCharacteristicC1ERKS0_+0x18>
   b6d62:	f7ff fc19 	bl	b6598 <_ZN8particle10BleServiceC2ERKNS_7BleUuidE.part.0>
}
   b6d66:	4620      	mov	r0, r4
   b6d68:	bd10      	pop	{r4, pc}

000b6d6a <_ZNSt12__shared_ptrIN8particle14BleServiceImplELN9__gnu_cxx12_Lock_policyE0EEC1ERKS4_>:
   b6d6a:	b510      	push	{r4, lr}
   b6d6c:	f851 3b04 	ldr.w	r3, [r1], #4
   b6d70:	4604      	mov	r4, r0
   b6d72:	f840 3b04 	str.w	r3, [r0], #4
   b6d76:	f7ff ffe3 	bl	b6d40 <_ZNSt14__shared_countILN9__gnu_cxx12_Lock_policyE0EEC1ERKS2_>
   b6d7a:	4620      	mov	r0, r4
   b6d7c:	bd10      	pop	{r4, pc}

000b6d7e <_ZNSt12__shared_ptrIN8particle17BlePeerDeviceImplELN9__gnu_cxx12_Lock_policyE0EEC1ERKS4_>:
   b6d7e:	b510      	push	{r4, lr}
   b6d80:	f851 3b04 	ldr.w	r3, [r1], #4
   b6d84:	4604      	mov	r4, r0
   b6d86:	f840 3b04 	str.w	r3, [r0], #4
   b6d8a:	f7ff ffd9 	bl	b6d40 <_ZNSt14__shared_countILN9__gnu_cxx12_Lock_policyE0EEC1ERKS2_>
   b6d8e:	4620      	mov	r0, r4
   b6d90:	bd10      	pop	{r4, pc}

000b6d92 <_ZN8particle17BleCharacteristicD1Ev>:
BleCharacteristic::~BleCharacteristic() {
   b6d92:	b510      	push	{r4, lr}
   b6d94:	4604      	mov	r4, r0
      ~__shared_ptr() = default;
   b6d96:	3004      	adds	r0, #4
   b6d98:	f7fd ff76 	bl	b4c88 <_ZNSt14__shared_countILN9__gnu_cxx12_Lock_policyE0EED1Ev>
}
   b6d9c:	4620      	mov	r0, r4
   b6d9e:	bd10      	pop	{r4, pc}

000b6da0 <_ZN5spark6VectorIN8particle10BleServiceENS_16DefaultAllocatorEED1Ev>:
inline spark::Vector<T, AllocatorT>::~Vector() {
   b6da0:	b570      	push	{r4, r5, r6, lr}
    destruct(data_, data_ + size_);
   b6da2:	e9d0 5300 	ldrd	r5, r3, [r0]
inline spark::Vector<T, AllocatorT>::~Vector() {
   b6da6:	4604      	mov	r4, r0
    destruct(data_, data_ + size_);
   b6da8:	eb05 06c3 	add.w	r6, r5, r3, lsl #3
        for (; p != end; ++p) {
   b6dac:	42ae      	cmp	r6, r5
   b6dae:	d004      	beq.n	b6dba <_ZN5spark6VectorIN8particle10BleServiceENS_16DefaultAllocatorEED1Ev+0x1a>
   b6db0:	1d28      	adds	r0, r5, #4
   b6db2:	f7fd ff69 	bl	b4c88 <_ZNSt14__shared_countILN9__gnu_cxx12_Lock_policyE0EED1Ev>
   b6db6:	3508      	adds	r5, #8
   b6db8:	e7f8      	b.n	b6dac <_ZN5spark6VectorIN8particle10BleServiceENS_16DefaultAllocatorEED1Ev+0xc>
    ::free(ptr);
   b6dba:	6820      	ldr	r0, [r4, #0]
   b6dbc:	f7fe fe78 	bl	b5ab0 <free>
}
   b6dc0:	4620      	mov	r0, r4
   b6dc2:	bd70      	pop	{r4, r5, r6, pc}

000b6dc4 <_ZN5spark6VectorIN8particle17BleCharacteristicENS_16DefaultAllocatorEED1Ev>:
inline spark::Vector<T, AllocatorT>::~Vector() {
   b6dc4:	b570      	push	{r4, r5, r6, lr}
    destruct(data_, data_ + size_);
   b6dc6:	e9d0 5300 	ldrd	r5, r3, [r0]
inline spark::Vector<T, AllocatorT>::~Vector() {
   b6dca:	4604      	mov	r4, r0
    destruct(data_, data_ + size_);
   b6dcc:	eb05 06c3 	add.w	r6, r5, r3, lsl #3
        for (; p != end; ++p) {
   b6dd0:	42ae      	cmp	r6, r5
   b6dd2:	d004      	beq.n	b6dde <_ZN5spark6VectorIN8particle17BleCharacteristicENS_16DefaultAllocatorEED1Ev+0x1a>
   b6dd4:	1d28      	adds	r0, r5, #4
   b6dd6:	f7fd ff57 	bl	b4c88 <_ZNSt14__shared_countILN9__gnu_cxx12_Lock_policyE0EED1Ev>
   b6dda:	3508      	adds	r5, #8
   b6ddc:	e7f8      	b.n	b6dd0 <_ZN5spark6VectorIN8particle17BleCharacteristicENS_16DefaultAllocatorEED1Ev+0xc>
    ::free(ptr);
   b6dde:	6820      	ldr	r0, [r4, #0]
   b6de0:	f7fe fe66 	bl	b5ab0 <free>
}
   b6de4:	4620      	mov	r0, r4
   b6de6:	bd70      	pop	{r4, r5, r6, pc}

000b6de8 <_ZNSt23_Sp_counted_ptr_inplaceIN8particle17BlePeerDeviceImplESaIS1_ELN9__gnu_cxx12_Lock_policyE0EE10_M_disposeEv>:
      _M_dispose() noexcept
   b6de8:	b510      	push	{r4, lr}
   b6dea:	4604      	mov	r4, r0
    ~BlePeerDeviceImpl() = default;
   b6dec:	3024      	adds	r0, #36	; 0x24
   b6dee:	f7ff ffe9 	bl	b6dc4 <_ZN5spark6VectorIN8particle17BleCharacteristicENS_16DefaultAllocatorEED1Ev>
   b6df2:	f104 0018 	add.w	r0, r4, #24
   b6df6:	f7ff ffd3 	bl	b6da0 <_ZN5spark6VectorIN8particle10BleServiceENS_16DefaultAllocatorEED1Ev>
      }
   b6dfa:	bd10      	pop	{r4, pc}

000b6dfc <__tcf_0>:
    static BleLocalDevice instance;
   b6dfc:	b570      	push	{r4, r5, r6, lr}
	if (__ptr != nullptr)
   b6dfe:	4b17      	ldr	r3, [pc, #92]	; (b6e5c <__tcf_0+0x60>)
   b6e00:	681c      	ldr	r4, [r3, #0]
   b6e02:	b354      	cbz	r4, b6e5a <__tcf_0+0x5e>
    class function<_Res(_ArgTypes...)>
   b6e04:	f104 0054 	add.w	r0, r4, #84	; 0x54
   b6e08:	f7fd fae6 	bl	b43d8 <_ZNSt14_Function_baseD1Ev>
   b6e0c:	f104 0044 	add.w	r0, r4, #68	; 0x44
   b6e10:	f7fd fae2 	bl	b43d8 <_ZNSt14_Function_baseD1Ev>
   b6e14:	f104 0034 	add.w	r0, r4, #52	; 0x34
   b6e18:	f7fd fade 	bl	b43d8 <_ZNSt14_Function_baseD1Ev>
   b6e1c:	f104 0024 	add.w	r0, r4, #36	; 0x24
   b6e20:	f7fd fada 	bl	b43d8 <_ZNSt14_Function_baseD1Ev>
    destruct(data_, data_ + size_);
   b6e24:	e9d4 5306 	ldrd	r5, r3, [r4, #24]
   b6e28:	eb05 06c3 	add.w	r6, r5, r3, lsl #3
        for (; p != end; ++p) {
   b6e2c:	42ae      	cmp	r6, r5
   b6e2e:	d004      	beq.n	b6e3a <__tcf_0+0x3e>
      ~__shared_ptr() = default;
   b6e30:	1d28      	adds	r0, r5, #4
   b6e32:	f7fd ff29 	bl	b4c88 <_ZNSt14__shared_countILN9__gnu_cxx12_Lock_policyE0EED1Ev>
   b6e36:	3508      	adds	r5, #8
   b6e38:	e7f8      	b.n	b6e2c <__tcf_0+0x30>
    ::free(ptr);
   b6e3a:	69a0      	ldr	r0, [r4, #24]
   b6e3c:	f7fe fe38 	bl	b5ab0 <free>
    ~BleLocalDeviceImpl() = default;
   b6e40:	f104 000c 	add.w	r0, r4, #12
   b6e44:	f7ff ffbe 	bl	b6dc4 <_ZN5spark6VectorIN8particle17BleCharacteristicENS_16DefaultAllocatorEED1Ev>
   b6e48:	4620      	mov	r0, r4
   b6e4a:	f7ff ffa9 	bl	b6da0 <_ZN5spark6VectorIN8particle10BleServiceENS_16DefaultAllocatorEED1Ev>
	delete __ptr;
   b6e4e:	4620      	mov	r0, r4
   b6e50:	2164      	movs	r1, #100	; 0x64
    static BleLocalDevice instance;
   b6e52:	e8bd 4070 	ldmia.w	sp!, {r4, r5, r6, lr}
   b6e56:	f7fd b922 	b.w	b409e <_ZdlPvj>
   b6e5a:	bd70      	pop	{r4, r5, r6, pc}
   b6e5c:	2003e698 	.word	0x2003e698

000b6e60 <_ZNSt12__shared_ptrIN8particle21BleCharacteristicImplELN9__gnu_cxx12_Lock_policyE0EEaSEOS4_.isra.0>:
      operator=(__shared_ptr&& __r) noexcept
   b6e60:	b513      	push	{r0, r1, r4, lr}
	__r._M_pi = _M_pi;
   b6e62:	2300      	movs	r3, #0
	_Sp_counted_base<_Lp>* __tmp = __r._M_pi;
   b6e64:	e9d1 4200 	ldrd	r4, r2, [r1]
	__r._M_ptr = 0;
   b6e68:	e9c1 3300 	strd	r3, r3, [r1]
   b6e6c:	6803      	ldr	r3, [r0, #0]
   b6e6e:	9300      	str	r3, [sp, #0]
      __b = _GLIBCXX_MOVE(__tmp);
   b6e70:	6004      	str	r4, [r0, #0]
	_Sp_counted_base<_Lp>* __tmp = __r._M_pi;
   b6e72:	6843      	ldr	r3, [r0, #4]
	__r._M_pi = _M_pi;
   b6e74:	6042      	str	r2, [r0, #4]
      ~__shared_ptr() = default;
   b6e76:	a801      	add	r0, sp, #4
	_M_pi = __tmp;
   b6e78:	9301      	str	r3, [sp, #4]
      ~__shared_ptr() = default;
   b6e7a:	f7fd ff05 	bl	b4c88 <_ZNSt14__shared_countILN9__gnu_cxx12_Lock_policyE0EED1Ev>
      }
   b6e7e:	b002      	add	sp, #8
   b6e80:	bd10      	pop	{r4, pc}

000b6e82 <_ZNKSt8functionIFvRKN8particle13BlePeerDeviceEEEclES3_>:
      if (_M_empty())
   b6e82:	6882      	ldr	r2, [r0, #8]
    function<_Res(_ArgTypes...)>::
   b6e84:	b510      	push	{r4, lr}
      if (_M_empty())
   b6e86:	b90a      	cbnz	r2, b6e8c <_ZNKSt8functionIFvRKN8particle13BlePeerDeviceEEEclES3_+0xa>
	__throw_bad_function_call();
   b6e88:	f001 fe48 	bl	b8b1c <_ZSt25__throw_bad_function_callv>
    }
   b6e8c:	e8bd 4010 	ldmia.w	sp!, {r4, lr}
      return _M_invoker(_M_functor, std::forward<_ArgTypes>(__args)...);
   b6e90:	68c3      	ldr	r3, [r0, #12]
   b6e92:	4718      	bx	r3

000b6e94 <_ZN5spark6VectorIhNS_16DefaultAllocatorEE7reallocIhLi0EEEbi>:
    bool realloc(int n) {
   b6e94:	b538      	push	{r3, r4, r5, lr}
        if (n > 0) {
   b6e96:	1e0d      	subs	r5, r1, #0
    bool realloc(int n) {
   b6e98:	4604      	mov	r4, r0
            d = (T*)AllocatorT::realloc(data_, n * sizeof(T));
   b6e9a:	6800      	ldr	r0, [r0, #0]
        if (n > 0) {
   b6e9c:	dd03      	ble.n	b6ea6 <_ZN5spark6VectorIhNS_16DefaultAllocatorEE7reallocIhLi0EEEbi+0x12>
    return ::realloc(ptr, size);
   b6e9e:	f7fe fe0f 	bl	b5ac0 <realloc>
            if (!d) {
   b6ea2:	b918      	cbnz	r0, b6eac <_ZN5spark6VectorIhNS_16DefaultAllocatorEE7reallocIhLi0EEEbi+0x18>
    }
   b6ea4:	bd38      	pop	{r3, r4, r5, pc}
    ::free(ptr);
   b6ea6:	f7fe fe03 	bl	b5ab0 <free>
        T* d = nullptr;
   b6eaa:	2000      	movs	r0, #0
        data_ = d;
   b6eac:	6020      	str	r0, [r4, #0]
        capacity_ = n;
   b6eae:	60a5      	str	r5, [r4, #8]
        return true;
   b6eb0:	2001      	movs	r0, #1
   b6eb2:	e7f7      	b.n	b6ea4 <_ZN5spark6VectorIhNS_16DefaultAllocatorEE7reallocIhLi0EEEbi+0x10>

000b6eb4 <_ZN5spark6VectorIhNS_16DefaultAllocatorEE7reserveEi>:
inline bool spark::Vector<T, AllocatorT>::reserve(int n) {
   b6eb4:	b508      	push	{r3, lr}
    if (n > capacity_ && !realloc(n)) {
   b6eb6:	6883      	ldr	r3, [r0, #8]
   b6eb8:	428b      	cmp	r3, r1
   b6eba:	da02      	bge.n	b6ec2 <_ZN5spark6VectorIhNS_16DefaultAllocatorEE7reserveEi+0xe>
   b6ebc:	f7ff ffea 	bl	b6e94 <_ZN5spark6VectorIhNS_16DefaultAllocatorEE7reallocIhLi0EEEbi>
}
   b6ec0:	bd08      	pop	{r3, pc}
    return true;
   b6ec2:	2001      	movs	r0, #1
   b6ec4:	e7fc      	b.n	b6ec0 <_ZN5spark6VectorIhNS_16DefaultAllocatorEE7reserveEi+0xc>

000b6ec6 <_ZN5spark6VectorIhNS_16DefaultAllocatorEE6insertEiPKhi>:
inline bool spark::Vector<T, AllocatorT>::insert(int i, const T* values, int n) {
   b6ec6:	e92d 41f0 	stmdb	sp!, {r4, r5, r6, r7, r8, lr}
   b6eca:	460f      	mov	r7, r1
    if (size_ + n > capacity_ && !realloc(size_ + n)) {
   b6ecc:	6841      	ldr	r1, [r0, #4]
inline bool spark::Vector<T, AllocatorT>::insert(int i, const T* values, int n) {
   b6ece:	461d      	mov	r5, r3
    if (size_ + n > capacity_ && !realloc(size_ + n)) {
   b6ed0:	4419      	add	r1, r3
   b6ed2:	6883      	ldr	r3, [r0, #8]
   b6ed4:	4299      	cmp	r1, r3
inline bool spark::Vector<T, AllocatorT>::insert(int i, const T* values, int n) {
   b6ed6:	4604      	mov	r4, r0
   b6ed8:	4690      	mov	r8, r2
    if (size_ + n > capacity_ && !realloc(size_ + n)) {
   b6eda:	dc12      	bgt.n	b6f02 <_ZN5spark6VectorIhNS_16DefaultAllocatorEE6insertEiPKhi+0x3c>
    T* const p = data_ + i;
   b6edc:	6826      	ldr	r6, [r4, #0]
        ::memmove(dest, p, (end - p) * sizeof(T));
   b6ede:	6862      	ldr	r2, [r4, #4]
    T* const p = data_ + i;
   b6ee0:	443e      	add	r6, r7
        ::memmove(dest, p, (end - p) * sizeof(T));
   b6ee2:	1bd2      	subs	r2, r2, r7
   b6ee4:	4631      	mov	r1, r6
   b6ee6:	1970      	adds	r0, r6, r5
   b6ee8:	f002 fc21 	bl	b972e <memmove>
        ::memcpy(dest, p, (end - p) * sizeof(T));
   b6eec:	462a      	mov	r2, r5
   b6eee:	4641      	mov	r1, r8
   b6ef0:	4630      	mov	r0, r6
   b6ef2:	f002 fc0e 	bl	b9712 <memcpy>
    size_ += n;
   b6ef6:	6863      	ldr	r3, [r4, #4]
   b6ef8:	442b      	add	r3, r5
   b6efa:	6063      	str	r3, [r4, #4]
    return true;
   b6efc:	2001      	movs	r0, #1
}
   b6efe:	e8bd 81f0 	ldmia.w	sp!, {r4, r5, r6, r7, r8, pc}
    if (size_ + n > capacity_ && !realloc(size_ + n)) {
   b6f02:	f7ff ffc7 	bl	b6e94 <_ZN5spark6VectorIhNS_16DefaultAllocatorEE7reallocIhLi0EEEbi>
   b6f06:	2800      	cmp	r0, #0
   b6f08:	d1e8      	bne.n	b6edc <_ZN5spark6VectorIhNS_16DefaultAllocatorEE6insertEiPKhi+0x16>
   b6f0a:	e7f8      	b.n	b6efe <_ZN5spark6VectorIhNS_16DefaultAllocatorEE6insertEiPKhi+0x38>

000b6f0c <_ZN5spark6VectorIhNS_16DefaultAllocatorEE6insertEih.isra.0>:
inline bool spark::Vector<T, AllocatorT>::insert(int i, T value) {
   b6f0c:	b5f8      	push	{r3, r4, r5, r6, r7, lr}
   b6f0e:	460d      	mov	r5, r1
    if (size_ + 1 > capacity_ && !realloc(size_ + 1)) {
   b6f10:	e9d0 1301 	ldrd	r1, r3, [r0, #4]
   b6f14:	4299      	cmp	r1, r3
inline bool spark::Vector<T, AllocatorT>::insert(int i, T value) {
   b6f16:	4604      	mov	r4, r0
   b6f18:	4616      	mov	r6, r2
    if (size_ + 1 > capacity_ && !realloc(size_ + 1)) {
   b6f1a:	da0b      	bge.n	b6f34 <_ZN5spark6VectorIhNS_16DefaultAllocatorEE6insertEih.isra.0+0x28>
    T* const p = data_ + i;
   b6f1c:	6827      	ldr	r7, [r4, #0]
        ::memmove(dest, p, (end - p) * sizeof(T));
   b6f1e:	6862      	ldr	r2, [r4, #4]
    T* const p = data_ + i;
   b6f20:	1979      	adds	r1, r7, r5
        ::memmove(dest, p, (end - p) * sizeof(T));
   b6f22:	1b52      	subs	r2, r2, r5
   b6f24:	1c48      	adds	r0, r1, #1
   b6f26:	f002 fc02 	bl	b972e <memmove>
    new(p) T(std::move(value));
   b6f2a:	557e      	strb	r6, [r7, r5]
    ++size_;
   b6f2c:	6863      	ldr	r3, [r4, #4]
   b6f2e:	3301      	adds	r3, #1
   b6f30:	6063      	str	r3, [r4, #4]
}
   b6f32:	bdf8      	pop	{r3, r4, r5, r6, r7, pc}
    if (size_ + 1 > capacity_ && !realloc(size_ + 1)) {
   b6f34:	3101      	adds	r1, #1
   b6f36:	f7ff ffad 	bl	b6e94 <_ZN5spark6VectorIhNS_16DefaultAllocatorEE7reallocIhLi0EEEbi>
   b6f3a:	2800      	cmp	r0, #0
   b6f3c:	d1ee      	bne.n	b6f1c <_ZN5spark6VectorIhNS_16DefaultAllocatorEE6insertEih.isra.0+0x10>
   b6f3e:	e7f8      	b.n	b6f32 <_ZN5spark6VectorIhNS_16DefaultAllocatorEE6insertEih.isra.0+0x26>

000b6f40 <_ZN5spark6VectorIhNS_16DefaultAllocatorEE6appendEh.isra.0>:
inline bool spark::Vector<T, AllocatorT>::append(T value) {
   b6f40:	460a      	mov	r2, r1
    return insert(size_, std::move(value));
   b6f42:	6841      	ldr	r1, [r0, #4]
   b6f44:	f7ff bfe2 	b.w	b6f0c <_ZN5spark6VectorIhNS_16DefaultAllocatorEE6insertEih.isra.0>

000b6f48 <_ZN8particle18BleAdvertisingData6appendENS_22BleAdvertisingDataTypeEPKhjb.part.0>:
size_t BleAdvertisingData::append(BleAdvertisingDataType type, const uint8_t* buf, size_t len, bool force) {
   b6f48:	e92d 43f7 	stmdb	sp!, {r0, r1, r2, r4, r5, r6, r7, r8, r9, lr}
   b6f4c:	4604      	mov	r4, r0
   b6f4e:	461d      	mov	r5, r3
   b6f50:	460f      	mov	r7, r1
   b6f52:	ab01      	add	r3, sp, #4
   b6f54:	4690      	mov	r8, r2
   b6f56:	460a      	mov	r2, r1
   b6f58:	e9d0 0100 	ldrd	r0, r1, [r0]
   b6f5c:	f89d 9028 	ldrb.w	r9, [sp, #40]	; 0x28
   b6f60:	f7ff fb04 	bl	b656c <_ZN8particle18BleAdvertisingData6locateEPKhjNS_22BleAdvertisingDataTypeEPj.part.0>
   b6f64:	1cae      	adds	r6, r5, #2
   b6f66:	6863      	ldr	r3, [r4, #4]
   b6f68:	4602      	mov	r2, r0
    if (!force && adsLen > 0) {
   b6f6a:	f1b9 0f00 	cmp.w	r9, #0
   b6f6e:	d126      	bne.n	b6fbe <_ZN8particle18BleAdvertisingData6appendENS_22BleAdvertisingDataTypeEPKhjb.part.0+0x76>
   b6f70:	b328      	cbz	r0, b6fbe <_ZN8particle18BleAdvertisingData6appendENS_22BleAdvertisingDataTypeEPKhjb.part.0+0x76>
        if ((selfData_.size() - adsLen + len + 2) <= BLE_MAX_ADV_DATA_LEN_EXT) {
   b6f72:	4433      	add	r3, r6
   b6f74:	1a1b      	subs	r3, r3, r0
   b6f76:	2bff      	cmp	r3, #255	; 0xff
   b6f78:	d809      	bhi.n	b6f8e <_ZN8particle18BleAdvertisingData6appendENS_22BleAdvertisingDataTypeEPKhjb.part.0+0x46>
            selfData_.removeAt(offset, adsLen);
   b6f7a:	9901      	ldr	r1, [sp, #4]
   b6f7c:	4620      	mov	r0, r4
   b6f7e:	f7ff fe61 	bl	b6c44 <_ZN5spark6VectorIhNS_16DefaultAllocatorEE8removeAtEii>
            CHECK_TRUE(selfData_.reserve(selfData_.size() + len + 2), selfData_.size());
   b6f82:	6861      	ldr	r1, [r4, #4]
   b6f84:	4620      	mov	r0, r4
   b6f86:	4431      	add	r1, r6
   b6f88:	f7ff ff94 	bl	b6eb4 <_ZN5spark6VectorIhNS_16DefaultAllocatorEE7reserveEi>
   b6f8c:	b918      	cbnz	r0, b6f96 <_ZN8particle18BleAdvertisingData6appendENS_22BleAdvertisingDataTypeEPKhjb.part.0+0x4e>
    return selfData_.size();
   b6f8e:	6860      	ldr	r0, [r4, #4]
}
   b6f90:	b003      	add	sp, #12
   b6f92:	e8bd 83f0 	ldmia.w	sp!, {r4, r5, r6, r7, r8, r9, pc}
            selfData_.insert(offset, len + 1);
   b6f96:	1c6a      	adds	r2, r5, #1
   b6f98:	9901      	ldr	r1, [sp, #4]
   b6f9a:	b2d2      	uxtb	r2, r2
   b6f9c:	4620      	mov	r0, r4
   b6f9e:	f7ff ffb5 	bl	b6f0c <_ZN5spark6VectorIhNS_16DefaultAllocatorEE6insertEih.isra.0>
            selfData_.insert(offset + 1, static_cast<uint8_t>(type));
   b6fa2:	9901      	ldr	r1, [sp, #4]
   b6fa4:	463a      	mov	r2, r7
   b6fa6:	3101      	adds	r1, #1
   b6fa8:	4620      	mov	r0, r4
   b6faa:	f7ff ffaf 	bl	b6f0c <_ZN5spark6VectorIhNS_16DefaultAllocatorEE6insertEih.isra.0>
            selfData_.insert(offset + 2, buf, len);
   b6fae:	9901      	ldr	r1, [sp, #4]
   b6fb0:	462b      	mov	r3, r5
   b6fb2:	4642      	mov	r2, r8
   b6fb4:	3102      	adds	r1, #2
    return insert(size_, values, n);
   b6fb6:	4620      	mov	r0, r4
   b6fb8:	f7ff ff85 	bl	b6ec6 <_ZN5spark6VectorIhNS_16DefaultAllocatorEE6insertEiPKhi>
   b6fbc:	e7e7      	b.n	b6f8e <_ZN8particle18BleAdvertisingData6appendENS_22BleAdvertisingDataTypeEPKhjb.part.0+0x46>
    else if ((selfData_.size() + len + 2) <= BLE_MAX_ADV_DATA_LEN_EXT) {
   b6fbe:	18f1      	adds	r1, r6, r3
   b6fc0:	29ff      	cmp	r1, #255	; 0xff
   b6fc2:	d8e4      	bhi.n	b6f8e <_ZN8particle18BleAdvertisingData6appendENS_22BleAdvertisingDataTypeEPKhjb.part.0+0x46>
        CHECK_TRUE(selfData_.reserve(selfData_.size() + len + 2), selfData_.size());
   b6fc4:	4620      	mov	r0, r4
   b6fc6:	f7ff ff75 	bl	b6eb4 <_ZN5spark6VectorIhNS_16DefaultAllocatorEE7reserveEi>
   b6fca:	2800      	cmp	r0, #0
   b6fcc:	d0df      	beq.n	b6f8e <_ZN8particle18BleAdvertisingData6appendENS_22BleAdvertisingDataTypeEPKhjb.part.0+0x46>
        selfData_.append(len + 1);
   b6fce:	1c69      	adds	r1, r5, #1
   b6fd0:	b2c9      	uxtb	r1, r1
   b6fd2:	4620      	mov	r0, r4
   b6fd4:	f7ff ffb4 	bl	b6f40 <_ZN5spark6VectorIhNS_16DefaultAllocatorEE6appendEh.isra.0>
        selfData_.append(static_cast<uint8_t>(type));
   b6fd8:	4639      	mov	r1, r7
   b6fda:	4620      	mov	r0, r4
   b6fdc:	f7ff ffb0 	bl	b6f40 <_ZN5spark6VectorIhNS_16DefaultAllocatorEE6appendEh.isra.0>
   b6fe0:	6861      	ldr	r1, [r4, #4]
   b6fe2:	462b      	mov	r3, r5
   b6fe4:	4642      	mov	r2, r8
   b6fe6:	e7e6      	b.n	b6fb6 <_ZN8particle18BleAdvertisingData6appendENS_22BleAdvertisingDataTypeEPKhjb.part.0+0x6e>

000b6fe8 <_ZN8particle18BleAdvertisingData6appendENS_22BleAdvertisingDataTypeEPKhjb>:
size_t BleAdvertisingData::append(BleAdvertisingDataType type, const uint8_t* buf, size_t len, bool force) {
   b6fe8:	b430      	push	{r4, r5}
   b6fea:	f89d 5008 	ldrb.w	r5, [sp, #8]
    if (buf == nullptr) {
   b6fee:	b11a      	cbz	r2, b6ff8 <_ZN8particle18BleAdvertisingData6appendENS_22BleAdvertisingDataTypeEPKhjb+0x10>
   b6ff0:	9502      	str	r5, [sp, #8]
}
   b6ff2:	bc30      	pop	{r4, r5}
   b6ff4:	f7ff bfa8 	b.w	b6f48 <_ZN8particle18BleAdvertisingData6appendENS_22BleAdvertisingDataTypeEPKhjb.part.0>
        return selfData_.size();
   b6ff8:	6840      	ldr	r0, [r0, #4]
}
   b6ffa:	bc30      	pop	{r4, r5}
   b6ffc:	4770      	bx	lr

000b6ffe <_ZN8particle18BleAdvertisingDataC1Ev>:
BleAdvertisingData::BleAdvertisingData()
   b6ffe:	b51f      	push	{r0, r1, r2, r3, r4, lr}
        capacity_(0) {
   b7000:	2300      	movs	r3, #0
   b7002:	e9c0 3300 	strd	r3, r3, [r0]
   b7006:	6083      	str	r3, [r0, #8]
    uint8_t flag = BLE_SIG_ADV_FLAGS_LE_ONLY_GENERAL_DISC_MODE;
   b7008:	2206      	movs	r2, #6
    append(BleAdvertisingDataType::FLAGS, &flag, sizeof(uint8_t));
   b700a:	9300      	str	r3, [sp, #0]
   b700c:	2301      	movs	r3, #1
    uint8_t flag = BLE_SIG_ADV_FLAGS_LE_ONLY_GENERAL_DISC_MODE;
   b700e:	f88d 200f 	strb.w	r2, [sp, #15]
    append(BleAdvertisingDataType::FLAGS, &flag, sizeof(uint8_t));
   b7012:	4619      	mov	r1, r3
   b7014:	f10d 020f 	add.w	r2, sp, #15
BleAdvertisingData::BleAdvertisingData()
   b7018:	4604      	mov	r4, r0
    append(BleAdvertisingDataType::FLAGS, &flag, sizeof(uint8_t));
   b701a:	f7ff ffe5 	bl	b6fe8 <_ZN8particle18BleAdvertisingData6appendENS_22BleAdvertisingDataTypeEPKhjb>
}
   b701e:	4620      	mov	r0, r4
   b7020:	b004      	add	sp, #16
   b7022:	bd10      	pop	{r4, pc}

000b7024 <_ZN8particle18BleAdvertisingData15appendLocalNameEPKc>:
size_t BleAdvertisingData::appendLocalName(const char* name) {
   b7024:	b51f      	push	{r0, r1, r2, r3, r4, lr}
   b7026:	460a      	mov	r2, r1
   b7028:	4604      	mov	r4, r0
    return append(BleAdvertisingDataType::COMPLETE_LOCAL_NAME, (const uint8_t*)name, strnlen(name, BLE_MAX_DEV_NAME_LEN), false);
   b702a:	2114      	movs	r1, #20
   b702c:	4610      	mov	r0, r2
   b702e:	9203      	str	r2, [sp, #12]
   b7030:	f002 fc29 	bl	b9886 <strnlen>
   b7034:	2100      	movs	r1, #0
   b7036:	4603      	mov	r3, r0
   b7038:	9100      	str	r1, [sp, #0]
   b703a:	9a03      	ldr	r2, [sp, #12]
   b703c:	2109      	movs	r1, #9
   b703e:	4620      	mov	r0, r4
   b7040:	f7ff ffd2 	bl	b6fe8 <_ZN8particle18BleAdvertisingData6appendENS_22BleAdvertisingDataTypeEPKhjb>
}
   b7044:	b004      	add	sp, #16
   b7046:	bd10      	pop	{r4, pc}

000b7048 <_ZN5spark6VectorIN8particle13BlePeerDeviceENS_16DefaultAllocatorEE4moveIS2_Li0EEEvPS2_S6_S6_>:
        if (dest > p && dest < end) {
   b7048:	4288      	cmp	r0, r1
    static void move(T* dest, T* p, T* end) {
   b704a:	b5f8      	push	{r3, r4, r5, r6, r7, lr}
   b704c:	4604      	mov	r4, r0
   b704e:	460d      	mov	r5, r1
   b7050:	4616      	mov	r6, r2
        if (dest > p && dest < end) {
   b7052:	d914      	bls.n	b707e <_ZN5spark6VectorIN8particle13BlePeerDeviceENS_16DefaultAllocatorEE4moveIS2_Li0EEEvPS2_S6_S6_+0x36>
   b7054:	4290      	cmp	r0, r2
   b7056:	d213      	bcs.n	b7080 <_ZN5spark6VectorIN8particle13BlePeerDeviceENS_16DefaultAllocatorEE4moveIS2_Li0EEEvPS2_S6_S6_+0x38>
            --end;
   b7058:	f1a2 0608 	sub.w	r6, r2, #8
            dest += end - p - 1;
   b705c:	1a75      	subs	r5, r6, r1
   b705e:	f1a1 0708 	sub.w	r7, r1, #8
   b7062:	442c      	add	r4, r5
            for (; end != p; --end, --dest) {
   b7064:	42b7      	cmp	r7, r6
   b7066:	d018      	beq.n	b709a <_ZN5spark6VectorIN8particle13BlePeerDeviceENS_16DefaultAllocatorEE4moveIS2_Li0EEEvPS2_S6_S6_+0x52>
                new(dest) T(std::move(*end));
   b7068:	b11c      	cbz	r4, b7072 <_ZN5spark6VectorIN8particle13BlePeerDeviceENS_16DefaultAllocatorEE4moveIS2_Li0EEEvPS2_S6_S6_+0x2a>
       *  @brief  Construct an empty %shared_ptr.
       *  @post   use_count()==0 && get()==0
       */
      constexpr shared_ptr() noexcept : __shared_ptr<_Tp>() { }

      shared_ptr(const shared_ptr&) noexcept = default; ///< Copy constructor
   b706a:	4631      	mov	r1, r6
   b706c:	4620      	mov	r0, r4
   b706e:	f7ff fe86 	bl	b6d7e <_ZNSt12__shared_ptrIN8particle17BlePeerDeviceImplELN9__gnu_cxx12_Lock_policyE0EEC1ERKS4_>
      ~__shared_ptr() = default;
   b7072:	1d30      	adds	r0, r6, #4
   b7074:	f7fd fe08 	bl	b4c88 <_ZNSt14__shared_countILN9__gnu_cxx12_Lock_policyE0EED1Ev>
            for (; end != p; --end, --dest) {
   b7078:	3e08      	subs	r6, #8
   b707a:	3c08      	subs	r4, #8
   b707c:	e7f2      	b.n	b7064 <_ZN5spark6VectorIN8particle13BlePeerDeviceENS_16DefaultAllocatorEE4moveIS2_Li0EEEvPS2_S6_S6_+0x1c>
        } else if (dest != p) {
   b707e:	d00c      	beq.n	b709a <_ZN5spark6VectorIN8particle13BlePeerDeviceENS_16DefaultAllocatorEE4moveIS2_Li0EEEvPS2_S6_S6_+0x52>
            for (; p != end; ++p, ++dest) {
   b7080:	42b5      	cmp	r5, r6
   b7082:	d00a      	beq.n	b709a <_ZN5spark6VectorIN8particle13BlePeerDeviceENS_16DefaultAllocatorEE4moveIS2_Li0EEEvPS2_S6_S6_+0x52>
                new(dest) T(std::move(*p));
   b7084:	b11c      	cbz	r4, b708e <_ZN5spark6VectorIN8particle13BlePeerDeviceENS_16DefaultAllocatorEE4moveIS2_Li0EEEvPS2_S6_S6_+0x46>
   b7086:	4629      	mov	r1, r5
   b7088:	4620      	mov	r0, r4
   b708a:	f7ff fe78 	bl	b6d7e <_ZNSt12__shared_ptrIN8particle17BlePeerDeviceImplELN9__gnu_cxx12_Lock_policyE0EEC1ERKS4_>
   b708e:	1d28      	adds	r0, r5, #4
   b7090:	f7fd fdfa 	bl	b4c88 <_ZNSt14__shared_countILN9__gnu_cxx12_Lock_policyE0EED1Ev>
            for (; p != end; ++p, ++dest) {
   b7094:	3508      	adds	r5, #8
   b7096:	3408      	adds	r4, #8
   b7098:	e7f2      	b.n	b7080 <_ZN5spark6VectorIN8particle13BlePeerDeviceENS_16DefaultAllocatorEE4moveIS2_Li0EEEvPS2_S6_S6_+0x38>
    }
   b709a:	bdf8      	pop	{r3, r4, r5, r6, r7, pc}

000b709c <_ZN5spark6VectorIN8particle13BlePeerDeviceENS_16DefaultAllocatorEE6appendES2_>:
inline bool spark::Vector<T, AllocatorT>::append(T value) {
   b709c:	b5f7      	push	{r0, r1, r2, r4, r5, r6, r7, lr}
   b709e:	4604      	mov	r4, r0
    return insert(size_, std::move(value));
   b70a0:	6846      	ldr	r6, [r0, #4]
   b70a2:	4668      	mov	r0, sp
   b70a4:	f7ff fe6b 	bl	b6d7e <_ZNSt12__shared_ptrIN8particle17BlePeerDeviceImplELN9__gnu_cxx12_Lock_policyE0EEC1ERKS4_>
    if (size_ + 1 > capacity_ && !realloc(size_ + 1)) {
   b70a8:	e9d4 7301 	ldrd	r7, r3, [r4, #4]
   b70ac:	429f      	cmp	r7, r3
   b70ae:	db12      	blt.n	b70d6 <_ZN5spark6VectorIN8particle13BlePeerDeviceENS_16DefaultAllocatorEE6appendES2_+0x3a>
   b70b0:	3701      	adds	r7, #1
        if (n > 0) {
   b70b2:	2f00      	cmp	r7, #0
   b70b4:	dd29      	ble.n	b710a <_ZN5spark6VectorIN8particle13BlePeerDeviceENS_16DefaultAllocatorEE6appendES2_+0x6e>
    return ::malloc(size);
   b70b6:	00f8      	lsls	r0, r7, #3
   b70b8:	f7fe fcf2 	bl	b5aa0 <malloc>
            if (!d) {
   b70bc:	4605      	mov	r5, r0
   b70be:	b1f0      	cbz	r0, b70fe <_ZN5spark6VectorIN8particle13BlePeerDeviceENS_16DefaultAllocatorEE6appendES2_+0x62>
            move(d, data_, data_ + size_);
   b70c0:	e9d4 1200 	ldrd	r1, r2, [r4]
   b70c4:	eb01 02c2 	add.w	r2, r1, r2, lsl #3
   b70c8:	f7ff ffbe 	bl	b7048 <_ZN5spark6VectorIN8particle13BlePeerDeviceENS_16DefaultAllocatorEE4moveIS2_Li0EEEvPS2_S6_S6_>
    ::free(ptr);
   b70cc:	6820      	ldr	r0, [r4, #0]
   b70ce:	f7fe fcef 	bl	b5ab0 <free>
        data_ = d;
   b70d2:	6025      	str	r5, [r4, #0]
        capacity_ = n;
   b70d4:	60a7      	str	r7, [r4, #8]
    T* const p = data_ + i;
   b70d6:	6823      	ldr	r3, [r4, #0]
    move(p + 1, p, data_ + size_);
   b70d8:	6862      	ldr	r2, [r4, #4]
    T* const p = data_ + i;
   b70da:	eb03 06c6 	add.w	r6, r3, r6, lsl #3
    move(p + 1, p, data_ + size_);
   b70de:	eb03 02c2 	add.w	r2, r3, r2, lsl #3
   b70e2:	4631      	mov	r1, r6
   b70e4:	f106 0008 	add.w	r0, r6, #8
   b70e8:	f7ff ffae 	bl	b7048 <_ZN5spark6VectorIN8particle13BlePeerDeviceENS_16DefaultAllocatorEE4moveIS2_Li0EEEvPS2_S6_S6_>
    new(p) T(std::move(value));
   b70ec:	b11e      	cbz	r6, b70f6 <_ZN5spark6VectorIN8particle13BlePeerDeviceENS_16DefaultAllocatorEE6appendES2_+0x5a>
   b70ee:	4669      	mov	r1, sp
   b70f0:	4630      	mov	r0, r6
   b70f2:	f7ff fe44 	bl	b6d7e <_ZNSt12__shared_ptrIN8particle17BlePeerDeviceImplELN9__gnu_cxx12_Lock_policyE0EEC1ERKS4_>
    ++size_;
   b70f6:	6863      	ldr	r3, [r4, #4]
   b70f8:	3301      	adds	r3, #1
   b70fa:	6063      	str	r3, [r4, #4]
    return true;
   b70fc:	2501      	movs	r5, #1
   b70fe:	a801      	add	r0, sp, #4
   b7100:	f7fd fdc2 	bl	b4c88 <_ZNSt14__shared_countILN9__gnu_cxx12_Lock_policyE0EED1Ev>
}
   b7104:	4628      	mov	r0, r5
   b7106:	b003      	add	sp, #12
   b7108:	bdf0      	pop	{r4, r5, r6, r7, pc}
        T* d = nullptr;
   b710a:	2500      	movs	r5, #0
   b710c:	e7de      	b.n	b70cc <_ZN5spark6VectorIN8particle13BlePeerDeviceENS_16DefaultAllocatorEE6appendES2_+0x30>

000b710e <_ZN5spark6VectorIN8particle13BlePeerDeviceENS_16DefaultAllocatorEE9removeOneERKS2_.isra.0>:
inline bool spark::Vector<T, AllocatorT>::removeOne(const T &value) {
   b710e:	b5f8      	push	{r3, r4, r5, r6, r7, lr}
    T* const p = find(data_, data_ + size_, value);
   b7110:	e9d0 4300 	ldrd	r4, r3, [r0]
inline bool spark::Vector<T, AllocatorT>::removeOne(const T &value) {
   b7114:	4605      	mov	r5, r0
   b7116:	460f      	mov	r7, r1
    T* const p = find(data_, data_ + size_, value);
   b7118:	eb04 06c3 	add.w	r6, r4, r3, lsl #3
        for (; p != end; ++p) {
   b711c:	42a6      	cmp	r6, r4
   b711e:	d005      	beq.n	b712c <_ZN5spark6VectorIN8particle13BlePeerDeviceENS_16DefaultAllocatorEE9removeOneERKS2_.isra.0+0x1e>
            if (*p == value) {
   b7120:	4639      	mov	r1, r7
   b7122:	4620      	mov	r0, r4
   b7124:	f7ff fcdd 	bl	b6ae2 <_ZNK8particle13BlePeerDeviceeqERKS0_>
   b7128:	b108      	cbz	r0, b712e <_ZN5spark6VectorIN8particle13BlePeerDeviceENS_16DefaultAllocatorEE9removeOneERKS2_.isra.0+0x20>
    if (!p) {
   b712a:	b914      	cbnz	r4, b7132 <_ZN5spark6VectorIN8particle13BlePeerDeviceENS_16DefaultAllocatorEE9removeOneERKS2_.isra.0+0x24>
}
   b712c:	bdf8      	pop	{r3, r4, r5, r6, r7, pc}
        for (; p != end; ++p) {
   b712e:	3408      	adds	r4, #8
   b7130:	e7f4      	b.n	b711c <_ZN5spark6VectorIN8particle13BlePeerDeviceENS_16DefaultAllocatorEE9removeOneERKS2_.isra.0+0xe>
   b7132:	1d20      	adds	r0, r4, #4
   b7134:	f7fd fda8 	bl	b4c88 <_ZNSt14__shared_countILN9__gnu_cxx12_Lock_policyE0EED1Ev>
    move(p, p + 1, data_ + size_);
   b7138:	e9d5 3200 	ldrd	r3, r2, [r5]
   b713c:	f104 0108 	add.w	r1, r4, #8
   b7140:	eb03 02c2 	add.w	r2, r3, r2, lsl #3
   b7144:	4620      	mov	r0, r4
   b7146:	f7ff ff7f 	bl	b7048 <_ZN5spark6VectorIN8particle13BlePeerDeviceENS_16DefaultAllocatorEE4moveIS2_Li0EEEvPS2_S6_S6_>
    --size_;
   b714a:	686b      	ldr	r3, [r5, #4]
   b714c:	3b01      	subs	r3, #1
   b714e:	606b      	str	r3, [r5, #4]
    return true;
   b7150:	e7ec      	b.n	b712c <_ZN5spark6VectorIN8particle13BlePeerDeviceENS_16DefaultAllocatorEE9removeOneERKS2_.isra.0+0x1e>
	...

000b7154 <_ZN8particle18BleLocalDeviceImpl15onBleLinkEventsEPK18hal_ble_link_evt_tPv>:
    static void onBleLinkEvents(const hal_ble_link_evt_t* event, void* context) {
   b7154:	e92d 41f0 	stmdb	sp!, {r4, r5, r6, r7, r8, lr}
   b7158:	4605      	mov	r5, r0
   b715a:	b08e      	sub	sp, #56	; 0x38
        WiringBleLock lk;
   b715c:	a803      	add	r0, sp, #12
    static void onBleLinkEvents(const hal_ble_link_evt_t* event, void* context) {
   b715e:	460c      	mov	r4, r1
        WiringBleLock lk;
   b7160:	f7ff fa96 	bl	b6690 <_ZN8particle3ble13WiringBleLockC1Ev>
        switch (event->type) {
   b7164:	682e      	ldr	r6, [r5, #0]
   b7166:	1ef3      	subs	r3, r6, #3
   b7168:	2b0d      	cmp	r3, #13
   b716a:	d83c      	bhi.n	b71e6 <_ZN8particle18BleLocalDeviceImpl15onBleLinkEventsEPK18hal_ble_link_evt_tPv+0x92>
   b716c:	e8df f013 	tbh	[pc, r3, lsl #1]
   b7170:	0053000e 	.word	0x0053000e
   b7174:	00d1003b 	.word	0x00d1003b
   b7178:	003b003b 	.word	0x003b003b
   b717c:	003b003b 	.word	0x003b003b
   b7180:	009b003b 	.word	0x009b003b
   b7184:	009b009b 	.word	0x009b009b
   b7188:	009b009b 	.word	0x009b009b
                BlePeerDevice peer;
   b718c:	a804      	add	r0, sp, #16
   b718e:	f7ff fc73 	bl	b6a78 <_ZN8particle13BlePeerDeviceC1Ev>
                peer.impl()->connHandle() = event->conn_handle;
   b7192:	9b04      	ldr	r3, [sp, #16]
   b7194:	89aa      	ldrh	r2, [r5, #12]
   b7196:	801a      	strh	r2, [r3, #0]
                peer.impl()->address() = event->params.connected.info->address;
   b7198:	6869      	ldr	r1, [r5, #4]
   b719a:	9804      	ldr	r0, [sp, #16]
   b719c:	3108      	adds	r1, #8
   b719e:	3002      	adds	r0, #2
   b71a0:	f7ff fa90 	bl	b66c4 <_ZN8particle10BleAddressaSERK14hal_ble_addr_t>
   b71a4:	a904      	add	r1, sp, #16
   b71a6:	a806      	add	r0, sp, #24
   b71a8:	f7ff fde9 	bl	b6d7e <_ZNSt12__shared_ptrIN8particle17BlePeerDeviceImplELN9__gnu_cxx12_Lock_policyE0EEC1ERKS4_>
                if (!impl->peers_.append(peer)) {
   b71ac:	a906      	add	r1, sp, #24
   b71ae:	f104 0018 	add.w	r0, r4, #24
   b71b2:	f7ff ff73 	bl	b709c <_ZN5spark6VectorIN8particle13BlePeerDeviceENS_16DefaultAllocatorEE6appendES2_>
   b71b6:	4605      	mov	r5, r0
   b71b8:	a807      	add	r0, sp, #28
   b71ba:	f7fd fd65 	bl	b4c88 <_ZNSt14__shared_countILN9__gnu_cxx12_Lock_policyE0EED1Ev>
   b71be:	2320      	movs	r3, #32
                    LOG(ERROR, "Failed to append peer Central device.");
   b71c0:	9306      	str	r3, [sp, #24]
                if (!impl->peers_.append(peer)) {
   b71c2:	b9b5      	cbnz	r5, b71f2 <_ZN8particle18BleLocalDeviceImpl15onBleLinkEventsEPK18hal_ble_link_evt_tPv+0x9e>
                    LOG(ERROR, "Failed to append peer Central device.");
   b71c4:	4b5d      	ldr	r3, [pc, #372]	; (b733c <_ZN8particle18BleLocalDeviceImpl15onBleLinkEventsEPK18hal_ble_link_evt_tPv+0x1e8>)
   b71c6:	495e      	ldr	r1, [pc, #376]	; (b7340 <_ZN8particle18BleLocalDeviceImpl15onBleLinkEventsEPK18hal_ble_link_evt_tPv+0x1ec>)
   b71c8:	9300      	str	r3, [sp, #0]
   b71ca:	2032      	movs	r0, #50	; 0x32
   b71cc:	462b      	mov	r3, r5
   b71ce:	aa06      	add	r2, sp, #24
   b71d0:	9507      	str	r5, [sp, #28]
   b71d2:	f7fe fb81 	bl	b58d8 <log_message>
                    hal_ble_gap_disconnect(peer.impl()->connHandle(), nullptr);
   b71d6:	9b04      	ldr	r3, [sp, #16]
   b71d8:	4629      	mov	r1, r5
   b71da:	8818      	ldrh	r0, [r3, #0]
   b71dc:	f7fe f9ba 	bl	b5554 <hal_ble_gap_disconnect>
   b71e0:	a805      	add	r0, sp, #20
   b71e2:	f7fd fd51 	bl	b4c88 <_ZNSt14__shared_countILN9__gnu_cxx12_Lock_policyE0EED1Ev>
        WiringBleLock lk;
   b71e6:	a803      	add	r0, sp, #12
   b71e8:	f7ff fa60 	bl	b66ac <_ZN8particle3ble13WiringBleLockD1Ev>
    }
   b71ec:	b00e      	add	sp, #56	; 0x38
   b71ee:	e8bd 81f0 	ldmia.w	sp!, {r4, r5, r6, r7, r8, pc}
                LOG(TRACE, "Connected by Central device.");
   b71f2:	4a54      	ldr	r2, [pc, #336]	; (b7344 <_ZN8particle18BleLocalDeviceImpl15onBleLinkEventsEPK18hal_ble_link_evt_tPv+0x1f0>)
   b71f4:	9200      	str	r2, [sp, #0]
   b71f6:	2300      	movs	r3, #0
   b71f8:	4951      	ldr	r1, [pc, #324]	; (b7340 <_ZN8particle18BleLocalDeviceImpl15onBleLinkEventsEPK18hal_ble_link_evt_tPv+0x1ec>)
   b71fa:	9307      	str	r3, [sp, #28]
   b71fc:	aa06      	add	r2, sp, #24
   b71fe:	2001      	movs	r0, #1
   b7200:	f7fe fb6a 	bl	b58d8 <log_message>
                if (impl->connectedCallback_) {
   b7204:	6ae3      	ldr	r3, [r4, #44]	; 0x2c
   b7206:	2b00      	cmp	r3, #0
   b7208:	d0ea      	beq.n	b71e0 <_ZN8particle18BleLocalDeviceImpl15onBleLinkEventsEPK18hal_ble_link_evt_tPv+0x8c>
                    impl->connectedCallback_(peer);
   b720a:	a904      	add	r1, sp, #16
   b720c:	f104 0024 	add.w	r0, r4, #36	; 0x24
   b7210:	f7ff fe37 	bl	b6e82 <_ZNKSt8functionIFvRKN8particle13BlePeerDeviceEEEclES3_>
   b7214:	e7e4      	b.n	b71e0 <_ZN8particle18BleLocalDeviceImpl15onBleLinkEventsEPK18hal_ble_link_evt_tPv+0x8c>
                BlePeerDevice* peer = impl->findPeerDevice(event->conn_handle);
   b7216:	89a9      	ldrh	r1, [r5, #12]
   b7218:	4620      	mov	r0, r4
   b721a:	f7ff fb91 	bl	b6940 <_ZN8particle18BleLocalDeviceImpl14findPeerDeviceEt>
                if (peer) {
   b721e:	4606      	mov	r6, r0
   b7220:	2800      	cmp	r0, #0
   b7222:	d0e0      	beq.n	b71e6 <_ZN8particle18BleLocalDeviceImpl15onBleLinkEventsEPK18hal_ble_link_evt_tPv+0x92>
      { return _M_ptr; }
   b7224:	6805      	ldr	r5, [r0, #0]
    return data_ + size_;
   b7226:	e9d5 3206 	ldrd	r3, r2, [r5, #24]
        connHandle_ = BLE_INVALID_CONN_HANDLE;
   b722a:	f64f 71ff 	movw	r1, #65535	; 0xffff
   b722e:	8029      	strh	r1, [r5, #0]
   b7230:	eb03 02c2 	add.w	r2, r3, r2, lsl #3
        for (auto& characteristic : characteristics()) {
   b7234:	429a      	cmp	r2, r3
   b7236:	d003      	beq.n	b7240 <_ZN8particle18BleLocalDeviceImpl15onBleLinkEventsEPK18hal_ble_link_evt_tPv+0xec>
   b7238:	f853 0b08 	ldr.w	r0, [r3], #8
            characteristic.impl()->connHandle() = BLE_INVALID_CONN_HANDLE;
   b723c:	8041      	strh	r1, [r0, #2]
        for (auto& characteristic : characteristics()) {
   b723e:	e7f9      	b.n	b7234 <_ZN8particle18BleLocalDeviceImpl15onBleLinkEventsEPK18hal_ble_link_evt_tPv+0xe0>
    destruct(data_, data_ + size_);
   b7240:	e9d5 7303 	ldrd	r7, r3, [r5, #12]
   b7244:	eb07 08c3 	add.w	r8, r7, r3, lsl #3
        for (; p != end; ++p) {
   b7248:	45b8      	cmp	r8, r7
   b724a:	d004      	beq.n	b7256 <_ZN8particle18BleLocalDeviceImpl15onBleLinkEventsEPK18hal_ble_link_evt_tPv+0x102>
      ~__shared_ptr() = default;
   b724c:	1d38      	adds	r0, r7, #4
   b724e:	f7fd fd1b 	bl	b4c88 <_ZNSt14__shared_countILN9__gnu_cxx12_Lock_policyE0EED1Ev>
   b7252:	3708      	adds	r7, #8
   b7254:	e7f8      	b.n	b7248 <_ZN8particle18BleLocalDeviceImpl15onBleLinkEventsEPK18hal_ble_link_evt_tPv+0xf4>
    size_ = 0;
   b7256:	2300      	movs	r3, #0
   b7258:	612b      	str	r3, [r5, #16]
    destruct(data_, data_ + size_);
   b725a:	e9d5 7306 	ldrd	r7, r3, [r5, #24]
   b725e:	eb07 08c3 	add.w	r8, r7, r3, lsl #3
        for (; p != end; ++p) {
   b7262:	45b8      	cmp	r8, r7
   b7264:	d004      	beq.n	b7270 <_ZN8particle18BleLocalDeviceImpl15onBleLinkEventsEPK18hal_ble_link_evt_tPv+0x11c>
   b7266:	1d38      	adds	r0, r7, #4
   b7268:	f7fd fd0e 	bl	b4c88 <_ZNSt14__shared_countILN9__gnu_cxx12_Lock_policyE0EED1Ev>
   b726c:	3708      	adds	r7, #8
   b726e:	e7f8      	b.n	b7262 <_ZN8particle18BleLocalDeviceImpl15onBleLinkEventsEPK18hal_ble_link_evt_tPv+0x10e>
    size_ = 0;
   b7270:	2300      	movs	r3, #0
   b7272:	61eb      	str	r3, [r5, #28]
        servicesDiscovered_ = false;
   b7274:	72ab      	strb	r3, [r5, #10]
                    if (impl->disconnectedCallback_) {
   b7276:	6be3      	ldr	r3, [r4, #60]	; 0x3c
   b7278:	b123      	cbz	r3, b7284 <_ZN8particle18BleLocalDeviceImpl15onBleLinkEventsEPK18hal_ble_link_evt_tPv+0x130>
                        impl->disconnectedCallback_(*peer);
   b727a:	4631      	mov	r1, r6
   b727c:	f104 0034 	add.w	r0, r4, #52	; 0x34
   b7280:	f7ff fdff 	bl	b6e82 <_ZNKSt8functionIFvRKN8particle13BlePeerDeviceEEEclES3_>
                    LOG(TRACE, "Disconnected by remote device.");
   b7284:	2300      	movs	r3, #0
   b7286:	2220      	movs	r2, #32
   b7288:	e9cd 2306 	strd	r2, r3, [sp, #24]
   b728c:	4a2e      	ldr	r2, [pc, #184]	; (b7348 <_ZN8particle18BleLocalDeviceImpl15onBleLinkEventsEPK18hal_ble_link_evt_tPv+0x1f4>)
   b728e:	9200      	str	r2, [sp, #0]
   b7290:	492b      	ldr	r1, [pc, #172]	; (b7340 <_ZN8particle18BleLocalDeviceImpl15onBleLinkEventsEPK18hal_ble_link_evt_tPv+0x1ec>)
   b7292:	aa06      	add	r2, sp, #24
   b7294:	2001      	movs	r0, #1
   b7296:	f7fe fb1f 	bl	b58d8 <log_message>
                    impl->peers_.removeOne(*peer);
   b729a:	4631      	mov	r1, r6
   b729c:	f104 0018 	add.w	r0, r4, #24
   b72a0:	f7ff ff35 	bl	b710e <_ZN5spark6VectorIN8particle13BlePeerDeviceENS_16DefaultAllocatorEE9removeOneERKS2_.isra.0>
   b72a4:	e79f      	b.n	b71e6 <_ZN8particle18BleLocalDeviceImpl15onBleLinkEventsEPK18hal_ble_link_evt_tPv+0x92>
                BlePeerDevice* peer = impl->findPeerDevice(event->conn_handle);
   b72a6:	89a9      	ldrh	r1, [r5, #12]
   b72a8:	4620      	mov	r0, r4
   b72aa:	f7ff fb49 	bl	b6940 <_ZN8particle18BleLocalDeviceImpl14findPeerDeviceEt>
                if (peer) {
   b72ae:	2800      	cmp	r0, #0
   b72b0:	d099      	beq.n	b71e6 <_ZN8particle18BleLocalDeviceImpl15onBleLinkEventsEPK18hal_ble_link_evt_tPv+0x92>
                    if (impl->pairingEventCallback_) {
   b72b2:	6ce3      	ldr	r3, [r4, #76]	; 0x4c
   b72b4:	2b00      	cmp	r3, #0
   b72b6:	d096      	beq.n	b71e6 <_ZN8particle18BleLocalDeviceImpl15onBleLinkEventsEPK18hal_ble_link_evt_tPv+0x92>
                        BlePairingEventPayload payload = {};
   b72b8:	2300      	movs	r3, #0
                        if (event->type == BLE_EVT_PAIRING_PASSKEY_DISPLAY || event->type == BLE_EVT_PAIRING_NUMERIC_COMPARISON) {
   b72ba:	2e0d      	cmp	r6, #13
                        BlePairingEventPayload payload = {};
   b72bc:	f8ad 3016 	strh.w	r3, [sp, #22]
                        if (event->type == BLE_EVT_PAIRING_PASSKEY_DISPLAY || event->type == BLE_EVT_PAIRING_NUMERIC_COMPARISON) {
   b72c0:	d001      	beq.n	b72c6 <_ZN8particle18BleLocalDeviceImpl15onBleLinkEventsEPK18hal_ble_link_evt_tPv+0x172>
   b72c2:	2e10      	cmp	r6, #16
   b72c4:	d117      	bne.n	b72f6 <_ZN8particle18BleLocalDeviceImpl15onBleLinkEventsEPK18hal_ble_link_evt_tPv+0x1a2>
                        BlePairingEventPayload payload = {};
   b72c6:	2300      	movs	r3, #0
                            payload.passkey = event->params.passkey_display.passkey;
   b72c8:	6869      	ldr	r1, [r5, #4]
                        BlePairingEventPayload payload = {};
   b72ca:	461a      	mov	r2, r3
                            payloadLen = BLE_PAIRING_PASSKEY_LEN;
   b72cc:	2506      	movs	r5, #6
                        };
   b72ce:	f88d 3015 	strb.w	r3, [sp, #21]
   b72d2:	9104      	str	r1, [sp, #16]
   b72d4:	f88d 2014 	strb.w	r2, [sp, #20]
   b72d8:	9006      	str	r0, [sp, #24]
   b72da:	e9dd 0104 	ldrd	r0, r1, [sp, #16]
   b72de:	ab09      	add	r3, sp, #36	; 0x24
                            .type = static_cast<BlePairingEventType>(event->type),
   b72e0:	f88d 601c 	strb.w	r6, [sp, #28]
                        };
   b72e4:	9508      	str	r5, [sp, #32]
   b72e6:	e883 0003 	stmia.w	r3, {r0, r1}
   b72ea:	6d23      	ldr	r3, [r4, #80]	; 0x50
   b72ec:	a906      	add	r1, sp, #24
   b72ee:	f104 0044 	add.w	r0, r4, #68	; 0x44
   b72f2:	4798      	blx	r3
   b72f4:	e777      	b.n	b71e6 <_ZN8particle18BleLocalDeviceImpl15onBleLinkEventsEPK18hal_ble_link_evt_tPv+0x92>
                        } else if (event->type == BLE_EVT_PAIRING_STATUS_UPDATED) {
   b72f6:	2e0f      	cmp	r6, #15
                            payload.status.bonded = event->params.pairing_status.bonded;
   b72f8:	bf01      	itttt	eq
   b72fa:	7a2b      	ldrbeq	r3, [r5, #8]
                            payload.status.status = event->params.pairing_status.status;
   b72fc:	6869      	ldreq	r1, [r5, #4]
                            payload.status.bonded = event->params.pairing_status.bonded;
   b72fe:	f003 0201 	andeq.w	r2, r3, #1
                            payloadLen = sizeof(BlePairingStatus);
   b7302:	2508      	moveq	r5, #8
                            payload.status.lesc = event->params.pairing_status.lesc;
   b7304:	bf0f      	iteee	eq
   b7306:	f3c3 0340 	ubfxeq	r3, r3, #1, #1
                        BlePairingEventPayload payload = {};
   b730a:	461a      	movne	r2, r3
   b730c:	4619      	movne	r1, r3
                        size_t payloadLen = 0;
   b730e:	461d      	movne	r5, r3
   b7310:	e7dd      	b.n	b72ce <_ZN8particle18BleLocalDeviceImpl15onBleLinkEventsEPK18hal_ble_link_evt_tPv+0x17a>
                BlePeerDevice* peer = impl->findPeerDevice(event->conn_handle);
   b7312:	89a9      	ldrh	r1, [r5, #12]
   b7314:	4620      	mov	r0, r4
   b7316:	f7ff fb13 	bl	b6940 <_ZN8particle18BleLocalDeviceImpl14findPeerDeviceEt>
                if (peer && impl->attMtuExchangedCallback_) {
   b731a:	4601      	mov	r1, r0
   b731c:	2800      	cmp	r0, #0
   b731e:	f43f af62 	beq.w	b71e6 <_ZN8particle18BleLocalDeviceImpl15onBleLinkEventsEPK18hal_ble_link_evt_tPv+0x92>
   b7322:	6de3      	ldr	r3, [r4, #92]	; 0x5c
   b7324:	2b00      	cmp	r3, #0
   b7326:	f43f af5e 	beq.w	b71e6 <_ZN8particle18BleLocalDeviceImpl15onBleLinkEventsEPK18hal_ble_link_evt_tPv+0x92>
                    impl->attMtuExchangedCallback_(*peer, event->params.att_mtu_updated.att_mtu_size);
   b732a:	686b      	ldr	r3, [r5, #4]
   b732c:	9306      	str	r3, [sp, #24]
   b732e:	aa06      	add	r2, sp, #24
   b7330:	6e23      	ldr	r3, [r4, #96]	; 0x60
   b7332:	f104 0054 	add.w	r0, r4, #84	; 0x54
   b7336:	4798      	blx	r3
   b7338:	e755      	b.n	b71e6 <_ZN8particle18BleLocalDeviceImpl15onBleLinkEventsEPK18hal_ble_link_evt_tPv+0x92>
   b733a:	bf00      	nop
   b733c:	000bbf38 	.word	0x000bbf38
   b7340:	000bbeb7 	.word	0x000bbeb7
   b7344:	000bbf5e 	.word	0x000bbf5e
   b7348:	000bbf7b 	.word	0x000bbf7b

000b734c <_ZSt4swapISt9_Any_dataENSt9enable_ifIXsrSt6__and_IJSt6__not_ISt15__is_tuple_likeIT_EESt21is_move_constructibleIS5_ESt18is_move_assignableIS5_EEE5valueEvE4typeERS5_SF_>:
    swap(_Tp& __a, _Tp& __b)
   b734c:	b513      	push	{r0, r1, r4, lr}
   b734e:	460b      	mov	r3, r1
   b7350:	4602      	mov	r2, r0
      _Tp __tmp = _GLIBCXX_MOVE(__a);
   b7352:	e9d0 0100 	ldrd	r0, r1, [r0]
   b7356:	466c      	mov	r4, sp
   b7358:	e884 0003 	stmia.w	r4, {r0, r1}
      __a = _GLIBCXX_MOVE(__b);
   b735c:	e893 0003 	ldmia.w	r3, {r0, r1}
   b7360:	e882 0003 	stmia.w	r2, {r0, r1}
      __b = _GLIBCXX_MOVE(__tmp);
   b7364:	e894 0003 	ldmia.w	r4, {r0, r1}
   b7368:	e883 0003 	stmia.w	r3, {r0, r1}
    }
   b736c:	b002      	add	sp, #8
   b736e:	bd10      	pop	{r4, pc}

000b7370 <_ZNSt8functionIFvPKhjRKN8particle13BlePeerDeviceEEE4swapERS7_>:
      void swap(function& __x) noexcept
   b7370:	b538      	push	{r3, r4, r5, lr}
   b7372:	4605      	mov	r5, r0
   b7374:	460c      	mov	r4, r1
	std::swap(_M_functor, __x._M_functor);
   b7376:	f7ff ffe9 	bl	b734c <_ZSt4swapISt9_Any_dataENSt9enable_ifIXsrSt6__and_IJSt6__not_ISt15__is_tuple_likeIT_EESt21is_move_constructibleIS5_ESt18is_move_assignableIS5_EEE5valueEvE4typeERS5_SF_>
      _Tp __tmp = _GLIBCXX_MOVE(__a);
   b737a:	68ab      	ldr	r3, [r5, #8]
      __a = _GLIBCXX_MOVE(__b);
   b737c:	68a2      	ldr	r2, [r4, #8]
   b737e:	60aa      	str	r2, [r5, #8]
      __b = _GLIBCXX_MOVE(__tmp);
   b7380:	60a3      	str	r3, [r4, #8]
      _Tp __tmp = _GLIBCXX_MOVE(__a);
   b7382:	68eb      	ldr	r3, [r5, #12]
      __a = _GLIBCXX_MOVE(__b);
   b7384:	68e2      	ldr	r2, [r4, #12]
   b7386:	60ea      	str	r2, [r5, #12]
      __b = _GLIBCXX_MOVE(__tmp);
   b7388:	60e3      	str	r3, [r4, #12]
      }
   b738a:	bd38      	pop	{r3, r4, r5, pc}

000b738c <_ZN8particle21BleCharacteristicImplC1ENS_9EnumFlagsINS_25BleCharacteristicPropertyEvEEPKcPFvPKhjRKNS_13BlePeerDeviceEPvESB_>:
    BleCharacteristicImpl(EnumFlags<BleCharacteristicProperty> properties, const char* desc, BleOnDataReceivedCallback callback, void* context)
   b738c:	b570      	push	{r4, r5, r6, lr}
   b738e:	4604      	mov	r4, r0
   b7390:	b08c      	sub	sp, #48	; 0x30
   b7392:	460e      	mov	r6, r1
   b7394:	9201      	str	r2, [sp, #4]
   b7396:	461d      	mov	r5, r3
            : BleCharacteristicImpl() {
   b7398:	f7ff fab2 	bl	b6900 <_ZN8particle21BleCharacteristicImplC1Ev>
        properties_ = properties;
   b739c:	7126      	strb	r6, [r4, #4]
        description_ = desc;
   b739e:	9901      	ldr	r1, [sp, #4]
   b73a0:	f104 003c 	add.w	r0, r4, #60	; 0x3c
   b73a4:	f7ff f816 	bl	b63d4 <_ZN6StringaSEPKc>
        dataReceivedCallback_ = callback ? std::bind(callback, _1, _2, _3, context) : (BleOnDataReceivedStdFunction)nullptr;
   b73a8:	f104 064c 	add.w	r6, r4, #76	; 0x4c
   b73ac:	b1cd      	cbz	r5, b73e2 <_ZN8particle21BleCharacteristicImplC1ENS_9EnumFlagsINS_25BleCharacteristicPropertyEvEEPKcPFvPKhjRKNS_13BlePeerDeviceEPvESB_+0x56>
   b73ae:	9b10      	ldr	r3, [sp, #64]	; 0x40
	: _M_f(__f), _M_bound_args(std::forward<_Args>(__args)...)
   b73b0:	9502      	str	r5, [sp, #8]
   b73b2:	a902      	add	r1, sp, #8
   b73b4:	a804      	add	r0, sp, #16
   b73b6:	9303      	str	r3, [sp, #12]
   b73b8:	f7ff fc92 	bl	b6ce0 <_ZNSt8functionIFvPKhjRKN8particle13BlePeerDeviceEEEC1ISt5_BindIFPFvS1_jS5_PvESt12_PlaceholderILi1EESD_ILi2EESD_ILi3EESA_EEvvEET_>
    _Function_base() : _M_manager(nullptr) { }
   b73bc:	2300      	movs	r3, #0
	__x.swap(*this);
   b73be:	a908      	add	r1, sp, #32
   b73c0:	a804      	add	r0, sp, #16
    _Function_base() : _M_manager(nullptr) { }
   b73c2:	930a      	str	r3, [sp, #40]	; 0x28
	__x.swap(*this);
   b73c4:	f7ff ffd4 	bl	b7370 <_ZNSt8functionIFvPKhjRKN8particle13BlePeerDeviceEEE4swapERS7_>
	function(std::move(__x)).swap(*this);
   b73c8:	4631      	mov	r1, r6
   b73ca:	a808      	add	r0, sp, #32
   b73cc:	f7ff ffd0 	bl	b7370 <_ZNSt8functionIFvPKhjRKN8particle13BlePeerDeviceEEE4swapERS7_>
    class function<_Res(_ArgTypes...)>
   b73d0:	a808      	add	r0, sp, #32
   b73d2:	f7fd f801 	bl	b43d8 <_ZNSt14_Function_baseD1Ev>
   b73d6:	a804      	add	r0, sp, #16
   b73d8:	f7fc fffe 	bl	b43d8 <_ZNSt14_Function_baseD1Ev>
    }
   b73dc:	4620      	mov	r0, r4
   b73de:	b00c      	add	sp, #48	; 0x30
   b73e0:	bd70      	pop	{r4, r5, r6, pc}
    _Function_base() : _M_manager(nullptr) { }
   b73e2:	9506      	str	r5, [sp, #24]
      : _Function_base() { }
   b73e4:	e7ea      	b.n	b73bc <_ZN8particle21BleCharacteristicImplC1ENS_9EnumFlagsINS_25BleCharacteristicPropertyEvEEPKcPFvPKhjRKNS_13BlePeerDeviceEPvESB_+0x30>
	...

000b73e8 <_ZN8particle17BleCharacteristic9constructEPKcNS_9EnumFlagsINS_25BleCharacteristicPropertyEvEERNS_7BleUuidES7_PFvPKhjRKNS_13BlePeerDeviceEPvESD_>:
void BleCharacteristic::construct(const char* desc, EnumFlags<BleCharacteristicProperty> properties, BleUuid& charUuid, BleUuid& svcUuid, BleOnDataReceivedCallback callback, void* context) {
   b73e8:	e92d 4ff0 	stmdb	sp!, {r4, r5, r6, r7, r8, r9, sl, fp, lr}
   b73ec:	b087      	sub	sp, #28
   b73ee:	461d      	mov	r5, r3
   b73f0:	e9dd 4310 	ldrd	r4, r3, [sp, #64]	; 0x40
   b73f4:	4680      	mov	r8, r0
   b73f6:	468b      	mov	fp, r1
   b73f8:	4692      	mov	sl, r2
   b73fa:	9912      	ldr	r1, [sp, #72]	; 0x48
   b73fc:	9303      	str	r3, [sp, #12]
	: _M_ptr(), _M_refcount(_M_ptr, __tag, std::forward<_Args>(__args)...)
   b73fe:	2200      	movs	r2, #0
   b7400:	2068      	movs	r0, #104	; 0x68
   b7402:	9102      	str	r1, [sp, #8]
   b7404:	9204      	str	r2, [sp, #16]
   b7406:	f7fc fe46 	bl	b4096 <_Znwj>
	  auto __pi = ::new (__mem)
   b740a:	1e06      	subs	r6, r0, #0
   b740c:	f106 090c 	add.w	r9, r6, #12
   b7410:	d018      	beq.n	b7444 <_ZN8particle17BleCharacteristic9constructEPKcNS_9EnumFlagsINS_25BleCharacteristicPropertyEvEERNS_7BleUuidES7_PFvPKhjRKNS_13BlePeerDeviceEPvESD_+0x5c>
      : _M_use_count(1), _M_weak_count(1) { }
   b7412:	2201      	movs	r2, #1
	: _M_impl(__a)
   b7414:	4637      	mov	r7, r6
      : _M_use_count(1), _M_weak_count(1) { }
   b7416:	e9c6 2201 	strd	r2, r2, [r6, #4]
            : BleCharacteristicImpl(properties, desc, callback, context) {
   b741a:	9902      	ldr	r1, [sp, #8]
	: _M_impl(__a)
   b741c:	4a15      	ldr	r2, [pc, #84]	; (b7474 <_ZN8particle17BleCharacteristic9constructEPKcNS_9EnumFlagsINS_25BleCharacteristicPropertyEvEERNS_7BleUuidES7_PFvPKhjRKNS_13BlePeerDeviceEPvESD_+0x8c>)
   b741e:	f847 2b20 	str.w	r2, [r7], #32
   b7422:	9b03      	ldr	r3, [sp, #12]
   b7424:	9100      	str	r1, [sp, #0]
   b7426:	465a      	mov	r2, fp
   b7428:	4651      	mov	r1, sl
   b742a:	4648      	mov	r0, r9
   b742c:	f7ff ffae 	bl	b738c <_ZN8particle21BleCharacteristicImplC1ENS_9EnumFlagsINS_25BleCharacteristicPropertyEvEEPKcPFvPKhjRKNS_13BlePeerDeviceEPvESB_>
        charUuid_ = charUuid;
   b7430:	cd0f      	ldmia	r5!, {r0, r1, r2, r3}
   b7432:	c70f      	stmia	r7!, {r0, r1, r2, r3}
   b7434:	682b      	ldr	r3, [r5, #0]
   b7436:	603b      	str	r3, [r7, #0]
        svcUuid_ = svcUuid;
   b7438:	cc0f      	ldmia	r4!, {r0, r1, r2, r3}
   b743a:	f106 0534 	add.w	r5, r6, #52	; 0x34
   b743e:	c50f      	stmia	r5!, {r0, r1, r2, r3}
   b7440:	6823      	ldr	r3, [r4, #0]
   b7442:	602b      	str	r3, [r5, #0]
#endif

      shared_ptr&
      operator=(shared_ptr&& __r) noexcept
      {
	this->__shared_ptr<_Tp>::operator=(std::move(__r));
   b7444:	a904      	add	r1, sp, #16
   b7446:	4640      	mov	r0, r8
	  __p = __pi->_M_ptr();
   b7448:	e9cd 9604 	strd	r9, r6, [sp, #16]
   b744c:	f7ff fd08 	bl	b6e60 <_ZNSt12__shared_ptrIN8particle21BleCharacteristicImplELN9__gnu_cxx12_Lock_policyE0EEaSEOS4_.isra.0>
      ~__shared_ptr() = default;
   b7450:	a805      	add	r0, sp, #20
   b7452:	f7fd fc19 	bl	b4c88 <_ZNSt14__shared_countILN9__gnu_cxx12_Lock_policyE0EED1Ev>
    if (!impl()) {
   b7456:	f8d8 3000 	ldr.w	r3, [r8]
   b745a:	b93b      	cbnz	r3, b746c <_ZN8particle17BleCharacteristic9constructEPKcNS_9EnumFlagsINS_25BleCharacteristicPropertyEvEERNS_7BleUuidES7_PFvPKhjRKNS_13BlePeerDeviceEPvESD_+0x84>
        SPARK_ASSERT(false);
   b745c:	4a06      	ldr	r2, [pc, #24]	; (b7478 <_ZN8particle17BleCharacteristic9constructEPKcNS_9EnumFlagsINS_25BleCharacteristicPropertyEvEERNS_7BleUuidES7_PFvPKhjRKNS_13BlePeerDeviceEPvESD_+0x90>)
   b745e:	4907      	ldr	r1, [pc, #28]	; (b747c <_ZN8particle17BleCharacteristic9constructEPKcNS_9EnumFlagsINS_25BleCharacteristicPropertyEvEERNS_7BleUuidES7_PFvPKhjRKNS_13BlePeerDeviceEPvESD_+0x94>)
   b7460:	200a      	movs	r0, #10
}
   b7462:	b007      	add	sp, #28
   b7464:	e8bd 4ff0 	ldmia.w	sp!, {r4, r5, r6, r7, r8, r9, sl, fp, lr}
        SPARK_ASSERT(false);
   b7468:	f7fe ba2e 	b.w	b58c8 <panic_>
}
   b746c:	b007      	add	sp, #28
   b746e:	e8bd 8ff0 	ldmia.w	sp!, {r4, r5, r6, r7, r8, r9, sl, fp, pc}
   b7472:	bf00      	nop
   b7474:	000bbff4 	.word	0x000bbff4
   b7478:	000b54c5 	.word	0x000b54c5
   b747c:	000bbea0 	.word	0x000bbea0

000b7480 <_ZNSt8functionIFvRKN8particle13BlePeerDeviceEEE4swapERS5_>:
      void swap(function& __x) noexcept
   b7480:	b538      	push	{r3, r4, r5, lr}
   b7482:	4605      	mov	r5, r0
   b7484:	460c      	mov	r4, r1
	std::swap(_M_functor, __x._M_functor);
   b7486:	f7ff ff61 	bl	b734c <_ZSt4swapISt9_Any_dataENSt9enable_ifIXsrSt6__and_IJSt6__not_ISt15__is_tuple_likeIT_EESt21is_move_constructibleIS5_ESt18is_move_assignableIS5_EEE5valueEvE4typeERS5_SF_>
      _Tp __tmp = _GLIBCXX_MOVE(__a);
   b748a:	68ab      	ldr	r3, [r5, #8]
      __a = _GLIBCXX_MOVE(__b);
   b748c:	68a2      	ldr	r2, [r4, #8]
   b748e:	60aa      	str	r2, [r5, #8]
      __b = _GLIBCXX_MOVE(__tmp);
   b7490:	60a3      	str	r3, [r4, #8]
      _Tp __tmp = _GLIBCXX_MOVE(__a);
   b7492:	68eb      	ldr	r3, [r5, #12]
      __a = _GLIBCXX_MOVE(__b);
   b7494:	68e2      	ldr	r2, [r4, #12]
   b7496:	60ea      	str	r2, [r5, #12]
      __b = _GLIBCXX_MOVE(__tmp);
   b7498:	60e3      	str	r3, [r4, #12]
      }
   b749a:	bd38      	pop	{r3, r4, r5, pc}

000b749c <_ZNK8particle14BleLocalDevice11onConnectedEPFvRKNS_13BlePeerDeviceEPvES4_>:
void BleLocalDevice::onConnected(BleOnConnectedCallback callback, void* context) const {
   b749c:	b510      	push	{r4, lr}
        connectedCallback_ = callback ? std::bind(callback, _1, context) : (BleOnConnectedStdFunction)nullptr;
   b749e:	6804      	ldr	r4, [r0, #0]
void BleLocalDevice::onConnected(BleOnConnectedCallback callback, void* context) const {
   b74a0:	b08a      	sub	sp, #40	; 0x28
        connectedCallback_ = callback ? std::bind(callback, _1, context) : (BleOnConnectedStdFunction)nullptr;
   b74a2:	3424      	adds	r4, #36	; 0x24
   b74a4:	b1b9      	cbz	r1, b74d6 <_ZNK8particle14BleLocalDevice11onConnectedEPFvRKNS_13BlePeerDeviceEPvES4_+0x3a>
   b74a6:	e9cd 1200 	strd	r1, r2, [sp]
   b74aa:	a802      	add	r0, sp, #8
   b74ac:	4669      	mov	r1, sp
   b74ae:	f7ff fc2f 	bl	b6d10 <_ZNSt8functionIFvRKN8particle13BlePeerDeviceEEEC1ISt5_BindIFPFvS3_PvESt12_PlaceholderILi1EES8_EEvvEET_>
    _Function_base() : _M_manager(nullptr) { }
   b74b2:	2300      	movs	r3, #0
	__x.swap(*this);
   b74b4:	a906      	add	r1, sp, #24
   b74b6:	a802      	add	r0, sp, #8
    _Function_base() : _M_manager(nullptr) { }
   b74b8:	9308      	str	r3, [sp, #32]
	__x.swap(*this);
   b74ba:	f7ff ffe1 	bl	b7480 <_ZNSt8functionIFvRKN8particle13BlePeerDeviceEEE4swapERS5_>
	function(std::move(__x)).swap(*this);
   b74be:	4621      	mov	r1, r4
   b74c0:	a806      	add	r0, sp, #24
   b74c2:	f7ff ffdd 	bl	b7480 <_ZNSt8functionIFvRKN8particle13BlePeerDeviceEEE4swapERS5_>
    class function<_Res(_ArgTypes...)>
   b74c6:	a806      	add	r0, sp, #24
   b74c8:	f7fc ff86 	bl	b43d8 <_ZNSt14_Function_baseD1Ev>
   b74cc:	a802      	add	r0, sp, #8
   b74ce:	f7fc ff83 	bl	b43d8 <_ZNSt14_Function_baseD1Ev>
}
   b74d2:	b00a      	add	sp, #40	; 0x28
   b74d4:	bd10      	pop	{r4, pc}
    _Function_base() : _M_manager(nullptr) { }
   b74d6:	9104      	str	r1, [sp, #16]
      : _Function_base() { }
   b74d8:	e7eb      	b.n	b74b2 <_ZNK8particle14BleLocalDevice11onConnectedEPFvRKNS_13BlePeerDeviceEPvES4_+0x16>

000b74da <_ZN5spark6VectorIN8particle10BleServiceENS_16DefaultAllocatorEE4moveIS2_Li0EEEvPS2_S6_S6_>:
        if (dest > p && dest < end) {
   b74da:	4288      	cmp	r0, r1
    static void move(T* dest, T* p, T* end) {
   b74dc:	b5f8      	push	{r3, r4, r5, r6, r7, lr}
   b74de:	4604      	mov	r4, r0
   b74e0:	460d      	mov	r5, r1
   b74e2:	4616      	mov	r6, r2
        if (dest > p && dest < end) {
   b74e4:	d914      	bls.n	b7510 <_ZN5spark6VectorIN8particle10BleServiceENS_16DefaultAllocatorEE4moveIS2_Li0EEEvPS2_S6_S6_+0x36>
   b74e6:	4290      	cmp	r0, r2
   b74e8:	d213      	bcs.n	b7512 <_ZN5spark6VectorIN8particle10BleServiceENS_16DefaultAllocatorEE4moveIS2_Li0EEEvPS2_S6_S6_+0x38>
            --end;
   b74ea:	f1a2 0608 	sub.w	r6, r2, #8
            dest += end - p - 1;
   b74ee:	1a75      	subs	r5, r6, r1
   b74f0:	f1a1 0708 	sub.w	r7, r1, #8
   b74f4:	442c      	add	r4, r5
            for (; end != p; --end, --dest) {
   b74f6:	42b7      	cmp	r7, r6
   b74f8:	d018      	beq.n	b752c <_ZN5spark6VectorIN8particle10BleServiceENS_16DefaultAllocatorEE4moveIS2_Li0EEEvPS2_S6_S6_+0x52>
                new(dest) T(std::move(*end));
   b74fa:	b11c      	cbz	r4, b7504 <_ZN5spark6VectorIN8particle10BleServiceENS_16DefaultAllocatorEE4moveIS2_Li0EEEvPS2_S6_S6_+0x2a>
      shared_ptr(const shared_ptr&) noexcept = default; ///< Copy constructor
   b74fc:	4631      	mov	r1, r6
   b74fe:	4620      	mov	r0, r4
   b7500:	f7ff fc33 	bl	b6d6a <_ZNSt12__shared_ptrIN8particle14BleServiceImplELN9__gnu_cxx12_Lock_policyE0EEC1ERKS4_>
   b7504:	1d30      	adds	r0, r6, #4
   b7506:	f7fd fbbf 	bl	b4c88 <_ZNSt14__shared_countILN9__gnu_cxx12_Lock_policyE0EED1Ev>
            for (; end != p; --end, --dest) {
   b750a:	3e08      	subs	r6, #8
   b750c:	3c08      	subs	r4, #8
   b750e:	e7f2      	b.n	b74f6 <_ZN5spark6VectorIN8particle10BleServiceENS_16DefaultAllocatorEE4moveIS2_Li0EEEvPS2_S6_S6_+0x1c>
        } else if (dest != p) {
   b7510:	d00c      	beq.n	b752c <_ZN5spark6VectorIN8particle10BleServiceENS_16DefaultAllocatorEE4moveIS2_Li0EEEvPS2_S6_S6_+0x52>
            for (; p != end; ++p, ++dest) {
   b7512:	42b5      	cmp	r5, r6
   b7514:	d00a      	beq.n	b752c <_ZN5spark6VectorIN8particle10BleServiceENS_16DefaultAllocatorEE4moveIS2_Li0EEEvPS2_S6_S6_+0x52>
                new(dest) T(std::move(*p));
   b7516:	b11c      	cbz	r4, b7520 <_ZN5spark6VectorIN8particle10BleServiceENS_16DefaultAllocatorEE4moveIS2_Li0EEEvPS2_S6_S6_+0x46>
   b7518:	4629      	mov	r1, r5
   b751a:	4620      	mov	r0, r4
   b751c:	f7ff fc25 	bl	b6d6a <_ZNSt12__shared_ptrIN8particle14BleServiceImplELN9__gnu_cxx12_Lock_policyE0EEC1ERKS4_>
   b7520:	1d28      	adds	r0, r5, #4
   b7522:	f7fd fbb1 	bl	b4c88 <_ZNSt14__shared_countILN9__gnu_cxx12_Lock_policyE0EED1Ev>
            for (; p != end; ++p, ++dest) {
   b7526:	3508      	adds	r5, #8
   b7528:	3408      	adds	r4, #8
   b752a:	e7f2      	b.n	b7512 <_ZN5spark6VectorIN8particle10BleServiceENS_16DefaultAllocatorEE4moveIS2_Li0EEEvPS2_S6_S6_+0x38>
    }
   b752c:	bdf8      	pop	{r3, r4, r5, r6, r7, pc}

000b752e <_ZN5spark6VectorIN8particle10BleServiceENS_16DefaultAllocatorEE7reallocIS2_Li0EEEbi>:
    bool realloc(int n) {
   b752e:	b570      	push	{r4, r5, r6, lr}
        if (n > 0) {
   b7530:	1e0e      	subs	r6, r1, #0
    bool realloc(int n) {
   b7532:	4605      	mov	r5, r0
        if (n > 0) {
   b7534:	dd11      	ble.n	b755a <_ZN5spark6VectorIN8particle10BleServiceENS_16DefaultAllocatorEE7reallocIS2_Li0EEEbi+0x2c>
    return ::malloc(size);
   b7536:	00f0      	lsls	r0, r6, #3
   b7538:	f7fe fab2 	bl	b5aa0 <malloc>
            if (!d) {
   b753c:	4604      	mov	r4, r0
   b753e:	b158      	cbz	r0, b7558 <_ZN5spark6VectorIN8particle10BleServiceENS_16DefaultAllocatorEE7reallocIS2_Li0EEEbi+0x2a>
            move(d, data_, data_ + size_);
   b7540:	e9d5 1200 	ldrd	r1, r2, [r5]
   b7544:	eb01 02c2 	add.w	r2, r1, r2, lsl #3
   b7548:	f7ff ffc7 	bl	b74da <_ZN5spark6VectorIN8particle10BleServiceENS_16DefaultAllocatorEE4moveIS2_Li0EEEvPS2_S6_S6_>
    ::free(ptr);
   b754c:	6828      	ldr	r0, [r5, #0]
   b754e:	f7fe faaf 	bl	b5ab0 <free>
        data_ = d;
   b7552:	602c      	str	r4, [r5, #0]
        capacity_ = n;
   b7554:	60ae      	str	r6, [r5, #8]
        return true;
   b7556:	2001      	movs	r0, #1
    }
   b7558:	bd70      	pop	{r4, r5, r6, pc}
        T* d = nullptr;
   b755a:	2400      	movs	r4, #0
   b755c:	e7f6      	b.n	b754c <_ZN5spark6VectorIN8particle10BleServiceENS_16DefaultAllocatorEE7reallocIS2_Li0EEEbi+0x1e>

000b755e <_ZN5spark6VectorIN8particle10BleServiceENS_16DefaultAllocatorEE6appendES2_>:
inline bool spark::Vector<T, AllocatorT>::append(T value) {
   b755e:	b573      	push	{r0, r1, r4, r5, r6, lr}
   b7560:	4604      	mov	r4, r0
    return insert(size_, std::move(value));
   b7562:	6845      	ldr	r5, [r0, #4]
   b7564:	4668      	mov	r0, sp
   b7566:	f7ff fc00 	bl	b6d6a <_ZNSt12__shared_ptrIN8particle14BleServiceImplELN9__gnu_cxx12_Lock_policyE0EEC1ERKS4_>
    if (size_ + 1 > capacity_ && !realloc(size_ + 1)) {
   b756a:	e9d4 1301 	ldrd	r1, r3, [r4, #4]
   b756e:	4299      	cmp	r1, r3
   b7570:	da10      	bge.n	b7594 <_ZN5spark6VectorIN8particle10BleServiceENS_16DefaultAllocatorEE6appendES2_+0x36>
    T* const p = data_ + i;
   b7572:	6823      	ldr	r3, [r4, #0]
    move(p + 1, p, data_ + size_);
   b7574:	6862      	ldr	r2, [r4, #4]
    T* const p = data_ + i;
   b7576:	eb03 05c5 	add.w	r5, r3, r5, lsl #3
    move(p + 1, p, data_ + size_);
   b757a:	eb03 02c2 	add.w	r2, r3, r2, lsl #3
   b757e:	4629      	mov	r1, r5
   b7580:	f105 0008 	add.w	r0, r5, #8
   b7584:	f7ff ffa9 	bl	b74da <_ZN5spark6VectorIN8particle10BleServiceENS_16DefaultAllocatorEE4moveIS2_Li0EEEvPS2_S6_S6_>
    new(p) T(std::move(value));
   b7588:	b98d      	cbnz	r5, b75ae <_ZN5spark6VectorIN8particle10BleServiceENS_16DefaultAllocatorEE6appendES2_+0x50>
    ++size_;
   b758a:	6863      	ldr	r3, [r4, #4]
   b758c:	3301      	adds	r3, #1
   b758e:	6063      	str	r3, [r4, #4]
    return true;
   b7590:	2601      	movs	r6, #1
   b7592:	e006      	b.n	b75a2 <_ZN5spark6VectorIN8particle10BleServiceENS_16DefaultAllocatorEE6appendES2_+0x44>
    if (size_ + 1 > capacity_ && !realloc(size_ + 1)) {
   b7594:	3101      	adds	r1, #1
   b7596:	4620      	mov	r0, r4
   b7598:	f7ff ffc9 	bl	b752e <_ZN5spark6VectorIN8particle10BleServiceENS_16DefaultAllocatorEE7reallocIS2_Li0EEEbi>
   b759c:	4606      	mov	r6, r0
   b759e:	2800      	cmp	r0, #0
   b75a0:	d1e7      	bne.n	b7572 <_ZN5spark6VectorIN8particle10BleServiceENS_16DefaultAllocatorEE6appendES2_+0x14>
   b75a2:	a801      	add	r0, sp, #4
   b75a4:	f7fd fb70 	bl	b4c88 <_ZNSt14__shared_countILN9__gnu_cxx12_Lock_policyE0EED1Ev>
}
   b75a8:	4630      	mov	r0, r6
   b75aa:	b002      	add	sp, #8
   b75ac:	bd70      	pop	{r4, r5, r6, pc}
   b75ae:	4669      	mov	r1, sp
   b75b0:	4628      	mov	r0, r5
   b75b2:	f7ff fbda 	bl	b6d6a <_ZNSt12__shared_ptrIN8particle14BleServiceImplELN9__gnu_cxx12_Lock_policyE0EEC1ERKS4_>
   b75b6:	e7e8      	b.n	b758a <_ZN5spark6VectorIN8particle10BleServiceENS_16DefaultAllocatorEE6appendES2_+0x2c>

000b75b8 <_ZN5spark6VectorIN8particle17BleCharacteristicENS_16DefaultAllocatorEE4moveIS2_Li0EEEvPS2_S6_S6_>:
        if (dest > p && dest < end) {
   b75b8:	4288      	cmp	r0, r1
    static void move(T* dest, T* p, T* end) {
   b75ba:	b5f8      	push	{r3, r4, r5, r6, r7, lr}
   b75bc:	4604      	mov	r4, r0
   b75be:	460d      	mov	r5, r1
   b75c0:	4616      	mov	r6, r2
        if (dest > p && dest < end) {
   b75c2:	d914      	bls.n	b75ee <_ZN5spark6VectorIN8particle17BleCharacteristicENS_16DefaultAllocatorEE4moveIS2_Li0EEEvPS2_S6_S6_+0x36>
   b75c4:	4290      	cmp	r0, r2
   b75c6:	d213      	bcs.n	b75f0 <_ZN5spark6VectorIN8particle17BleCharacteristicENS_16DefaultAllocatorEE4moveIS2_Li0EEEvPS2_S6_S6_+0x38>
            --end;
   b75c8:	f1a2 0608 	sub.w	r6, r2, #8
            dest += end - p - 1;
   b75cc:	1a75      	subs	r5, r6, r1
   b75ce:	f1a1 0708 	sub.w	r7, r1, #8
   b75d2:	442c      	add	r4, r5
            for (; end != p; --end, --dest) {
   b75d4:	42b7      	cmp	r7, r6
   b75d6:	d018      	beq.n	b760a <_ZN5spark6VectorIN8particle17BleCharacteristicENS_16DefaultAllocatorEE4moveIS2_Li0EEEvPS2_S6_S6_+0x52>
                new(dest) T(std::move(*end));
   b75d8:	b11c      	cbz	r4, b75e2 <_ZN5spark6VectorIN8particle17BleCharacteristicENS_16DefaultAllocatorEE4moveIS2_Li0EEEvPS2_S6_S6_+0x2a>
   b75da:	4631      	mov	r1, r6
   b75dc:	4620      	mov	r0, r4
   b75de:	f7ff fbb6 	bl	b6d4e <_ZN8particle17BleCharacteristicC1ERKS0_>
   b75e2:	1d30      	adds	r0, r6, #4
   b75e4:	f7fd fb50 	bl	b4c88 <_ZNSt14__shared_countILN9__gnu_cxx12_Lock_policyE0EED1Ev>
            for (; end != p; --end, --dest) {
   b75e8:	3e08      	subs	r6, #8
   b75ea:	3c08      	subs	r4, #8
   b75ec:	e7f2      	b.n	b75d4 <_ZN5spark6VectorIN8particle17BleCharacteristicENS_16DefaultAllocatorEE4moveIS2_Li0EEEvPS2_S6_S6_+0x1c>
        } else if (dest != p) {
   b75ee:	d00c      	beq.n	b760a <_ZN5spark6VectorIN8particle17BleCharacteristicENS_16DefaultAllocatorEE4moveIS2_Li0EEEvPS2_S6_S6_+0x52>
            for (; p != end; ++p, ++dest) {
   b75f0:	42b5      	cmp	r5, r6
   b75f2:	d00a      	beq.n	b760a <_ZN5spark6VectorIN8particle17BleCharacteristicENS_16DefaultAllocatorEE4moveIS2_Li0EEEvPS2_S6_S6_+0x52>
                new(dest) T(std::move(*p));
   b75f4:	b11c      	cbz	r4, b75fe <_ZN5spark6VectorIN8particle17BleCharacteristicENS_16DefaultAllocatorEE4moveIS2_Li0EEEvPS2_S6_S6_+0x46>
   b75f6:	4629      	mov	r1, r5
   b75f8:	4620      	mov	r0, r4
   b75fa:	f7ff fba8 	bl	b6d4e <_ZN8particle17BleCharacteristicC1ERKS0_>
   b75fe:	1d28      	adds	r0, r5, #4
   b7600:	f7fd fb42 	bl	b4c88 <_ZNSt14__shared_countILN9__gnu_cxx12_Lock_policyE0EED1Ev>
            for (; p != end; ++p, ++dest) {
   b7604:	3508      	adds	r5, #8
   b7606:	3408      	adds	r4, #8
   b7608:	e7f2      	b.n	b75f0 <_ZN5spark6VectorIN8particle17BleCharacteristicENS_16DefaultAllocatorEE4moveIS2_Li0EEEvPS2_S6_S6_+0x38>
    }
   b760a:	bdf8      	pop	{r3, r4, r5, r6, r7, pc}

000b760c <_ZN5spark6VectorIN8particle17BleCharacteristicENS_16DefaultAllocatorEE7reallocIS2_Li0EEEbi>:
    bool realloc(int n) {
   b760c:	b570      	push	{r4, r5, r6, lr}
        if (n > 0) {
   b760e:	1e0e      	subs	r6, r1, #0
    bool realloc(int n) {
   b7610:	4605      	mov	r5, r0
        if (n > 0) {
   b7612:	dd11      	ble.n	b7638 <_ZN5spark6VectorIN8particle17BleCharacteristicENS_16DefaultAllocatorEE7reallocIS2_Li0EEEbi+0x2c>
    return ::malloc(size);
   b7614:	00f0      	lsls	r0, r6, #3
   b7616:	f7fe fa43 	bl	b5aa0 <malloc>
            if (!d) {
   b761a:	4604      	mov	r4, r0
   b761c:	b158      	cbz	r0, b7636 <_ZN5spark6VectorIN8particle17BleCharacteristicENS_16DefaultAllocatorEE7reallocIS2_Li0EEEbi+0x2a>
            move(d, data_, data_ + size_);
   b761e:	e9d5 1200 	ldrd	r1, r2, [r5]
   b7622:	eb01 02c2 	add.w	r2, r1, r2, lsl #3
   b7626:	f7ff ffc7 	bl	b75b8 <_ZN5spark6VectorIN8particle17BleCharacteristicENS_16DefaultAllocatorEE4moveIS2_Li0EEEvPS2_S6_S6_>
    ::free(ptr);
   b762a:	6828      	ldr	r0, [r5, #0]
   b762c:	f7fe fa40 	bl	b5ab0 <free>
        data_ = d;
   b7630:	602c      	str	r4, [r5, #0]
        capacity_ = n;
   b7632:	60ae      	str	r6, [r5, #8]
        return true;
   b7634:	2001      	movs	r0, #1
    }
   b7636:	bd70      	pop	{r4, r5, r6, pc}
        T* d = nullptr;
   b7638:	2400      	movs	r4, #0
   b763a:	e7f6      	b.n	b762a <_ZN5spark6VectorIN8particle17BleCharacteristicENS_16DefaultAllocatorEE7reallocIS2_Li0EEEbi+0x1e>

000b763c <_ZN5spark6VectorIN8particle17BleCharacteristicENS_16DefaultAllocatorEE6appendES2_>:
inline bool spark::Vector<T, AllocatorT>::append(T value) {
   b763c:	b573      	push	{r0, r1, r4, r5, r6, lr}
   b763e:	4604      	mov	r4, r0
    return insert(size_, std::move(value));
   b7640:	6845      	ldr	r5, [r0, #4]
   b7642:	4668      	mov	r0, sp
   b7644:	f7ff fb83 	bl	b6d4e <_ZN8particle17BleCharacteristicC1ERKS0_>
    if (size_ + 1 > capacity_ && !realloc(size_ + 1)) {
   b7648:	e9d4 1301 	ldrd	r1, r3, [r4, #4]
   b764c:	4299      	cmp	r1, r3
   b764e:	da10      	bge.n	b7672 <_ZN5spark6VectorIN8particle17BleCharacteristicENS_16DefaultAllocatorEE6appendES2_+0x36>
    T* const p = data_ + i;
   b7650:	6823      	ldr	r3, [r4, #0]
    move(p + 1, p, data_ + size_);
   b7652:	6862      	ldr	r2, [r4, #4]
    T* const p = data_ + i;
   b7654:	eb03 05c5 	add.w	r5, r3, r5, lsl #3
    move(p + 1, p, data_ + size_);
   b7658:	eb03 02c2 	add.w	r2, r3, r2, lsl #3
   b765c:	4629      	mov	r1, r5
   b765e:	f105 0008 	add.w	r0, r5, #8
   b7662:	f7ff ffa9 	bl	b75b8 <_ZN5spark6VectorIN8particle17BleCharacteristicENS_16DefaultAllocatorEE4moveIS2_Li0EEEvPS2_S6_S6_>
    new(p) T(std::move(value));
   b7666:	b98d      	cbnz	r5, b768c <_ZN5spark6VectorIN8particle17BleCharacteristicENS_16DefaultAllocatorEE6appendES2_+0x50>
    ++size_;
   b7668:	6863      	ldr	r3, [r4, #4]
   b766a:	3301      	adds	r3, #1
   b766c:	6063      	str	r3, [r4, #4]
    return true;
   b766e:	2601      	movs	r6, #1
   b7670:	e006      	b.n	b7680 <_ZN5spark6VectorIN8particle17BleCharacteristicENS_16DefaultAllocatorEE6appendES2_+0x44>
    if (size_ + 1 > capacity_ && !realloc(size_ + 1)) {
   b7672:	3101      	adds	r1, #1
   b7674:	4620      	mov	r0, r4
   b7676:	f7ff ffc9 	bl	b760c <_ZN5spark6VectorIN8particle17BleCharacteristicENS_16DefaultAllocatorEE7reallocIS2_Li0EEEbi>
   b767a:	4606      	mov	r6, r0
   b767c:	2800      	cmp	r0, #0
   b767e:	d1e7      	bne.n	b7650 <_ZN5spark6VectorIN8particle17BleCharacteristicENS_16DefaultAllocatorEE6appendES2_+0x14>
   b7680:	a801      	add	r0, sp, #4
   b7682:	f7fd fb01 	bl	b4c88 <_ZNSt14__shared_countILN9__gnu_cxx12_Lock_policyE0EED1Ev>
}
   b7686:	4630      	mov	r0, r6
   b7688:	b002      	add	sp, #8
   b768a:	bd70      	pop	{r4, r5, r6, pc}
    new(p) T(std::move(value));
   b768c:	4669      	mov	r1, sp
   b768e:	4628      	mov	r0, r5
   b7690:	f7ff fb5d 	bl	b6d4e <_ZN8particle17BleCharacteristicC1ERKS0_>
   b7694:	e7e8      	b.n	b7668 <_ZN5spark6VectorIN8particle17BleCharacteristicENS_16DefaultAllocatorEE6appendES2_+0x2c>
	...

000b7698 <_ZN8particle14BleLocalDevice17addCharacteristicERKNS_17BleCharacteristicE>:
        }
    }
    return BlePeerDevice();
}

BleCharacteristic BleLocalDevice::addCharacteristic(const BleCharacteristic& characteristic) {
   b7698:	e92d 4ff0 	stmdb	sp!, {r4, r5, r6, r7, r8, r9, sl, fp, lr}
   b769c:	4617      	mov	r7, r2
   b769e:	b0a1      	sub	sp, #132	; 0x84
   b76a0:	4680      	mov	r8, r0
    WiringBleLock lk;
   b76a2:	a80a      	add	r0, sp, #40	; 0x28
BleCharacteristic BleLocalDevice::addCharacteristic(const BleCharacteristic& characteristic) {
   b76a4:	460e      	mov	r6, r1
    WiringBleLock lk;
   b76a6:	f7fe fff3 	bl	b6690 <_ZN8particle3ble13WiringBleLockC1Ev>
      { return _M_ptr; }
   b76aa:	683c      	ldr	r4, [r7, #0]
    auto charImpl = characteristic.impl();
    if (charImpl->properties() == BleCharacteristicProperty::NONE) {
   b76ac:	7923      	ldrb	r3, [r4, #4]
   b76ae:	b953      	cbnz	r3, b76c6 <_ZN8particle14BleLocalDevice17addCharacteristicERKNS_17BleCharacteristicE+0x2e>
        return characteristic;
    }
    for (const auto& existChar : impl()->characteristics()) {
        if (*charImpl == *existChar.impl()) {
            LOG(ERROR, "Duplicated characteristic cannot be added.");
            return characteristic;
   b76b0:	4639      	mov	r1, r7
   b76b2:	4640      	mov	r0, r8
   b76b4:	f7ff fb4b 	bl	b6d4e <_ZN8particle17BleCharacteristicC1ERKS0_>
    WiringBleLock lk;
   b76b8:	a80a      	add	r0, sp, #40	; 0x28
   b76ba:	f7fe fff7 	bl	b66ac <_ZN8particle3ble13WiringBleLockD1Ev>
    LOG_DEBUG(TRACE, "Add new local characteristic.");
    if(!impl()->characteristics().append(characteristic)) {
        LOG(ERROR, "Failed to append local characteristic.");
    }
    return characteristic;
}
   b76be:	4640      	mov	r0, r8
   b76c0:	b021      	add	sp, #132	; 0x84
   b76c2:	e8bd 8ff0 	ldmia.w	sp!, {r4, r5, r6, r7, r8, r9, sl, fp, pc}
      pointer    _M_ptr() const { return std::get<0>(_M_t); }
   b76c6:	6833      	ldr	r3, [r6, #0]
    return data_ + size_;
   b76c8:	e9d3 5303 	ldrd	r5, r3, [r3, #12]
   b76cc:	eb05 03c3 	add.w	r3, r5, r3, lsl #3
   b76d0:	9303      	str	r3, [sp, #12]
                svcUuid_ == impl.svcUuid_ &&
   b76d2:	f104 0a28 	add.w	sl, r4, #40	; 0x28
        if (charUuid_ == impl.charUuid_ &&
   b76d6:	f104 0b14 	add.w	fp, r4, #20
    for (const auto& existChar : impl()->characteristics()) {
   b76da:	9b03      	ldr	r3, [sp, #12]
   b76dc:	429d      	cmp	r5, r3
   b76de:	d021      	beq.n	b7724 <_ZN8particle14BleLocalDevice17addCharacteristicERKNS_17BleCharacteristicE+0x8c>
   b76e0:	f8d5 9000 	ldr.w	r9, [r5]
        if (charUuid_ == impl.charUuid_ &&
   b76e4:	4658      	mov	r0, fp
   b76e6:	f109 0114 	add.w	r1, r9, #20
   b76ea:	f7ff f87e 	bl	b67ea <_ZNK8particle7BleUuideqERKS0_>
                isLocal_ == impl.isLocal_ &&
   b76ee:	b1b8      	cbz	r0, b7720 <_ZN8particle14BleLocalDevice17addCharacteristicERKNS_17BleCharacteristicE+0x88>
                svcUuid_ == impl.svcUuid_ &&
   b76f0:	f109 0128 	add.w	r1, r9, #40	; 0x28
   b76f4:	4650      	mov	r0, sl
   b76f6:	f7ff f878 	bl	b67ea <_ZNK8particle7BleUuideqERKS0_>
        if (charUuid_ == impl.charUuid_ &&
   b76fa:	b188      	cbz	r0, b7720 <_ZN8particle14BleLocalDevice17addCharacteristicERKNS_17BleCharacteristicE+0x88>
                isLocal_ == impl.isLocal_ &&
   b76fc:	6823      	ldr	r3, [r4, #0]
   b76fe:	f8d9 2000 	ldr.w	r2, [r9]
   b7702:	4053      	eors	r3, r2
   b7704:	f433 437f 	bics.w	r3, r3, #65280	; 0xff00
   b7708:	d10a      	bne.n	b7720 <_ZN8particle14BleLocalDevice17addCharacteristicERKNS_17BleCharacteristicE+0x88>
            LOG(ERROR, "Duplicated characteristic cannot be added.");
   b770a:	2220      	movs	r2, #32
   b770c:	e9cd 2315 	strd	r2, r3, [sp, #84]	; 0x54
   b7710:	4a5e      	ldr	r2, [pc, #376]	; (b788c <_ZN8particle14BleLocalDevice17addCharacteristicERKNS_17BleCharacteristicE+0x1f4>)
   b7712:	9200      	str	r2, [sp, #0]
   b7714:	aa15      	add	r2, sp, #84	; 0x54
   b7716:	495e      	ldr	r1, [pc, #376]	; (b7890 <_ZN8particle14BleLocalDevice17addCharacteristicERKNS_17BleCharacteristicE+0x1f8>)
   b7718:	2032      	movs	r0, #50	; 0x32
   b771a:	f7fe f8dd 	bl	b58d8 <log_message>
   b771e:	e7c7      	b.n	b76b0 <_ZN8particle14BleLocalDevice17addCharacteristicERKNS_17BleCharacteristicE+0x18>
    for (const auto& existChar : impl()->characteristics()) {
   b7720:	3508      	adds	r5, #8
   b7722:	e7da      	b.n	b76da <_ZN8particle14BleLocalDevice17addCharacteristicERKNS_17BleCharacteristicE+0x42>
    if (!charImpl->svcUUID().isValid()) {
   b7724:	4650      	mov	r0, sl
   b7726:	f7ff f831 	bl	b678c <_ZNK8particle7BleUuid7isValidEv>
   b772a:	b960      	cbnz	r0, b7746 <_ZN8particle14BleLocalDevice17addCharacteristicERKNS_17BleCharacteristicE+0xae>
    String toString(bool stripped = false) const;
    size_t toString(char* buf, size_t len, bool stripped = false) const;

    template<typename T>
    BleUuid& operator=(T uuid) {
        return *this = BleUuid(uuid);
   b772c:	4959      	ldr	r1, [pc, #356]	; (b7894 <_ZN8particle14BleLocalDevice17addCharacteristicERKNS_17BleCharacteristicE+0x1fc>)
   b772e:	2201      	movs	r2, #1
   b7730:	a815      	add	r0, sp, #84	; 0x54
   b7732:	ad15      	add	r5, sp, #84	; 0x54
   b7734:	f7ff f802 	bl	b673c <_ZN8particle7BleUuidC1EPKhNS_12BleUuidOrderE>
   b7738:	cd0f      	ldmia	r5!, {r0, r1, r2, r3}
   b773a:	46d4      	mov	ip, sl
   b773c:	e8ac 000f 	stmia.w	ip!, {r0, r1, r2, r3}
   b7740:	682b      	ldr	r3, [r5, #0]
   b7742:	f8cc 3000 	str.w	r3, [ip]
   b7746:	6833      	ldr	r3, [r6, #0]
   b7748:	e9d3 5300 	ldrd	r5, r3, [r3]
   b774c:	eb05 0bc3 	add.w	fp, r5, r3, lsl #3
    for (auto& svc : impl()->services()) {
   b7750:	455d      	cmp	r5, fp
   b7752:	46a9      	mov	r9, r5
        BleService svc(charImpl->svcUUID());
   b7754:	4651      	mov	r1, sl
    for (auto& svc : impl()->services()) {
   b7756:	d06e      	beq.n	b7836 <_ZN8particle14BleLocalDevice17addCharacteristicERKNS_17BleCharacteristicE+0x19e>
        if (svc.impl()->UUID() == charImpl->svcUUID()) {
   b7758:	f855 0b08 	ldr.w	r0, [r5], #8
   b775c:	f7ff f845 	bl	b67ea <_ZNK8particle7BleUuideqERKS0_>
   b7760:	2800      	cmp	r0, #0
   b7762:	d0f5      	beq.n	b7750 <_ZN8particle14BleLocalDevice17addCharacteristicERKNS_17BleCharacteristicE+0xb8>
        if (!charUuid_.isValid()) {
   b7764:	f104 0a14 	add.w	sl, r4, #20
   b7768:	4650      	mov	r0, sl
   b776a:	f7ff f80f 	bl	b678c <_ZNK8particle7BleUuid7isValidEv>
   b776e:	b988      	cbnz	r0, b7794 <_ZN8particle14BleLocalDevice17addCharacteristicERKNS_17BleCharacteristicE+0xfc>
            defaultUuidCharCount_++;
   b7770:	4b49      	ldr	r3, [pc, #292]	; (b7898 <_ZN8particle14BleLocalDevice17addCharacteristicERKNS_17BleCharacteristicE+0x200>)
            BleUuid newUuid(PARTICLE_DEFAULT_BLE_SVC_UUID, defaultUuidCharCount_);
   b7772:	4948      	ldr	r1, [pc, #288]	; (b7894 <_ZN8particle14BleLocalDevice17addCharacteristicERKNS_17BleCharacteristicE+0x1fc>)
            defaultUuidCharCount_++;
   b7774:	881a      	ldrh	r2, [r3, #0]
   b7776:	3201      	adds	r2, #1
   b7778:	b292      	uxth	r2, r2
   b777a:	801a      	strh	r2, [r3, #0]
            BleUuid newUuid(PARTICLE_DEFAULT_BLE_SVC_UUID, defaultUuidCharCount_);
   b777c:	a815      	add	r0, sp, #84	; 0x54
   b777e:	2301      	movs	r3, #1
            charUuid_ = newUuid;
   b7780:	ad15      	add	r5, sp, #84	; 0x54
            BleUuid newUuid(PARTICLE_DEFAULT_BLE_SVC_UUID, defaultUuidCharCount_);
   b7782:	f7fe fffa 	bl	b677a <_ZN8particle7BleUuidC1EPKhtNS_12BleUuidOrderE>
            charUuid_ = newUuid;
   b7786:	cd0f      	ldmia	r5!, {r0, r1, r2, r3}
   b7788:	46d4      	mov	ip, sl
   b778a:	e8ac 000f 	stmia.w	ip!, {r0, r1, r2, r3}
   b778e:	682b      	ldr	r3, [r5, #0]
   b7790:	f8cc 3000 	str.w	r3, [ip]
    charInit.version = BLE_API_VERSION;
   b7794:	4b41      	ldr	r3, [pc, #260]	; (b789c <_ZN8particle14BleLocalDevice17addCharacteristicERKNS_17BleCharacteristicE+0x204>)
   b7796:	9315      	str	r3, [sp, #84]	; 0x54
    hal_ble_char_init_t charInit = {};
   b7798:	2228      	movs	r2, #40	; 0x28
   b779a:	2100      	movs	r1, #0
   b779c:	a816      	add	r0, sp, #88	; 0x58
   b779e:	f001 ffe0 	bl	b9762 <memset>
    charInit.uuid = charImpl->charUUID().halUUID();
   b77a2:	4651      	mov	r1, sl
   b77a4:	a804      	add	r0, sp, #16
   b77a6:	f7ff f803 	bl	b67b0 <_ZN8particle7BleUuid7halUUIDEv>
   b77aa:	ab04      	add	r3, sp, #16
   b77ac:	aa18      	add	r2, sp, #96	; 0x60
   b77ae:	f10d 0c20 	add.w	ip, sp, #32
   b77b2:	6818      	ldr	r0, [r3, #0]
   b77b4:	6859      	ldr	r1, [r3, #4]
   b77b6:	4615      	mov	r5, r2
   b77b8:	c503      	stmia	r5!, {r0, r1}
   b77ba:	3308      	adds	r3, #8
   b77bc:	4563      	cmp	r3, ip
   b77be:	462a      	mov	r2, r5
   b77c0:	d1f7      	bne.n	b77b2 <_ZN8particle14BleLocalDevice17addCharacteristicERKNS_17BleCharacteristicE+0x11a>
   b77c2:	6818      	ldr	r0, [r3, #0]
   b77c4:	6028      	str	r0, [r5, #0]
    return value_;
   b77c6:	7923      	ldrb	r3, [r4, #4]
    charInit.properties = charImpl->properties().value();
   b77c8:	f88d 3058 	strb.w	r3, [sp, #88]	; 0x58
    charInit.service_handle = service->impl()->startHandle();
   b77cc:	f8d9 3000 	ldr.w	r3, [r9]
   b77d0:	8a9b      	ldrh	r3, [r3, #20]
   b77d2:	f8ad 3074 	strh.w	r3, [sp, #116]	; 0x74
    charInit.description = charImpl->description().c_str();
   b77d6:	6be3      	ldr	r3, [r4, #60]	; 0x3c
   b77d8:	9317      	str	r3, [sp, #92]	; 0x5c
    charInit.callback = charImpl->onBleCharEvents;
   b77da:	4b31      	ldr	r3, [pc, #196]	; (b78a0 <_ZN8particle14BleLocalDevice17addCharacteristicERKNS_17BleCharacteristicE+0x208>)
    if (hal_ble_gatt_server_add_characteristic(&charInit, &charImpl->attrHandles(), nullptr) != SYSTEM_ERROR_NONE) {
   b77dc:	2200      	movs	r2, #0
   b77de:	1da1      	adds	r1, r4, #6
   b77e0:	a815      	add	r0, sp, #84	; 0x54
    charInit.context = charImpl;
   b77e2:	e9cd 341e 	strd	r3, r4, [sp, #120]	; 0x78
    if (hal_ble_gatt_server_add_characteristic(&charInit, &charImpl->attrHandles(), nullptr) != SYSTEM_ERROR_NONE) {
   b77e6:	f7fd fee7 	bl	b55b8 <hal_ble_gatt_server_add_characteristic>
   b77ea:	2800      	cmp	r0, #0
   b77ec:	f47f af60 	bne.w	b76b0 <_ZN8particle14BleLocalDevice17addCharacteristicERKNS_17BleCharacteristicE+0x18>
        isLocal_ = local;
   b77f0:	2301      	movs	r3, #1
   b77f2:	7023      	strb	r3, [r4, #0]
        return characteristics_;
   b77f4:	6834      	ldr	r4, [r6, #0]
    if(!impl()->characteristics().append(characteristic)) {
   b77f6:	4639      	mov	r1, r7
        return characteristics_;
   b77f8:	340c      	adds	r4, #12
    if(!impl()->characteristics().append(characteristic)) {
   b77fa:	a80d      	add	r0, sp, #52	; 0x34
   b77fc:	f7ff faa7 	bl	b6d4e <_ZN8particle17BleCharacteristicC1ERKS0_>
   b7800:	4620      	mov	r0, r4
   b7802:	a90d      	add	r1, sp, #52	; 0x34
   b7804:	f7ff ff1a 	bl	b763c <_ZN5spark6VectorIN8particle17BleCharacteristicENS_16DefaultAllocatorEE6appendES2_>
   b7808:	4604      	mov	r4, r0
      ~__shared_ptr() = default;
   b780a:	a80e      	add	r0, sp, #56	; 0x38
   b780c:	f7fd fa3c 	bl	b4c88 <_ZNSt14__shared_countILN9__gnu_cxx12_Lock_policyE0EED1Ev>
   b7810:	2c00      	cmp	r4, #0
   b7812:	f47f af4d 	bne.w	b76b0 <_ZN8particle14BleLocalDevice17addCharacteristicERKNS_17BleCharacteristicE+0x18>
        LOG(ERROR, "Failed to append local characteristic.");
   b7816:	2320      	movs	r3, #32
   b7818:	e9cd 340d 	strd	r3, r4, [sp, #52]	; 0x34
   b781c:	4b21      	ldr	r3, [pc, #132]	; (b78a4 <_ZN8particle14BleLocalDevice17addCharacteristicERKNS_17BleCharacteristicE+0x20c>)
   b781e:	9300      	str	r3, [sp, #0]
   b7820:	aa0d      	add	r2, sp, #52	; 0x34
   b7822:	4623      	mov	r3, r4
   b7824:	e777      	b.n	b7716 <_ZN8particle14BleLocalDevice17addCharacteristicERKNS_17BleCharacteristicE+0x7e>
            return characteristic;
   b7826:	4639      	mov	r1, r7
   b7828:	4640      	mov	r0, r8
   b782a:	f7ff fa90 	bl	b6d4e <_ZN8particle17BleCharacteristicC1ERKS0_>
   b782e:	a80c      	add	r0, sp, #48	; 0x30
   b7830:	f7fd fa2a 	bl	b4c88 <_ZNSt14__shared_countILN9__gnu_cxx12_Lock_policyE0EED1Ev>
   b7834:	e740      	b.n	b76b8 <_ZN8particle14BleLocalDevice17addCharacteristicERKNS_17BleCharacteristicE+0x20>
        BleService svc(charImpl->svcUUID());
   b7836:	a80b      	add	r0, sp, #44	; 0x2c
   b7838:	f7ff f8fa 	bl	b6a30 <_ZN8particle10BleServiceC1ERKNS_7BleUuidE>
        hal_ble_uuid_t halUuid = charImpl->svcUUID().halUUID();
   b783c:	4651      	mov	r1, sl
   b783e:	a815      	add	r0, sp, #84	; 0x54
   b7840:	f7fe ffb6 	bl	b67b0 <_ZN8particle7BleUuid7halUUIDEv>
        if (hal_ble_gatt_server_add_service(BLE_SERVICE_TYPE_PRIMARY, &halUuid, &svc.impl()->startHandle(), nullptr) != SYSTEM_ERROR_NONE) {
   b7844:	9a0b      	ldr	r2, [sp, #44]	; 0x2c
   b7846:	2300      	movs	r3, #0
   b7848:	3214      	adds	r2, #20
   b784a:	a915      	add	r1, sp, #84	; 0x54
   b784c:	2001      	movs	r0, #1
   b784e:	f7fd fe8b 	bl	b5568 <hal_ble_gatt_server_add_service>
   b7852:	2800      	cmp	r0, #0
   b7854:	d1e7      	bne.n	b7826 <_ZN8particle14BleLocalDevice17addCharacteristicERKNS_17BleCharacteristicE+0x18e>
        return services_;
   b7856:	6835      	ldr	r5, [r6, #0]
   b7858:	a90b      	add	r1, sp, #44	; 0x2c
   b785a:	a80d      	add	r0, sp, #52	; 0x34
   b785c:	f7ff fa85 	bl	b6d6a <_ZNSt12__shared_ptrIN8particle14BleServiceImplELN9__gnu_cxx12_Lock_policyE0EEC1ERKS4_>
        if(!impl()->services().append(svc)) {
   b7860:	4628      	mov	r0, r5
   b7862:	a90d      	add	r1, sp, #52	; 0x34
   b7864:	f7ff fe7b 	bl	b755e <_ZN5spark6VectorIN8particle10BleServiceENS_16DefaultAllocatorEE6appendES2_>
   b7868:	4605      	mov	r5, r0
   b786a:	a80e      	add	r0, sp, #56	; 0x38
   b786c:	f7fd fa0c 	bl	b4c88 <_ZNSt14__shared_countILN9__gnu_cxx12_Lock_policyE0EED1Ev>
   b7870:	2d00      	cmp	r5, #0
   b7872:	d0d8      	beq.n	b7826 <_ZN8particle14BleLocalDevice17addCharacteristicERKNS_17BleCharacteristicE+0x18e>
   b7874:	6832      	ldr	r2, [r6, #0]
    return data_[size_ - 1];
   b7876:	6853      	ldr	r3, [r2, #4]
   b7878:	6812      	ldr	r2, [r2, #0]
   b787a:	f103 5300 	add.w	r3, r3, #536870912	; 0x20000000
   b787e:	3b01      	subs	r3, #1
   b7880:	a80c      	add	r0, sp, #48	; 0x30
   b7882:	eb02 09c3 	add.w	r9, r2, r3, lsl #3
   b7886:	f7fd f9ff 	bl	b4c88 <_ZNSt14__shared_countILN9__gnu_cxx12_Lock_policyE0EED1Ev>
   b788a:	e76b      	b.n	b7764 <_ZN8particle14BleLocalDevice17addCharacteristicERKNS_17BleCharacteristicE+0xcc>
   b788c:	000bbf9a 	.word	0x000bbf9a
   b7890:	000bbeb7 	.word	0x000bbeb7
   b7894:	000bc05e 	.word	0x000bc05e
   b7898:	2003e690 	.word	0x2003e690
   b789c:	002c0003 	.word	0x002c0003
   b78a0:	000b6bc9 	.word	0x000b6bc9
   b78a4:	000bbfc5 	.word	0x000bbfc5

000b78a8 <_GLOBAL__sub_I__ZN8particle3ble13WiringBleLock6mutex_E>:
    RecursiveMutex() : handle_(nullptr)
   b78a8:	4802      	ldr	r0, [pc, #8]	; (b78b4 <_GLOBAL__sub_I__ZN8particle3ble13WiringBleLock6mutex_E+0xc>)
   b78aa:	2300      	movs	r3, #0
   b78ac:	6003      	str	r3, [r0, #0]
        os_mutex_recursive_create(&handle_);
   b78ae:	f7fd bedb 	b.w	b5668 <os_mutex_recursive_create>
   b78b2:	bf00      	nop
   b78b4:	2003e694 	.word	0x2003e694

000b78b8 <_ZN5Print5writeEPKhj>:

// Public Methods //////////////////////////////////////////////////////////////

/* default implementation: may be overridden */
size_t Print::write(const uint8_t *buffer, size_t size)
{
   b78b8:	b5f8      	push	{r3, r4, r5, r6, r7, lr}
   b78ba:	4606      	mov	r6, r0
   b78bc:	460d      	mov	r5, r1
  size_t n = 0;
   b78be:	188f      	adds	r7, r1, r2
   b78c0:	2400      	movs	r4, #0
  while (size--) {
   b78c2:	42bd      	cmp	r5, r7
   b78c4:	d00c      	beq.n	b78e0 <_ZN5Print5writeEPKhj+0x28>
     int chunk = write(*buffer++);
   b78c6:	6833      	ldr	r3, [r6, #0]
   b78c8:	f815 1b01 	ldrb.w	r1, [r5], #1
   b78cc:	689b      	ldr	r3, [r3, #8]
   b78ce:	4630      	mov	r0, r6
   b78d0:	4798      	blx	r3
     if (chunk>=0)
   b78d2:	1e03      	subs	r3, r0, #0
   b78d4:	db01      	blt.n	b78da <_ZN5Print5writeEPKhj+0x22>
         n += chunk;
   b78d6:	441c      	add	r4, r3
  while (size--) {
   b78d8:	e7f3      	b.n	b78c2 <_ZN5Print5writeEPKhj+0xa>
     int chunk = write(*buffer++);
   b78da:	2c00      	cmp	r4, #0
   b78dc:	bf08      	it	eq
   b78de:	461c      	moveq	r4, r3
             n = chunk;
         break;
     }
  }
  return n;
}
   b78e0:	4620      	mov	r0, r4
   b78e2:	bdf8      	pop	{r3, r4, r5, r6, r7, pc}

000b78e4 <_ZN5Print5writeEPKc>:

    int getWriteError() { return write_error; }
    void clearWriteError() { setWriteError(0); }

    virtual size_t write(uint8_t) = 0;
    size_t write(const char *str) {
   b78e4:	b513      	push	{r0, r1, r4, lr}
   b78e6:	4604      	mov	r4, r0
      if (str == NULL) return 0;
      return write((const uint8_t *)str, strlen(str));
    }
   b78e8:	4608      	mov	r0, r1
      if (str == NULL) return 0;
   b78ea:	b159      	cbz	r1, b7904 <_ZN5Print5writeEPKc+0x20>
      return write((const uint8_t *)str, strlen(str));
   b78ec:	9101      	str	r1, [sp, #4]
   b78ee:	f001 ffae 	bl	b984e <strlen>
   b78f2:	6823      	ldr	r3, [r4, #0]
   b78f4:	9901      	ldr	r1, [sp, #4]
   b78f6:	68db      	ldr	r3, [r3, #12]
   b78f8:	4602      	mov	r2, r0
   b78fa:	4620      	mov	r0, r4
    }
   b78fc:	b002      	add	sp, #8
   b78fe:	e8bd 4010 	ldmia.w	sp!, {r4, lr}
      return write((const uint8_t *)str, strlen(str));
   b7902:	4718      	bx	r3
    }
   b7904:	b002      	add	sp, #8
   b7906:	bd10      	pop	{r4, pc}

000b7908 <_ZN5Print5printEc>:
  return write(str);
}

size_t Print::print(char c)
{
  return write(c);
   b7908:	6803      	ldr	r3, [r0, #0]
   b790a:	689b      	ldr	r3, [r3, #8]
   b790c:	4718      	bx	r3

000b790e <_ZN5Print7printlnEv>:
{
  return print(reinterpret_cast<const char*>(str));
}

size_t Print::println(void)
{
   b790e:	b538      	push	{r3, r4, r5, lr}
  size_t n = print('\r');
   b7910:	210d      	movs	r1, #13
{
   b7912:	4605      	mov	r5, r0
  size_t n = print('\r');
   b7914:	f7ff fff8 	bl	b7908 <_ZN5Print5printEc>
  n += print('\n');
   b7918:	210a      	movs	r1, #10
  size_t n = print('\r');
   b791a:	4604      	mov	r4, r0
  n += print('\n');
   b791c:	4628      	mov	r0, r5
   b791e:	f7ff fff3 	bl	b7908 <_ZN5Print5printEc>
  return n;
}
   b7922:	4420      	add	r0, r4
   b7924:	bd38      	pop	{r3, r4, r5, pc}

000b7926 <_ZN5Print7printlnEPKc>:

size_t Print::println(const char c[])
{
   b7926:	b538      	push	{r3, r4, r5, lr}
   b7928:	4605      	mov	r5, r0
  return write(str);
   b792a:	f7ff ffdb 	bl	b78e4 <_ZN5Print5writeEPKc>
   b792e:	4604      	mov	r4, r0
  size_t n = print(c);
  n += println();
   b7930:	4628      	mov	r0, r5
   b7932:	f7ff ffec 	bl	b790e <_ZN5Print7printlnEv>
  return n;
}
   b7936:	4420      	add	r0, r4
   b7938:	bd38      	pop	{r3, r4, r5, pc}

000b793a <_ZN5Print11printNumberEmh>:
  return println(reinterpret_cast<const char*>(str));
}

// Private Methods /////////////////////////////////////////////////////////////

size_t Print::printNumber(unsigned long n, uint8_t base) {
   b793a:	b530      	push	{r4, r5, lr}
   b793c:	b08b      	sub	sp, #44	; 0x2c
  char buf[8 * sizeof(n) + 1]; // Assumes 8-bit chars plus zero byte.
  char *str = &buf[sizeof(buf) - 1];

  *str = '\0';
   b793e:	2300      	movs	r3, #0

  // prevent crash if called with base == 1
  if (base < 2) base = 10;
   b7940:	2a01      	cmp	r2, #1
  *str = '\0';
   b7942:	f88d 3024 	strb.w	r3, [sp, #36]	; 0x24
  if (base < 2) base = 10;
   b7946:	bf98      	it	ls
   b7948:	220a      	movls	r2, #10
   b794a:	ac09      	add	r4, sp, #36	; 0x24

  do {
   decltype(n) m = n;
   n /= base;
   b794c:	460d      	mov	r5, r1
   b794e:	fbb1 f1f2 	udiv	r1, r1, r2
   char c = m - base * n;
   b7952:	fb01 5312 	mls	r3, r1, r2, r5
   b7956:	f003 03ff 	and.w	r3, r3, #255	; 0xff
   *--str = c < 10 ? c + '0' : c + 'A' - 10;
   b795a:	2b09      	cmp	r3, #9
   b795c:	bf94      	ite	ls
   b795e:	3330      	addls	r3, #48	; 0x30
   b7960:	3337      	addhi	r3, #55	; 0x37
   b7962:	b2db      	uxtb	r3, r3
  } while(n);
   b7964:	42aa      	cmp	r2, r5
   *--str = c < 10 ? c + '0' : c + 'A' - 10;
   b7966:	f804 3d01 	strb.w	r3, [r4, #-1]!
  } while(n);
   b796a:	d9ef      	bls.n	b794c <_ZN5Print11printNumberEmh+0x12>

  return write(str);
   b796c:	4621      	mov	r1, r4
   b796e:	f7ff ffb9 	bl	b78e4 <_ZN5Print5writeEPKc>
}
   b7972:	b00b      	add	sp, #44	; 0x2c
   b7974:	bd30      	pop	{r4, r5, pc}

000b7976 <_ZN5Print7vprintfEbPKcSt9__va_list>:

  return n;
}

size_t Print::vprintf(bool newline, const char* format, va_list args)
{
   b7976:	e92d 41f0 	stmdb	sp!, {r4, r5, r6, r7, r8, lr}
   b797a:	b086      	sub	sp, #24
   b797c:	af00      	add	r7, sp, #0
   b797e:	4605      	mov	r5, r0
   b7980:	460e      	mov	r6, r1
    const int bufsize = 20;
    char test[bufsize];
    va_list args2;
    va_copy(args2, args);
    size_t n = vsnprintf(test, bufsize, format, args);
   b7982:	1d38      	adds	r0, r7, #4
   b7984:	2114      	movs	r1, #20
{
   b7986:	4614      	mov	r4, r2
    va_copy(args2, args);
   b7988:	603b      	str	r3, [r7, #0]
    size_t n = vsnprintf(test, bufsize, format, args);
   b798a:	f7fe f8a9 	bl	b5ae0 <vsnprintf>

    if (n<bufsize)
   b798e:	2813      	cmp	r0, #19
   b7990:	d80e      	bhi.n	b79b0 <_ZN5Print7vprintfEbPKcSt9__va_list+0x3a>
  return write(str);
   b7992:	1d39      	adds	r1, r7, #4
   b7994:	4628      	mov	r0, r5
   b7996:	f7ff ffa5 	bl	b78e4 <_ZN5Print5writeEPKc>
   b799a:	4604      	mov	r4, r0
    {
        char bigger[n+1];
        n = vsnprintf(bigger, n+1, format, args2);
        n = print(bigger);
    }
    if (newline)
   b799c:	b11e      	cbz	r6, b79a6 <_ZN5Print7vprintfEbPKcSt9__va_list+0x30>
        n += println();
   b799e:	4628      	mov	r0, r5
   b79a0:	f7ff ffb5 	bl	b790e <_ZN5Print7printlnEv>
   b79a4:	4404      	add	r4, r0

    va_end(args2);
    return n;
}
   b79a6:	4620      	mov	r0, r4
   b79a8:	3718      	adds	r7, #24
   b79aa:	46bd      	mov	sp, r7
   b79ac:	e8bd 81f0 	ldmia.w	sp!, {r4, r5, r6, r7, r8, pc}
        char bigger[n+1];
   b79b0:	f100 0308 	add.w	r3, r0, #8
   b79b4:	f023 0307 	bic.w	r3, r3, #7
        n = print(bigger);
   b79b8:	46e8      	mov	r8, sp
        char bigger[n+1];
   b79ba:	ebad 0d03 	sub.w	sp, sp, r3
        n = vsnprintf(bigger, n+1, format, args2);
   b79be:	4622      	mov	r2, r4
   b79c0:	1c41      	adds	r1, r0, #1
   b79c2:	683b      	ldr	r3, [r7, #0]
   b79c4:	4668      	mov	r0, sp
   b79c6:	f7fe f88b 	bl	b5ae0 <vsnprintf>
  return write(str);
   b79ca:	4669      	mov	r1, sp
   b79cc:	4628      	mov	r0, r5
   b79ce:	f7ff ff89 	bl	b78e4 <_ZN5Print5writeEPKc>
   b79d2:	4604      	mov	r4, r0
   b79d4:	46c5      	mov	sp, r8
   b79d6:	e7e1      	b.n	b799c <_ZN5Print7vprintfEbPKcSt9__va_list+0x26>

000b79d8 <_GLOBAL__sub_I__ZN5spark3LogE>:
    // This handler doesn't support direct logging
}

// spark::Logger
inline spark::Logger::Logger(const char *name) :
        name_(name) {
   b79d8:	4b01      	ldr	r3, [pc, #4]	; (b79e0 <_GLOBAL__sub_I__ZN5spark3LogE+0x8>)
   b79da:	4a02      	ldr	r2, [pc, #8]	; (b79e4 <_GLOBAL__sub_I__ZN5spark3LogE+0xc>)
   b79dc:	601a      	str	r2, [r3, #0]
#if Wiring_LogConfig

// spark::
void spark::logProcessControlRequest(ctrl_request* req) {
    JSONRequestHandler::process(req);
}
   b79de:	4770      	bx	lr
   b79e0:	2003e69c 	.word	0x2003e69c
   b79e4:	000bc07e 	.word	0x000bc07e

000b79e8 <_ZL22Refresh_UnixTime_Cachex>:
	return calendar_time;
}

/* Refresh Unix/RTC time cache */
static void Refresh_UnixTime_Cache(time_t unix_time)
{
   b79e8:	e92d 41f0 	stmdb	sp!, {r4, r5, r6, r7, r8, lr}
    unix_time += time_zone_cache;
   b79ec:	4a15      	ldr	r2, [pc, #84]	; (b7a44 <_ZL22Refresh_UnixTime_Cachex+0x5c>)
    unix_time += dst_current_cache;
    if(unix_time != unix_time_cache)
   b79ee:	f8df 8060 	ldr.w	r8, [pc, #96]	; b7a50 <_ZL22Refresh_UnixTime_Cachex+0x68>
    unix_time += time_zone_cache;
   b79f2:	e9d2 6300 	ldrd	r6, r3, [r2]
   b79f6:	1980      	adds	r0, r0, r6
   b79f8:	eb43 0101 	adc.w	r1, r3, r1
    unix_time += dst_current_cache;
   b79fc:	4b12      	ldr	r3, [pc, #72]	; (b7a48 <_ZL22Refresh_UnixTime_Cachex+0x60>)
   b79fe:	e9d3 6700 	ldrd	r6, r7, [r3]
    if(unix_time != unix_time_cache)
   b7a02:	e9d8 2300 	ldrd	r2, r3, [r8]
    unix_time += dst_current_cache;
   b7a06:	1986      	adds	r6, r0, r6
   b7a08:	eb41 0707 	adc.w	r7, r1, r7
    if(unix_time != unix_time_cache)
   b7a0c:	42bb      	cmp	r3, r7
   b7a0e:	bf08      	it	eq
   b7a10:	42b2      	cmpeq	r2, r6
{
   b7a12:	b08c      	sub	sp, #48	; 0x30
    if(unix_time != unix_time_cache)
   b7a14:	d013      	beq.n	b7a3e <_ZL22Refresh_UnixTime_Cachex+0x56>
	localtime_r(&unix_time, &calendar_time);
   b7a16:	a903      	add	r1, sp, #12
   b7a18:	4668      	mov	r0, sp
   b7a1a:	e9cd 6700 	strd	r6, r7, [sp]
   b7a1e:	f7fe f88f 	bl	b5b40 <localtime_r>
	calendar_time.tm_year += 1900;
   b7a22:	9b08      	ldr	r3, [sp, #32]
    {
            calendar_time_cache = Convert_UnixTime_To_CalendarTime(unix_time);
   b7a24:	4d09      	ldr	r5, [pc, #36]	; (b7a4c <_ZL22Refresh_UnixTime_Cachex+0x64>)
	calendar_time.tm_year += 1900;
   b7a26:	f203 736c 	addw	r3, r3, #1900	; 0x76c
            calendar_time_cache = Convert_UnixTime_To_CalendarTime(unix_time);
   b7a2a:	ac03      	add	r4, sp, #12
	calendar_time.tm_year += 1900;
   b7a2c:	9308      	str	r3, [sp, #32]
            calendar_time_cache = Convert_UnixTime_To_CalendarTime(unix_time);
   b7a2e:	cc0f      	ldmia	r4!, {r0, r1, r2, r3}
   b7a30:	c50f      	stmia	r5!, {r0, r1, r2, r3}
   b7a32:	cc0f      	ldmia	r4!, {r0, r1, r2, r3}
   b7a34:	c50f      	stmia	r5!, {r0, r1, r2, r3}
            unix_time_cache = unix_time;
   b7a36:	e9c8 6700 	strd	r6, r7, [r8]
            calendar_time_cache = Convert_UnixTime_To_CalendarTime(unix_time);
   b7a3a:	6823      	ldr	r3, [r4, #0]
   b7a3c:	602b      	str	r3, [r5, #0]
    }
}
   b7a3e:	b00c      	add	sp, #48	; 0x30
   b7a40:	e8bd 81f0 	ldmia.w	sp!, {r4, r5, r6, r7, r8, pc}
   b7a44:	2003e6d0 	.word	0x2003e6d0
   b7a48:	2003e6c8 	.word	0x2003e6c8
   b7a4c:	2003e6a4 	.word	0x2003e6a4
   b7a50:	2003e6d8 	.word	0x2003e6d8

000b7a54 <_ZN10CloudClass12syncTimeDoneEv.isra.0>:
    bool syncTimePending(void)
    {
        return connected() && spark_sync_time_pending(nullptr);
    }

    bool syncTimeDone(void)
   b7a54:	b508      	push	{r3, lr}
    {
        return !spark_sync_time_pending(nullptr) || disconnected();
   b7a56:	2000      	movs	r0, #0
   b7a58:	f7fe f812 	bl	b5a80 <spark_sync_time_pending>
   b7a5c:	b128      	cbz	r0, b7a6a <_ZN10CloudClass12syncTimeDoneEv.isra.0+0x16>
    static void sleep(Spark_Sleep_TypeDef sleepMode, long seconds=0) __attribute__ ((deprecated("Please use System.sleep() instead.")))
    { SystemClass::sleep(sleepMode, seconds); }
    static void sleep(uint16_t wakeUpPin, InterruptMode edgeTriggerMode, long seconds=0) __attribute__ ((deprecated("Please use System.sleep() instead.")))
    { SystemClass::sleep(wakeUpPin, edgeTriggerMode, seconds); }

    static bool connected(void) { return spark_cloud_flag_connected(); }
   b7a5e:	f7fd fff7 	bl	b5a50 <spark_cloud_flag_connected>
        return !spark_sync_time_pending(nullptr) || disconnected();
   b7a62:	f080 0001 	eor.w	r0, r0, #1
   b7a66:	b2c0      	uxtb	r0, r0
    }
   b7a68:	bd08      	pop	{r3, pc}
        return !spark_sync_time_pending(nullptr) || disconnected();
   b7a6a:	2001      	movs	r0, #1
   b7a6c:	e7fc      	b.n	b7a68 <_ZN10CloudClass12syncTimeDoneEv.isra.0+0x14>
	...

000b7a70 <_ZN9TimeClass5monthEx>:
	return month(now());
}

/* the month for the given time */
int TimeClass::month(time_t t)
{
   b7a70:	b508      	push	{r3, lr}
	Refresh_UnixTime_Cache(t);
   b7a72:	f7ff ffb9 	bl	b79e8 <_ZL22Refresh_UnixTime_Cachex>
	return (calendar_time_cache.tm_mon + 1);//Arduino's month representation
   b7a76:	4b02      	ldr	r3, [pc, #8]	; (b7a80 <_ZN9TimeClass5monthEx+0x10>)
   b7a78:	6918      	ldr	r0, [r3, #16]
}
   b7a7a:	3001      	adds	r0, #1
   b7a7c:	bd08      	pop	{r3, pc}
   b7a7e:	bf00      	nop
   b7a80:	2003e6a4 	.word	0x2003e6a4

000b7a84 <_ZN9TimeClass4zoneEf>:
}

/* set the time zone (+/-) offset from GMT */
void TimeClass::zone(float GMT_Offset)
{
	if(GMT_Offset < -12 || GMT_Offset > 14)
   b7a84:	eefa 7a08 	vmov.f32	s15, #168	; 0xc1400000 -12.0
   b7a88:	eeb4 0ae7 	vcmpe.f32	s0, s15
   b7a8c:	eef1 fa10 	vmrs	APSR_nzcv, fpscr
{
   b7a90:	b508      	push	{r3, lr}
	if(GMT_Offset < -12 || GMT_Offset > 14)
   b7a92:	d411      	bmi.n	b7ab8 <_ZN9TimeClass4zoneEf+0x34>
   b7a94:	eef2 7a0c 	vmov.f32	s15, #44	; 0x41600000  14.0
   b7a98:	eeb4 0ae7 	vcmpe.f32	s0, s15
   b7a9c:	eef1 fa10 	vmrs	APSR_nzcv, fpscr
   b7aa0:	dc0a      	bgt.n	b7ab8 <_ZN9TimeClass4zoneEf+0x34>
	{
		return;
	}
	time_zone_cache = GMT_Offset * 3600;
   b7aa2:	eddf 7a06 	vldr	s15, [pc, #24]	; b7abc <_ZN9TimeClass4zoneEf+0x38>
   b7aa6:	ee60 7a27 	vmul.f32	s15, s0, s15
   b7aaa:	ee17 0a90 	vmov	r0, s15
   b7aae:	f001 fdc1 	bl	b9634 <__aeabi_f2lz>
   b7ab2:	4b03      	ldr	r3, [pc, #12]	; (b7ac0 <_ZN9TimeClass4zoneEf+0x3c>)
   b7ab4:	e9c3 0100 	strd	r0, r1, [r3]
}
   b7ab8:	bd08      	pop	{r3, pc}
   b7aba:	bf00      	nop
   b7abc:	45610000 	.word	0x45610000
   b7ac0:	2003e6d0 	.word	0x2003e6d0

000b7ac4 <_ZN9TimeClass7isValidEv>:
    strftime(buf, sizeof(buf), format_str, calendar_time);
    return String(buf);
}

bool TimeClass::isValid()
{
   b7ac4:	b510      	push	{r4, lr}
    bool rtcstate = hal_rtc_time_is_valid(nullptr);
   b7ac6:	2000      	movs	r0, #0
   b7ac8:	f7fd fd0c 	bl	b54e4 <hal_rtc_time_is_valid>
    if (rtcstate)
   b7acc:	4604      	mov	r4, r0
   b7ace:	b9a0      	cbnz	r0, b7afa <_ZN9TimeClass7isValidEv+0x36>
    }

    static System_Mode_TypeDef mode(void) {
        return system_mode();
   b7ad0:	f7fd ff0a 	bl	b58e8 <system_mode>
        return rtcstate;
    if (System.mode() == AUTOMATIC && system_thread_get_state(nullptr) == spark::feature::DISABLED)
   b7ad4:	2801      	cmp	r0, #1
   b7ad6:	d110      	bne.n	b7afa <_ZN9TimeClass7isValidEv+0x36>
   b7ad8:	4620      	mov	r0, r4
   b7ada:	f7fd ff35 	bl	b5948 <system_thread_get_state>
   b7ade:	b960      	cbnz	r0, b7afa <_ZN9TimeClass7isValidEv+0x36>
    {
        waitUntil(Particle.syncTimeDone);
   b7ae0:	f7ff ffb8 	bl	b7a54 <_ZN10CloudClass12syncTimeDoneEv.isra.0>

    static uint32_t freeMemory();

    template<typename Condition, typename While>
    static bool waitConditionWhile(Condition _condition, While _while) {
        while (_while() && !_condition()) {
   b7ae4:	b910      	cbnz	r0, b7aec <_ZN9TimeClass7isValidEv+0x28>
            spark_process();
   b7ae6:	f7fd ffab 	bl	b5a40 <spark_process>
        while (_while() && !_condition()) {
   b7aea:	e7f9      	b.n	b7ae0 <_ZN9TimeClass7isValidEv+0x1c>
   b7aec:	f7ff ffb2 	bl	b7a54 <_ZN10CloudClass12syncTimeDoneEv.isra.0>
        return hal_rtc_time_is_valid(nullptr);
    }
    return rtcstate;
}
   b7af0:	e8bd 4010 	ldmia.w	sp!, {r4, lr}
        return hal_rtc_time_is_valid(nullptr);
   b7af4:	2000      	movs	r0, #0
   b7af6:	f7fd bcf5 	b.w	b54e4 <hal_rtc_time_is_valid>
}
   b7afa:	4620      	mov	r0, r4
   b7afc:	bd10      	pop	{r4, pc}

000b7afe <_ZN9TimeClass3nowEv>:
{
   b7afe:	b51f      	push	{r0, r1, r2, r3, r4, lr}
    (void)isValid();
   b7b00:	f7ff ffe0 	bl	b7ac4 <_ZN9TimeClass7isValidEv>
    struct timeval tv = {};
   b7b04:	2210      	movs	r2, #16
   b7b06:	2100      	movs	r1, #0
   b7b08:	4668      	mov	r0, sp
   b7b0a:	f001 fe2a 	bl	b9762 <memset>
    hal_rtc_get_time(&tv, nullptr);
   b7b0e:	2100      	movs	r1, #0
   b7b10:	4668      	mov	r0, sp
   b7b12:	f7fd fcef 	bl	b54f4 <hal_rtc_get_time>
}
   b7b16:	9800      	ldr	r0, [sp, #0]
   b7b18:	b005      	add	sp, #20
   b7b1a:	f85d fb04 	ldr.w	pc, [sp], #4
	...

000b7b20 <_ZN9TimeClass4hourEv>:
{
   b7b20:	b508      	push	{r3, lr}
	return hour(now());
   b7b22:	f7ff ffec 	bl	b7afe <_ZN9TimeClass3nowEv>
	Refresh_UnixTime_Cache(t);
   b7b26:	17c1      	asrs	r1, r0, #31
   b7b28:	f7ff ff5e 	bl	b79e8 <_ZL22Refresh_UnixTime_Cachex>
}
   b7b2c:	4b01      	ldr	r3, [pc, #4]	; (b7b34 <_ZN9TimeClass4hourEv+0x14>)
   b7b2e:	6898      	ldr	r0, [r3, #8]
   b7b30:	bd08      	pop	{r3, pc}
   b7b32:	bf00      	nop
   b7b34:	2003e6a4 	.word	0x2003e6a4

000b7b38 <_ZN9TimeClass6minuteEv>:
{
   b7b38:	b508      	push	{r3, lr}
	return minute(now());
   b7b3a:	f7ff ffe0 	bl	b7afe <_ZN9TimeClass3nowEv>
	Refresh_UnixTime_Cache(t);
   b7b3e:	17c1      	asrs	r1, r0, #31
   b7b40:	f7ff ff52 	bl	b79e8 <_ZL22Refresh_UnixTime_Cachex>
}
   b7b44:	4b01      	ldr	r3, [pc, #4]	; (b7b4c <_ZN9TimeClass6minuteEv+0x14>)
   b7b46:	6858      	ldr	r0, [r3, #4]
   b7b48:	bd08      	pop	{r3, pc}
   b7b4a:	bf00      	nop
   b7b4c:	2003e6a4 	.word	0x2003e6a4

000b7b50 <_ZN9TimeClass6secondEv>:
{
   b7b50:	b508      	push	{r3, lr}
	return second(now());
   b7b52:	f7ff ffd4 	bl	b7afe <_ZN9TimeClass3nowEv>
	Refresh_UnixTime_Cache(t);
   b7b56:	17c1      	asrs	r1, r0, #31
   b7b58:	f7ff ff46 	bl	b79e8 <_ZL22Refresh_UnixTime_Cachex>
}
   b7b5c:	4b01      	ldr	r3, [pc, #4]	; (b7b64 <_ZN9TimeClass6secondEv+0x14>)
   b7b5e:	6818      	ldr	r0, [r3, #0]
   b7b60:	bd08      	pop	{r3, pc}
   b7b62:	bf00      	nop
   b7b64:	2003e6a4 	.word	0x2003e6a4

000b7b68 <_ZN9TimeClass3dayEv>:
{
   b7b68:	b508      	push	{r3, lr}
	return day(now());
   b7b6a:	f7ff ffc8 	bl	b7afe <_ZN9TimeClass3nowEv>
	Refresh_UnixTime_Cache(t);
   b7b6e:	17c1      	asrs	r1, r0, #31
   b7b70:	f7ff ff3a 	bl	b79e8 <_ZL22Refresh_UnixTime_Cachex>
}
   b7b74:	4b01      	ldr	r3, [pc, #4]	; (b7b7c <_ZN9TimeClass3dayEv+0x14>)
   b7b76:	68d8      	ldr	r0, [r3, #12]
   b7b78:	bd08      	pop	{r3, pc}
   b7b7a:	bf00      	nop
   b7b7c:	2003e6a4 	.word	0x2003e6a4

000b7b80 <_ZN9TimeClass5monthEv>:
{
   b7b80:	b508      	push	{r3, lr}
	return month(now());
   b7b82:	f7ff ffbc 	bl	b7afe <_ZN9TimeClass3nowEv>
}
   b7b86:	e8bd 4008 	ldmia.w	sp!, {r3, lr}
	return month(now());
   b7b8a:	17c1      	asrs	r1, r0, #31
   b7b8c:	f7ff bf70 	b.w	b7a70 <_ZN9TimeClass5monthEx>

000b7b90 <_ZN9TimeClass4yearEv>:
{
   b7b90:	b508      	push	{r3, lr}
	return year(now());
   b7b92:	f7ff ffb4 	bl	b7afe <_ZN9TimeClass3nowEv>
	Refresh_UnixTime_Cache(t);
   b7b96:	17c1      	asrs	r1, r0, #31
   b7b98:	f7ff ff26 	bl	b79e8 <_ZL22Refresh_UnixTime_Cachex>
}
   b7b9c:	4b01      	ldr	r3, [pc, #4]	; (b7ba4 <_ZN9TimeClass4yearEv+0x14>)
   b7b9e:	6958      	ldr	r0, [r3, #20]
   b7ba0:	bd08      	pop	{r3, pc}
   b7ba2:	bf00      	nop
   b7ba4:	2003e6a4 	.word	0x2003e6a4

000b7ba8 <_GLOBAL__sub_I_TIME_FORMAT_DEFAULT>:
const char* TimeClass::format_spec = TIME_FORMAT_DEFAULT;
   b7ba8:	4b02      	ldr	r3, [pc, #8]	; (b7bb4 <_GLOBAL__sub_I_TIME_FORMAT_DEFAULT+0xc>)
   b7baa:	681a      	ldr	r2, [r3, #0]
   b7bac:	4b02      	ldr	r3, [pc, #8]	; (b7bb8 <_GLOBAL__sub_I_TIME_FORMAT_DEFAULT+0x10>)
   b7bae:	601a      	str	r2, [r3, #0]
{
  return isValid();
}


TimeClass Time;
   b7bb0:	4770      	bx	lr
   b7bb2:	bf00      	nop
   b7bb4:	2003d980 	.word	0x2003d980
   b7bb8:	2003e6a0 	.word	0x2003e6a0

000b7bbc <delay>:
    return (value - fromStart) * (toEnd - toStart) / (fromEnd - fromStart) + toStart;
}

void delay(unsigned long ms)
{
    system_delay_ms(ms, false);
   b7bbc:	2100      	movs	r1, #0
   b7bbe:	f7fd bea3 	b.w	b5908 <system_delay_ms>
	...

000b7bc4 <_GLOBAL__sub_I_RGB>:
    _Function_base() : _M_manager(nullptr) { }
   b7bc4:	4b01      	ldr	r3, [pc, #4]	; (b7bcc <_GLOBAL__sub_I_RGB+0x8>)
   b7bc6:	2200      	movs	r2, #0
   b7bc8:	609a      	str	r2, [r3, #8]
{
    RGBClass* const d = static_cast<RGBClass*>(data);
    if (d->changeHandler_) {
        d->changeHandler_(r, g, b);
    }
}
   b7bca:	4770      	bx	lr
   b7bcc:	2003e6e0 	.word	0x2003e6e0

000b7bd0 <_ZZ21module_user_init_hookENUlP6_reentjmPvE_4_FUNES0_jmS1_>:

void module_user_init_hook()
{
#if HAL_PLATFORM_NEWLIB
    newlib_impure_ptr_callback([](struct _reent* r, size_t size, uint32_t version, void* ctx) -> void {
        _impure_ptr = r;
   b7bd0:	4b01      	ldr	r3, [pc, #4]	; (b7bd8 <_ZZ21module_user_init_hookENUlP6_reentjmPvE_4_FUNES0_jmS1_+0x8>)
   b7bd2:	6018      	str	r0, [r3, #0]
    }, nullptr);
   b7bd4:	4770      	bx	lr
   b7bd6:	bf00      	nop
   b7bd8:	2003d984 	.word	0x2003d984

000b7bdc <serialEventRun>:
{
   b7bdc:	b508      	push	{r3, lr}
    if (serialEvent && Serial.available()>0)
   b7bde:	4b0b      	ldr	r3, [pc, #44]	; (b7c0c <serialEventRun+0x30>)
   b7be0:	b143      	cbz	r3, b7bf4 <serialEventRun+0x18>
   b7be2:	f000 fc19 	bl	b8418 <_Z16_fetch_usbserialv>
   b7be6:	6803      	ldr	r3, [r0, #0]
   b7be8:	691b      	ldr	r3, [r3, #16]
   b7bea:	4798      	blx	r3
   b7bec:	2800      	cmp	r0, #0
   b7bee:	dd01      	ble.n	b7bf4 <serialEventRun+0x18>
        serialEvent();
   b7bf0:	f3af 8000 	nop.w
    if (serialEvent1 && Serial1.available()>0)
   b7bf4:	4b06      	ldr	r3, [pc, #24]	; (b7c10 <serialEventRun+0x34>)
   b7bf6:	b143      	cbz	r3, b7c0a <serialEventRun+0x2e>
   b7bf8:	f000 ff2a 	bl	b8a50 <_Z22__fetch_global_Serial1v>
   b7bfc:	6803      	ldr	r3, [r0, #0]
   b7bfe:	691b      	ldr	r3, [r3, #16]
   b7c00:	4798      	blx	r3
   b7c02:	2800      	cmp	r0, #0
   b7c04:	dd01      	ble.n	b7c0a <serialEventRun+0x2e>
        serialEvent1();
   b7c06:	f3af 8000 	nop.w
}
   b7c0a:	bd08      	pop	{r3, pc}
	...

000b7c14 <_post_loop>:
{
   b7c14:	b508      	push	{r3, lr}
	serialEventRun();
   b7c16:	f7ff ffe1 	bl	b7bdc <serialEventRun>
		return !thread || !thread->isRunning();
	}

	static inline system_tick_t current_time()
	{
		return HAL_Timer_Get_Milli_Seconds();
   b7c1a:	f7fd fc5b 	bl	b54d4 <HAL_Timer_Get_Milli_Seconds>
	/**
	 * Lifesign that the application is still working normally.
	 */
	static void checkin()
	{
		last_checkin = current_time();
   b7c1e:	4b01      	ldr	r3, [pc, #4]	; (b7c24 <_post_loop+0x10>)
   b7c20:	6018      	str	r0, [r3, #0]
}
   b7c22:	bd08      	pop	{r3, pc}
   b7c24:	2003e744 	.word	0x2003e744

000b7c28 <_Z33system_initialize_user_backup_ramv>:
    memcpy(&link_global_retained_start, &link_global_retained_initial_values, len);
   b7c28:	4805      	ldr	r0, [pc, #20]	; (b7c40 <_Z33system_initialize_user_backup_ramv+0x18>)
   b7c2a:	4a06      	ldr	r2, [pc, #24]	; (b7c44 <_Z33system_initialize_user_backup_ramv+0x1c>)
   b7c2c:	4906      	ldr	r1, [pc, #24]	; (b7c48 <_Z33system_initialize_user_backup_ramv+0x20>)
{
   b7c2e:	b508      	push	{r3, lr}
    memcpy(&link_global_retained_start, &link_global_retained_initial_values, len);
   b7c30:	1a12      	subs	r2, r2, r0
   b7c32:	f001 fd6e 	bl	b9712 <memcpy>
    __backup_sram_signature = signature;
   b7c36:	4b05      	ldr	r3, [pc, #20]	; (b7c4c <_Z33system_initialize_user_backup_ramv+0x24>)
   b7c38:	4a05      	ldr	r2, [pc, #20]	; (b7c50 <_Z33system_initialize_user_backup_ramv+0x28>)
   b7c3a:	601a      	str	r2, [r3, #0]
}
   b7c3c:	bd08      	pop	{r3, pc}
   b7c3e:	bf00      	nop
   b7c40:	2003f400 	.word	0x2003f400
   b7c44:	2003f404 	.word	0x2003f404
   b7c48:	000bc7e4 	.word	0x000bc7e4
   b7c4c:	2003f400 	.word	0x2003f400
   b7c50:	9a271c1e 	.word	0x9a271c1e

000b7c54 <_Z27ctrl_request_custom_handlerP12ctrl_request>:
void __attribute((weak)) ctrl_request_custom_handler(ctrl_request* req) {
   b7c54:	b507      	push	{r0, r1, r2, lr}
    system_ctrl_set_result(req, SYSTEM_ERROR_NOT_SUPPORTED, nullptr, nullptr, nullptr);
   b7c56:	2300      	movs	r3, #0
   b7c58:	9300      	str	r3, [sp, #0]
   b7c5a:	461a      	mov	r2, r3
   b7c5c:	f06f 0177 	mvn.w	r1, #119	; 0x77
   b7c60:	f7fd fe84 	bl	b596c <system_ctrl_set_result>
}
   b7c64:	b003      	add	sp, #12
   b7c66:	f85d fb04 	ldr.w	pc, [sp], #4
	...

000b7c6c <_ZL20ctrl_request_handlerP12ctrl_request>:
static void ctrl_request_handler(ctrl_request* req) {
   b7c6c:	b507      	push	{r0, r1, r2, lr}
    switch (req->type) {
   b7c6e:	8843      	ldrh	r3, [r0, #2]
   b7c70:	2b0a      	cmp	r3, #10
   b7c72:	d008      	beq.n	b7c86 <_ZL20ctrl_request_handlerP12ctrl_request+0x1a>
   b7c74:	2b50      	cmp	r3, #80	; 0x50
   b7c76:	d10b      	bne.n	b7c90 <_ZL20ctrl_request_handlerP12ctrl_request+0x24>
        if (log_process_ctrl_request_callback) {
   b7c78:	4b09      	ldr	r3, [pc, #36]	; (b7ca0 <_ZL20ctrl_request_handlerP12ctrl_request+0x34>)
   b7c7a:	681b      	ldr	r3, [r3, #0]
   b7c7c:	b14b      	cbz	r3, b7c92 <_ZL20ctrl_request_handlerP12ctrl_request+0x26>
}
   b7c7e:	b003      	add	sp, #12
   b7c80:	f85d eb04 	ldr.w	lr, [sp], #4
            log_process_ctrl_request_callback(req);
   b7c84:	4718      	bx	r3
        ctrl_request_custom_handler(req);
   b7c86:	f7ff ffe5 	bl	b7c54 <_Z27ctrl_request_custom_handlerP12ctrl_request>
}
   b7c8a:	b003      	add	sp, #12
   b7c8c:	f85d fb04 	ldr.w	pc, [sp], #4
        system_ctrl_set_result(req, SYSTEM_ERROR_NOT_SUPPORTED, nullptr, nullptr, nullptr);
   b7c90:	2300      	movs	r3, #0
   b7c92:	9300      	str	r3, [sp, #0]
   b7c94:	461a      	mov	r2, r3
   b7c96:	f06f 0177 	mvn.w	r1, #119	; 0x77
   b7c9a:	f7fd fe67 	bl	b596c <system_ctrl_set_result>
}
   b7c9e:	e7f4      	b.n	b7c8a <_ZL20ctrl_request_handlerP12ctrl_request+0x1e>
   b7ca0:	2003e6f4 	.word	0x2003e6f4

000b7ca4 <module_user_init_hook>:
{
   b7ca4:	b510      	push	{r4, lr}
    newlib_impure_ptr_callback([](struct _reent* r, size_t size, uint32_t version, void* ctx) -> void {
   b7ca6:	4812      	ldr	r0, [pc, #72]	; (b7cf0 <module_user_init_hook+0x4c>)
   b7ca8:	2100      	movs	r1, #0
   b7caa:	f7fd ff41 	bl	b5b30 <newlib_impure_ptr_callback>
#endif // HAL_PLATFORM_NEWLIB

#if HAL_PLATFORM_BACKUP_RAM
    backup_ram_was_valid_ = __backup_sram_signature == signature;
   b7cae:	4b11      	ldr	r3, [pc, #68]	; (b7cf4 <module_user_init_hook+0x50>)
   b7cb0:	681a      	ldr	r2, [r3, #0]
   b7cb2:	4b11      	ldr	r3, [pc, #68]	; (b7cf8 <module_user_init_hook+0x54>)
   b7cb4:	429a      	cmp	r2, r3
   b7cb6:	4b11      	ldr	r3, [pc, #68]	; (b7cfc <module_user_init_hook+0x58>)
   b7cb8:	bf0c      	ite	eq
   b7cba:	2201      	moveq	r2, #1
   b7cbc:	2200      	movne	r2, #0
   b7cbe:	701a      	strb	r2, [r3, #0]
    if (!backup_ram_was_valid_) {
   b7cc0:	d001      	beq.n	b7cc6 <module_user_init_hook+0x22>
        system_initialize_user_backup_ram();
   b7cc2:	f7ff ffb1 	bl	b7c28 <_Z33system_initialize_user_backup_ramv>
    }
#endif

#if HAL_PLATFORM_RNG
    // Initialize the default stdlib PRNG using hardware RNG as a seed
    const uint32_t seed = HAL_RNG_GetRandomNumber();
   b7cc6:	f7fd fbf5 	bl	b54b4 <HAL_RNG_GetRandomNumber>
   b7cca:	4604      	mov	r4, r0
    srand(seed);
   b7ccc:	f001 fd52 	bl	b9774 <srand>

    // If the user defines random_seed_from_cloud, call it with a seed value
    // generated by a hardware RNG as well.
    if (random_seed_from_cloud) {
   b7cd0:	4b0b      	ldr	r3, [pc, #44]	; (b7d00 <module_user_init_hook+0x5c>)
   b7cd2:	b113      	cbz	r3, b7cda <module_user_init_hook+0x36>
        random_seed_from_cloud(seed);
   b7cd4:	4620      	mov	r0, r4
   b7cd6:	f3af 8000 	nop.w
    }
#endif
    // Register the random_seed_from_cloud handler
    spark_set_random_seed_from_cloud_handler(&random_seed_from_cloud, nullptr);
   b7cda:	2100      	movs	r1, #0
   b7cdc:	4808      	ldr	r0, [pc, #32]	; (b7d00 <module_user_init_hook+0x5c>)
   b7cde:	f7fd fed7 	bl	b5a90 <spark_set_random_seed_from_cloud_handler>

    // Register application handler for the control requests
    system_ctrl_set_app_request_handler(ctrl_request_handler, nullptr);
}
   b7ce2:	e8bd 4010 	ldmia.w	sp!, {r4, lr}
    system_ctrl_set_app_request_handler(ctrl_request_handler, nullptr);
   b7ce6:	4807      	ldr	r0, [pc, #28]	; (b7d04 <module_user_init_hook+0x60>)
   b7ce8:	2100      	movs	r1, #0
   b7cea:	f7fd be35 	b.w	b5958 <system_ctrl_set_app_request_handler>
   b7cee:	bf00      	nop
   b7cf0:	000b7bd1 	.word	0x000b7bd1
   b7cf4:	2003f400 	.word	0x2003f400
   b7cf8:	9a271c1e 	.word	0x9a271c1e
   b7cfc:	2003e6f0 	.word	0x2003e6f0
   b7d00:	00000000 	.word	0x00000000
   b7d04:	000b7c6d 	.word	0x000b7c6d

000b7d08 <_ZNSt15_Sp_counted_ptrIPN8particle6detail10FutureImplIbNS1_13FutureContextEEELN9__gnu_cxx12_Lock_policyE0EED1Ev>:
    class _Sp_counted_ptr final : public _Sp_counted_base<_Lp>
   b7d08:	4770      	bx	lr

000b7d0a <_ZNSt15_Sp_counted_ptrIPN8particle6detail10FutureImplIbNS1_13FutureContextEEELN9__gnu_cxx12_Lock_policyE0EE14_M_get_deleterERKSt9type_info>:
      { return nullptr; }
   b7d0a:	2000      	movs	r0, #0
   b7d0c:	4770      	bx	lr

000b7d0e <_ZNSt15_Sp_counted_ptrIPN8particle6detail10FutureImplIbNS1_13FutureContextEEELN9__gnu_cxx12_Lock_policyE0EED0Ev>:
    class _Sp_counted_ptr final : public _Sp_counted_base<_Lp>
   b7d0e:	b510      	push	{r4, lr}
   b7d10:	2110      	movs	r1, #16
   b7d12:	4604      	mov	r4, r0
   b7d14:	f7fc f9c3 	bl	b409e <_ZdlPvj>
   b7d18:	4620      	mov	r0, r4
   b7d1a:	bd10      	pop	{r4, pc}

000b7d1c <_ZNSt15_Sp_counted_ptrIPN8particle6detail10FutureImplIbNS1_13FutureContextEEELN9__gnu_cxx12_Lock_policyE0EE10_M_destroyEv>:
      _M_destroy() noexcept
   b7d1c:	b508      	push	{r3, lr}
      { delete this; }
   b7d1e:	f7ff fff6 	bl	b7d0e <_ZNSt15_Sp_counted_ptrIPN8particle6detail10FutureImplIbNS1_13FutureContextEEELN9__gnu_cxx12_Lock_policyE0EED0Ev>
   b7d22:	bd08      	pop	{r3, pc}

000b7d24 <_ZN8particle5ErrorC1EOS0_>:

inline particle::Error::Error(const Error& error) :
        Error(error.type_, error.msg_) {
}

inline particle::Error::Error(Error&& error) :
   b7d24:	b530      	push	{r4, r5, lr}
        type_(type) {
   b7d26:	2200      	movs	r2, #0
   b7d28:	f64f 749c 	movw	r4, #65436	; 0xff9c
   b7d2c:	6002      	str	r2, [r0, #0]
   b7d2e:	8084      	strh	r4, [r0, #4]
      __a = _GLIBCXX_MOVE(__b);
   b7d30:	888d      	ldrh	r5, [r1, #4]
      __b = _GLIBCXX_MOVE(__tmp);
   b7d32:	808c      	strh	r4, [r1, #4]
      __a = _GLIBCXX_MOVE(__b);
   b7d34:	680c      	ldr	r4, [r1, #0]
   b7d36:	8085      	strh	r5, [r0, #4]
   b7d38:	6004      	str	r4, [r0, #0]
      __b = _GLIBCXX_MOVE(__tmp);
   b7d3a:	600a      	str	r2, [r1, #0]
        Error() {
    swap(*this, error);
}
   b7d3c:	bd30      	pop	{r4, r5, pc}

000b7d3e <_ZN8particle5ErrorD1Ev>:

inline particle::Error::~Error() {
   b7d3e:	b510      	push	{r4, lr}
   b7d40:	4604      	mov	r4, r0
    free((void*)msg_);
   b7d42:	6800      	ldr	r0, [r0, #0]
   b7d44:	f7fd feb4 	bl	b5ab0 <free>
}
   b7d48:	4620      	mov	r0, r4
   b7d4a:	bd10      	pop	{r4, pc}

000b7d4c <_ZNSt15_Sp_counted_ptrIPN8particle6detail10FutureImplIbNS1_13FutureContextEEELN9__gnu_cxx12_Lock_policyE0EE10_M_disposeEv>:
      _M_dispose() noexcept
   b7d4c:	b538      	push	{r3, r4, r5, lr}
      { delete _M_ptr; }
   b7d4e:	68c4      	ldr	r4, [r0, #12]
   b7d50:	b1f4      	cbz	r4, b7d90 <_ZNSt15_Sp_counted_ptrIPN8particle6detail10FutureImplIbNS1_13FutureContextEEELN9__gnu_cxx12_Lock_policyE0EE10_M_disposeEv+0x44>
      _Tp
      load(memory_order __m = memory_order_seq_cst) const noexcept
      {
	alignas(_Tp) unsigned char __buf[sizeof(_Tp)];
	_Tp* __ptr = reinterpret_cast<_Tp*>(__buf);
	__atomic_load(std::__addressof(_M_i), __ptr, int(__m));
   b7d52:	7823      	ldrb	r3, [r4, #0]
    ~FutureImpl() {
        // Call destructor of the appropriate unnamed enum's field
        const State s = this->state();
        if (s == State::SUCCEEDED) {
            result_.~ResultT();
        } else if (s == State::FAILED) {
   b7d54:	2b02      	cmp	r3, #2
   b7d56:	d103      	bne.n	b7d60 <_ZNSt15_Sp_counted_ptrIPN8particle6detail10FutureImplIbNS1_13FutureContextEEELN9__gnu_cxx12_Lock_policyE0EE10_M_disposeEv+0x14>
            error_.~Error();
   b7d58:	f104 000c 	add.w	r0, r4, #12
   b7d5c:	f7ff ffef 	bl	b7d3e <_ZN8particle5ErrorD1Ev>
      {
	memory_order __b = __m & __memory_order_mask;
	__glibcxx_assert(__b != memory_order_release);
	__glibcxx_assert(__b != memory_order_acq_rel);

	return __atomic_load_n(&_M_p, int(__m));
   b7d60:	6865      	ldr	r5, [r4, #4]
        delete onSuccess_.load(std::memory_order_relaxed);
   b7d62:	b135      	cbz	r5, b7d72 <_ZNSt15_Sp_counted_ptrIPN8particle6detail10FutureImplIbNS1_13FutureContextEEELN9__gnu_cxx12_Lock_policyE0EE10_M_disposeEv+0x26>
    class function<_Res(_ArgTypes...)>
   b7d64:	4628      	mov	r0, r5
   b7d66:	f7fc fb37 	bl	b43d8 <_ZNSt14_Function_baseD1Ev>
   b7d6a:	2110      	movs	r1, #16
   b7d6c:	4628      	mov	r0, r5
   b7d6e:	f7fc f996 	bl	b409e <_ZdlPvj>
   b7d72:	68a5      	ldr	r5, [r4, #8]
        delete onError_.load(std::memory_order_relaxed);
   b7d74:	b135      	cbz	r5, b7d84 <_ZNSt15_Sp_counted_ptrIPN8particle6detail10FutureImplIbNS1_13FutureContextEEELN9__gnu_cxx12_Lock_policyE0EE10_M_disposeEv+0x38>
   b7d76:	4628      	mov	r0, r5
   b7d78:	f7fc fb2e 	bl	b43d8 <_ZNSt14_Function_baseD1Ev>
   b7d7c:	2110      	movs	r1, #16
   b7d7e:	4628      	mov	r0, r5
   b7d80:	f7fc f98d 	bl	b409e <_ZdlPvj>
   b7d84:	4620      	mov	r0, r4
   b7d86:	2114      	movs	r1, #20
   b7d88:	e8bd 4038 	ldmia.w	sp!, {r3, r4, r5, lr}
   b7d8c:	f7fc b987 	b.w	b409e <_ZdlPvj>
   b7d90:	bd38      	pop	{r3, r4, r5, pc}

000b7d92 <_ZNSt12__shared_ptrIN8particle6detail10FutureImplIbNS1_13FutureContextEEELN9__gnu_cxx12_Lock_policyE0EEC1ERKS7_>:
      __shared_ptr(const __shared_ptr&) noexcept = default;
   b7d92:	680b      	ldr	r3, [r1, #0]
   b7d94:	6003      	str	r3, [r0, #0]
      : _M_pi(__r._M_pi)
   b7d96:	684b      	ldr	r3, [r1, #4]
   b7d98:	6043      	str	r3, [r0, #4]
	if (_M_pi != 0)
   b7d9a:	b113      	cbz	r3, b7da2 <_ZNSt12__shared_ptrIN8particle6detail10FutureImplIbNS1_13FutureContextEEELN9__gnu_cxx12_Lock_policyE0EEC1ERKS7_+0x10>
    { ++_M_use_count; }
   b7d9c:	685a      	ldr	r2, [r3, #4]
   b7d9e:	3201      	adds	r2, #1
   b7da0:	605a      	str	r2, [r3, #4]
      __shared_ptr(const __shared_ptr&) noexcept = default;
   b7da2:	4770      	bx	lr

000b7da4 <_ZN8particle11PromiseBaseIbNS_6detail13FutureContextEE11fromDataPtrEPv>:
        // TODO: Use custom reference counting object to avoid unnecessary memory allocation
        return new detail::FutureImplPtr<ResultT, ContextT>(p_);
    }

    // Unwraps promise from an object pointer created via dataPtr() method
    static Promise<ResultT, ContextT> fromDataPtr(void* data) {
   b7da4:	b537      	push	{r0, r1, r2, r4, r5, lr}
   b7da6:	4604      	mov	r4, r0
   b7da8:	4668      	mov	r0, sp
   b7daa:	460d      	mov	r5, r1
   b7dac:	f7ff fff1 	bl	b7d92 <_ZNSt12__shared_ptrIN8particle6detail10FutureImplIbNS1_13FutureContextEEELN9__gnu_cxx12_Lock_policyE0EEC1ERKS7_>
      : _M_ptr(__r._M_ptr), _M_refcount()
   b7db0:	9b00      	ldr	r3, [sp, #0]
	_Sp_counted_base<_Lp>* __tmp = __r._M_pi;
   b7db2:	9a01      	ldr	r2, [sp, #4]
      : _M_ptr(__r._M_ptr), _M_refcount()
   b7db4:	6023      	str	r3, [r4, #0]
	_M_pi = __tmp;
   b7db6:	6062      	str	r2, [r4, #4]
	__r._M_pi = _M_pi;
   b7db8:	2300      	movs	r3, #0
      ~__shared_ptr() = default;
   b7dba:	a801      	add	r0, sp, #4
	__r._M_pi = _M_pi;
   b7dbc:	9301      	str	r3, [sp, #4]
	__r._M_ptr = 0;
   b7dbe:	9300      	str	r3, [sp, #0]
      ~__shared_ptr() = default;
   b7dc0:	f7fc ff62 	bl	b4c88 <_ZNSt14__shared_countILN9__gnu_cxx12_Lock_policyE0EED1Ev>
        auto d = static_cast<detail::FutureImplPtr<ResultT, ContextT>*>(data);
        const Promise<ResultT, ContextT> p(*d);
        delete d;
   b7dc4:	b135      	cbz	r5, b7dd4 <_ZN8particle11PromiseBaseIbNS_6detail13FutureContextEE11fromDataPtrEPv+0x30>
   b7dc6:	1d28      	adds	r0, r5, #4
   b7dc8:	f7fc ff5e 	bl	b4c88 <_ZNSt14__shared_countILN9__gnu_cxx12_Lock_policyE0EED1Ev>
   b7dcc:	2108      	movs	r1, #8
   b7dce:	4628      	mov	r0, r5
   b7dd0:	f7fc f965 	bl	b409e <_ZdlPvj>
        return p;
    }
   b7dd4:	4620      	mov	r0, r4
   b7dd6:	b003      	add	sp, #12
   b7dd8:	bd30      	pop	{r4, r5, pc}

000b7dda <_ZNKSt8functionIFvRKN8particle5ErrorEEEclES3_>:
      if (_M_empty())
   b7dda:	6882      	ldr	r2, [r0, #8]
    function<_Res(_ArgTypes...)>::
   b7ddc:	b510      	push	{r4, lr}
      if (_M_empty())
   b7dde:	b90a      	cbnz	r2, b7de4 <_ZNKSt8functionIFvRKN8particle5ErrorEEEclES3_+0xa>
	__throw_bad_function_call();
   b7de0:	f000 fe9c 	bl	b8b1c <_ZSt25__throw_bad_function_callv>
    }
   b7de4:	e8bd 4010 	ldmia.w	sp!, {r4, lr}
      return _M_invoker(_M_functor, std::forward<_ArgTypes>(__args)...);
   b7de8:	68c3      	ldr	r3, [r0, #12]
   b7dea:	4718      	bx	r3

000b7dec <_ZNSt17_Function_handlerIFvvESt5_BindIFSt8functionIFvRKN8particle5ErrorEEES4_EEE9_M_invokeERKSt9_Any_data>:
      _M_invoke(const _Any_data& __functor, _ArgTypes&&... __args)
   b7dec:	b508      	push	{r3, lr}
	    return __source._M_access<_Functor*>();
   b7dee:	6800      	ldr	r0, [r0, #0]
   b7df0:	f100 0110 	add.w	r1, r0, #16
   b7df4:	f7ff fff1 	bl	b7dda <_ZNKSt8functionIFvRKN8particle5ErrorEEEclES3_>
      }
   b7df8:	bd08      	pop	{r3, pc}

000b7dfa <_ZNKSt8functionIFvRKbEEclES1_>:
      if (_M_empty())
   b7dfa:	6882      	ldr	r2, [r0, #8]
    function<_Res(_ArgTypes...)>::
   b7dfc:	b510      	push	{r4, lr}
      if (_M_empty())
   b7dfe:	b90a      	cbnz	r2, b7e04 <_ZNKSt8functionIFvRKbEEclES1_+0xa>
	__throw_bad_function_call();
   b7e00:	f000 fe8c 	bl	b8b1c <_ZSt25__throw_bad_function_callv>
    }
   b7e04:	e8bd 4010 	ldmia.w	sp!, {r4, lr}
      return _M_invoker(_M_functor, std::forward<_ArgTypes>(__args)...);
   b7e08:	68c3      	ldr	r3, [r0, #12]
   b7e0a:	4718      	bx	r3

000b7e0c <_ZNSt17_Function_handlerIFvvESt5_BindIFSt8functionIFvRKbEEbEEE9_M_invokeERKSt9_Any_data>:
      _M_invoke(const _Any_data& __functor, _ArgTypes&&... __args)
   b7e0c:	b508      	push	{r3, lr}
	    return __source._M_access<_Functor*>();
   b7e0e:	6800      	ldr	r0, [r0, #0]
   b7e10:	f100 0110 	add.w	r1, r0, #16
   b7e14:	f7ff fff1 	bl	b7dfa <_ZNKSt8functionIFvRKbEEclES1_>
      }
   b7e18:	bd08      	pop	{r3, pc}
	...

000b7e1c <_ZNSt14__shared_countILN9__gnu_cxx12_Lock_policyE0EEC1IPN8particle6detail10FutureImplIbNS5_13FutureContextEEEEET_>:
	__shared_count(_Ptr __p) : _M_pi(0)
   b7e1c:	b538      	push	{r3, r4, r5, lr}
   b7e1e:	2300      	movs	r3, #0
   b7e20:	4604      	mov	r4, r0
   b7e22:	6003      	str	r3, [r0, #0]
	      _M_pi = new _Sp_counted_ptr<_Ptr, _Lp>(__p);
   b7e24:	2010      	movs	r0, #16
	__shared_count(_Ptr __p) : _M_pi(0)
   b7e26:	460d      	mov	r5, r1
	      _M_pi = new _Sp_counted_ptr<_Ptr, _Lp>(__p);
   b7e28:	f7fc f935 	bl	b4096 <_Znwj>
   b7e2c:	b128      	cbz	r0, b7e3a <_ZNSt14__shared_countILN9__gnu_cxx12_Lock_policyE0EEC1IPN8particle6detail10FutureImplIbNS5_13FutureContextEEEEET_+0x1e>
      : _M_use_count(1), _M_weak_count(1) { }
   b7e2e:	2301      	movs	r3, #1
   b7e30:	e9c0 3301 	strd	r3, r3, [r0, #4]
      : _M_ptr(__p) { }
   b7e34:	4b02      	ldr	r3, [pc, #8]	; (b7e40 <_ZNSt14__shared_countILN9__gnu_cxx12_Lock_policyE0EEC1IPN8particle6detail10FutureImplIbNS5_13FutureContextEEEEET_+0x24>)
   b7e36:	6003      	str	r3, [r0, #0]
   b7e38:	60c5      	str	r5, [r0, #12]
	      _M_pi = new _Sp_counted_ptr<_Ptr, _Lp>(__p);
   b7e3a:	6020      	str	r0, [r4, #0]
	}
   b7e3c:	4620      	mov	r0, r4
   b7e3e:	bd38      	pop	{r3, r4, r5, pc}
   b7e40:	000bc0a8 	.word	0x000bc0a8

000b7e44 <_ZNSt8functionIFvRKN8particle5ErrorEEEC1ERKS5_>:
    function<_Res(_ArgTypes...)>::
   b7e44:	b538      	push	{r3, r4, r5, lr}
    _Function_base() : _M_manager(nullptr) { }
   b7e46:	2300      	movs	r3, #0
   b7e48:	6083      	str	r3, [r0, #8]
    bool _M_empty() const { return !_M_manager; }
   b7e4a:	688b      	ldr	r3, [r1, #8]
    function<_Res(_ArgTypes...)>::
   b7e4c:	4604      	mov	r4, r0
   b7e4e:	460d      	mov	r5, r1
      if (static_cast<bool>(__x))
   b7e50:	b12b      	cbz	r3, b7e5e <_ZNSt8functionIFvRKN8particle5ErrorEEEC1ERKS5_+0x1a>
	  __x._M_manager(_M_functor, __x._M_functor, __clone_functor);
   b7e52:	2202      	movs	r2, #2
   b7e54:	4798      	blx	r3
	  _M_invoker = __x._M_invoker;
   b7e56:	68eb      	ldr	r3, [r5, #12]
   b7e58:	60e3      	str	r3, [r4, #12]
	  _M_manager = __x._M_manager;
   b7e5a:	68ab      	ldr	r3, [r5, #8]
   b7e5c:	60a3      	str	r3, [r4, #8]
    }
   b7e5e:	4620      	mov	r0, r4
   b7e60:	bd38      	pop	{r3, r4, r5, pc}
	...

000b7e64 <_ZN8particle11PromiseBaseIbNS_6detail13FutureContextEE8setErrorENS_5ErrorE>:
    void setError(Error error) {
   b7e64:	b5f0      	push	{r4, r5, r6, r7, lr}
   b7e66:	b089      	sub	sp, #36	; 0x24
      { return _M_ptr; }
   b7e68:	6804      	ldr	r4, [r0, #0]
        p_->setError(std::move(error));
   b7e6a:	4668      	mov	r0, sp
   b7e6c:	f7ff ff5a 	bl	b7d24 <_ZN8particle5ErrorC1EOS0_>

      bool
      compare_exchange_strong(_Tp& __e, _Tp __i, memory_order __s,
			      memory_order __f) noexcept
      {
	return __atomic_compare_exchange(std::__addressof(_M_i),
   b7e70:	f04f 0302 	mov.w	r3, #2
   b7e74:	e8d4 2f4f 	ldrexb	r2, [r4]
   b7e78:	2a00      	cmp	r2, #0
   b7e7a:	d103      	bne.n	b7e84 <_ZN8particle11PromiseBaseIbNS_6detail13FutureContextEE8setErrorENS_5ErrorE+0x20>
   b7e7c:	e8c4 3f41 	strexb	r1, r3, [r4]
   b7e80:	2900      	cmp	r1, #0
   b7e82:	d1f7      	bne.n	b7e74 <_ZN8particle11PromiseBaseIbNS_6detail13FutureContextEE8setErrorENS_5ErrorE+0x10>
        if (this->changeState(State::FAILED)) {
   b7e84:	d125      	bne.n	b7ed2 <_ZN8particle11PromiseBaseIbNS_6detail13FutureContextEE8setErrorENS_5ErrorE+0x6e>
            new(&error_) Error(std::move(error));
   b7e86:	f104 050c 	add.w	r5, r4, #12
   b7e8a:	4669      	mov	r1, sp
   b7e8c:	4628      	mov	r0, r5
   b7e8e:	f7ff ff49 	bl	b7d24 <_ZN8particle5ErrorC1EOS0_>
	__atomic_store_n(&_M_i, __i, int(__m));
   b7e92:	f3bf 8f5b 	dmb	ish
   b7e96:	2301      	movs	r3, #1
   b7e98:	7063      	strb	r3, [r4, #1]

      _GLIBCXX_ALWAYS_INLINE __pointer_type
      exchange(__pointer_type __p,
	       memory_order __m = memory_order_seq_cst) noexcept
      {
	return __atomic_exchange_n(&_M_p, __p, int(__m));
   b7e9a:	2000      	movs	r0, #0
   b7e9c:	f104 0308 	add.w	r3, r4, #8
   b7ea0:	f3bf 8f5b 	dmb	ish
   b7ea4:	e853 6f00 	ldrex	r6, [r3]
   b7ea8:	e843 0200 	strex	r2, r0, [r3]
   b7eac:	2a00      	cmp	r2, #0
   b7eae:	d1f9      	bne.n	b7ea4 <_ZN8particle11PromiseBaseIbNS_6detail13FutureContextEE8setErrorENS_5ErrorE+0x40>
   b7eb0:	f3bf 8f5b 	dmb	ish
        if (callbackPtr) {
   b7eb4:	b16e      	cbz	r6, b7ed2 <_ZN8particle11PromiseBaseIbNS_6detail13FutureContextEE8setErrorENS_5ErrorE+0x6e>
        return (application_thread_current(nullptr) != 0);
   b7eb6:	f7fd fd37 	bl	b5928 <application_thread_current>
        if (ContextT::isApplicationThreadCurrent()) {
   b7eba:	b178      	cbz	r0, b7edc <_ZN8particle11PromiseBaseIbNS_6detail13FutureContextEE8setErrorENS_5ErrorE+0x78>
            callback(std::forward<ArgsT>(args)...); // Synchronous call
   b7ebc:	4629      	mov	r1, r5
   b7ebe:	4630      	mov	r0, r6
   b7ec0:	f7ff ff8b 	bl	b7dda <_ZNKSt8functionIFvRKN8particle5ErrorEEEclES3_>
    class function<_Res(_ArgTypes...)>
   b7ec4:	4630      	mov	r0, r6
   b7ec6:	f7fc fa87 	bl	b43d8 <_ZNSt14_Function_baseD1Ev>
            delete callbackPtr;
   b7eca:	2110      	movs	r1, #16
   b7ecc:	4630      	mov	r0, r6
   b7ece:	f7fc f8e6 	bl	b409e <_ZdlPvj>
        p_->setError(std::move(error));
   b7ed2:	4668      	mov	r0, sp
   b7ed4:	f7ff ff33 	bl	b7d3e <_ZN8particle5ErrorD1Ev>
    }
   b7ed8:	b009      	add	sp, #36	; 0x24
   b7eda:	bdf0      	pop	{r4, r5, r6, r7, pc}
   b7edc:	4631      	mov	r1, r6
   b7ede:	a802      	add	r0, sp, #8
   b7ee0:	f7ff ffb0 	bl	b7e44 <_ZNSt8functionIFvRKN8particle5ErrorEEEC1ERKS5_>
        Error(error.type_, error.msg_) {
   b7ee4:	68e0      	ldr	r0, [r4, #12]
   b7ee6:	f9b4 5010 	ldrsh.w	r5, [r4, #16]
        msg_(msg ? (const char*)strdup(msg) : nullptr),
   b7eea:	b108      	cbz	r0, b7ef0 <_ZN8particle11PromiseBaseIbNS_6detail13FutureContextEE8setErrorENS_5ErrorE+0x8c>
   b7eec:	f001 fc92 	bl	b9814 <strdup>
        type_(type) {
   b7ef0:	9006      	str	r0, [sp, #24]
            auto callbackPtr = new std::function<void()>(std::bind(callback, std::forward<ArgsT>(args)...));
   b7ef2:	2010      	movs	r0, #16
   b7ef4:	f8ad 501c 	strh.w	r5, [sp, #28]
   b7ef8:	f7fc f8cd 	bl	b4096 <_Znwj>
   b7efc:	4605      	mov	r5, r0
   b7efe:	b1e8      	cbz	r0, b7f3c <_ZN8particle11PromiseBaseIbNS_6detail13FutureContextEE8setErrorENS_5ErrorE+0xd8>
    _Function_base() : _M_manager(nullptr) { }
   b7f00:	2700      	movs	r7, #0
   b7f02:	6087      	str	r7, [r0, #8]
	{ __functor._M_access<_Functor*>() = new _Functor(std::move(__f)); }
   b7f04:	2018      	movs	r0, #24
   b7f06:	f7fc f8c6 	bl	b4096 <_Znwj>
   b7f0a:	4604      	mov	r4, r0
   b7f0c:	b188      	cbz	r0, b7f32 <_ZN8particle11PromiseBaseIbNS_6detail13FutureContextEE8setErrorENS_5ErrorE+0xce>
	std::swap(_M_functor, __x._M_functor);
   b7f0e:	4601      	mov	r1, r0
    _Function_base() : _M_manager(nullptr) { }
   b7f10:	6087      	str	r7, [r0, #8]
	std::swap(_M_functor, __x._M_functor);
   b7f12:	a802      	add	r0, sp, #8
   b7f14:	f7ff fa1a 	bl	b734c <_ZSt4swapISt9_Any_dataENSt9enable_ifIXsrSt6__and_IJSt6__not_ISt15__is_tuple_likeIT_EESt21is_move_constructibleIS5_ESt18is_move_assignableIS5_EEE5valueEvE4typeERS5_SF_>
      _Tp __tmp = _GLIBCXX_MOVE(__a);
   b7f18:	9b04      	ldr	r3, [sp, #16]
      __a = _GLIBCXX_MOVE(__b);
   b7f1a:	68a2      	ldr	r2, [r4, #8]
      __b = _GLIBCXX_MOVE(__tmp);
   b7f1c:	60a3      	str	r3, [r4, #8]
      _Tp __tmp = _GLIBCXX_MOVE(__a);
   b7f1e:	9b05      	ldr	r3, [sp, #20]
      __a = _GLIBCXX_MOVE(__b);
   b7f20:	9204      	str	r2, [sp, #16]
   b7f22:	a906      	add	r1, sp, #24
   b7f24:	68e2      	ldr	r2, [r4, #12]
      __b = _GLIBCXX_MOVE(__tmp);
   b7f26:	60e3      	str	r3, [r4, #12]
   b7f28:	f104 0010 	add.w	r0, r4, #16
      __a = _GLIBCXX_MOVE(__b);
   b7f2c:	9205      	str	r2, [sp, #20]
   b7f2e:	f7ff fef9 	bl	b7d24 <_ZN8particle5ErrorC1EOS0_>
	    _M_invoker = &_My_handler::_M_invoke;
   b7f32:	4b08      	ldr	r3, [pc, #32]	; (b7f54 <_ZN8particle11PromiseBaseIbNS_6detail13FutureContextEE8setErrorENS_5ErrorE+0xf0>)
   b7f34:	60eb      	str	r3, [r5, #12]
	    _M_manager = &_My_handler::_M_manager;
   b7f36:	4b08      	ldr	r3, [pc, #32]	; (b7f58 <_ZN8particle11PromiseBaseIbNS_6detail13FutureContextEE8setErrorENS_5ErrorE+0xf4>)
	{ __functor._M_access<_Functor*>() = new _Functor(std::move(__f)); }
   b7f38:	602c      	str	r4, [r5, #0]
	    _M_manager = &_My_handler::_M_manager;
   b7f3a:	60ab      	str	r3, [r5, #8]
    struct _Head_base<_Idx, _Head, false>
   b7f3c:	a806      	add	r0, sp, #24
   b7f3e:	f7ff fefe 	bl	b7d3e <_ZN8particle5ErrorD1Ev>
    class function<_Res(_ArgTypes...)>
   b7f42:	a802      	add	r0, sp, #8
   b7f44:	f7fc fa48 	bl	b43d8 <_ZNSt14_Function_baseD1Ev>
        return (application_thread_invoke(callback, data, nullptr) == 0);
   b7f48:	2200      	movs	r2, #0
   b7f4a:	4629      	mov	r1, r5
   b7f4c:	4803      	ldr	r0, [pc, #12]	; (b7f5c <_ZN8particle11PromiseBaseIbNS_6detail13FutureContextEE8setErrorENS_5ErrorE+0xf8>)
   b7f4e:	f7fd fcf3 	bl	b5938 <application_thread_invoke>
   b7f52:	e7b7      	b.n	b7ec4 <_ZN8particle11PromiseBaseIbNS_6detail13FutureContextEE8setErrorENS_5ErrorE+0x60>
   b7f54:	000b7ded 	.word	0x000b7ded
   b7f58:	000b8071 	.word	0x000b8071
   b7f5c:	000b8561 	.word	0x000b8561

000b7f60 <_ZN10CloudClass13publish_eventEPKcS1_iN8particle5FlagsI15PublishFlagTypehEE>:
    desc.data = (void*)data;
    desc.funcKey = funcKey;
    return spark_function(NULL, (user_function_int_str_t*)&desc, NULL);
}

Future<bool> CloudClass::publish_event(const char *eventName, const char *eventData, int ttl, PublishFlags flags) {
   b7f60:	e92d 4ff0 	stmdb	sp!, {r4, r5, r6, r7, r8, r9, sl, fp, lr}
   b7f64:	b08b      	sub	sp, #44	; 0x2c
   b7f66:	4605      	mov	r5, r0
   b7f68:	f89d a050 	ldrb.w	sl, [sp, #80]	; 0x50
   b7f6c:	460f      	mov	r7, r1
   b7f6e:	4690      	mov	r8, r2
   b7f70:	4699      	mov	r9, r3
    static bool connected(void) { return spark_cloud_flag_connected(); }
   b7f72:	f7fd fd6d 	bl	b5a50 <spark_cloud_flag_connected>
   b7f76:	ae07      	add	r6, sp, #28
    if (!connected()) {
   b7f78:	4683      	mov	fp, r0
   b7f7a:	bb38      	cbnz	r0, b7fcc <_ZN10CloudClass13publish_eventEPKcS1_iN8particle5FlagsI15PublishFlagTypehEE+0x6c>
        type_(type) {
   b7f7c:	f64f 732e 	movw	r3, #65326	; 0xff2e
   b7f80:	9005      	str	r0, [sp, #20]
    typedef typename detail::FutureImpl<ResultT, ContextT>::OnSuccessCallback OnSuccessCallback;
    typedef typename detail::FutureImpl<ResultT, ContextT>::OnErrorCallback OnErrorCallback;

    // Construct failed future
    explicit FutureBase(Error error) :
            p_(new detail::FutureImpl<ResultT, ContextT>(std::move(error))) {
   b7f82:	a905      	add	r1, sp, #20
   b7f84:	4630      	mov	r0, r6
   b7f86:	f8ad 3018 	strh.w	r3, [sp, #24]
   b7f8a:	f7ff fecb 	bl	b7d24 <_ZN8particle5ErrorC1EOS0_>
   b7f8e:	2014      	movs	r0, #20
   b7f90:	f7fc f881 	bl	b4096 <_Znwj>
   b7f94:	4604      	mov	r4, r0
   b7f96:	b148      	cbz	r0, b7fac <_ZN10CloudClass13publish_eventEPKcS1_iN8particle5FlagsI15PublishFlagTypehEE+0x4c>
      constexpr atomic(_Tp __i) noexcept : _M_i(__i) { }
   b7f98:	2302      	movs	r3, #2
   b7f9a:	7003      	strb	r3, [r0, #0]
      constexpr __atomic_base(__int_type __i) noexcept : _M_i (__i) { }
   b7f9c:	2301      	movs	r3, #1
      constexpr __atomic_base(__pointer_type __p) noexcept : _M_p (__p) { }
   b7f9e:	e9c0 bb01 	strd	fp, fp, [r0, #4]
      constexpr __atomic_base(__int_type __i) noexcept : _M_i (__i) { }
   b7fa2:	7043      	strb	r3, [r0, #1]
            error_(std::move(error)) {
   b7fa4:	4631      	mov	r1, r6
   b7fa6:	300c      	adds	r0, #12
   b7fa8:	f7ff febc 	bl	b7d24 <_ZN8particle5ErrorC1EOS0_>
	: _M_ptr(__p), _M_refcount(__p, typename is_array<_Tp>::type())
   b7fac:	4628      	mov	r0, r5
	: __shared_count(__p)
   b7fae:	4621      	mov	r1, r4
	: _M_ptr(__p), _M_refcount(__p, typename is_array<_Tp>::type())
   b7fb0:	f840 4b04 	str.w	r4, [r0], #4
	: __shared_count(__p)
   b7fb4:	f7ff ff32 	bl	b7e1c <_ZNSt14__shared_countILN9__gnu_cxx12_Lock_policyE0EEC1IPN8particle6detail10FutureImplIbNS5_13FutureContextEEEEET_>
            p_(new detail::FutureImpl<ResultT, ContextT>(std::move(error))) {
   b7fb8:	4630      	mov	r0, r6
   b7fba:	f7ff fec0 	bl	b7d3e <_ZN8particle5ErrorD1Ev>
    }

    explicit FutureBase(Error::Type error) :
            FutureBase(Error(error)) {
   b7fbe:	a805      	add	r0, sp, #20
   b7fc0:	f7ff febd 	bl	b7d3e <_ZN8particle5ErrorD1Ev>
        p.setError(Error::UNKNOWN);
        p.fromDataPtr(d.handler_data); // Free wrapper object
    }

    return p.future();
}
   b7fc4:	4628      	mov	r0, r5
   b7fc6:	b00b      	add	sp, #44	; 0x2c
   b7fc8:	e8bd 8ff0 	ldmia.w	sp!, {r4, r5, r6, r7, r8, r9, sl, fp, pc}
    d.size = sizeof(spark_send_event_data);
   b7fcc:	230c      	movs	r3, #12
    spark_send_event_data d = {};
   b7fce:	2400      	movs	r4, #0
            p_(new detail::FutureImpl<ResultT, ContextT>(State::RUNNING)) {
   b7fd0:	2014      	movs	r0, #20
   b7fd2:	e9cd 4408 	strd	r4, r4, [sp, #32]
    d.size = sizeof(spark_send_event_data);
   b7fd6:	9307      	str	r3, [sp, #28]
   b7fd8:	f7fc f85d 	bl	b4096 <_Znwj>
   b7fdc:	4601      	mov	r1, r0
   b7fde:	b118      	cbz	r0, b7fe8 <_ZN10CloudClass13publish_eventEPKcS1_iN8particle5FlagsI15PublishFlagTypehEE+0x88>
      constexpr __atomic_base(__pointer_type __p) noexcept : _M_p (__p) { }
   b7fe0:	e9c0 4401 	strd	r4, r4, [r0, #4]
   b7fe4:	7004      	strb	r4, [r0, #0]
      constexpr __atomic_base(__int_type __i) noexcept : _M_i (__i) { }
   b7fe6:	7044      	strb	r4, [r0, #1]
   b7fe8:	a804      	add	r0, sp, #16
	: _M_ptr(__p), _M_refcount(__p, typename is_array<_Tp>::type())
   b7fea:	9103      	str	r1, [sp, #12]
	: __shared_count(__p)
   b7fec:	f7ff ff16 	bl	b7e1c <_ZNSt14__shared_countILN9__gnu_cxx12_Lock_policyE0EEC1IPN8particle6detail10FutureImplIbNS5_13FutureContextEEEEET_>
    d.handler_callback = publishCompletionCallback;
   b7ff0:	4b1e      	ldr	r3, [pc, #120]	; (b806c <_ZN10CloudClass13publish_eventEPKcS1_iN8particle5FlagsI15PublishFlagTypehEE+0x10c>)
   b7ff2:	9308      	str	r3, [sp, #32]
        return new detail::FutureImplPtr<ResultT, ContextT>(p_);
   b7ff4:	2008      	movs	r0, #8
   b7ff6:	f7fc f84e 	bl	b4096 <_Znwj>
   b7ffa:	4604      	mov	r4, r0
   b7ffc:	b110      	cbz	r0, b8004 <_ZN10CloudClass13publish_eventEPKcS1_iN8particle5FlagsI15PublishFlagTypehEE+0xa4>
   b7ffe:	a903      	add	r1, sp, #12
   b8000:	f7ff fec7 	bl	b7d92 <_ZNSt12__shared_ptrIN8particle6detail10FutureImplIbNS1_13FutureContextEEELN9__gnu_cxx12_Lock_policyE0EEC1ERKS7_>
    if (!spark_send_event(eventName, eventData, ttl, flags.value(), &d) && !p.isDone()) {
   b8004:	9600      	str	r6, [sp, #0]
   b8006:	fa5f f38a 	uxtb.w	r3, sl
   b800a:	464a      	mov	r2, r9
   b800c:	4641      	mov	r1, r8
   b800e:	4638      	mov	r0, r7
    d.handler_data = p.dataPtr();
   b8010:	9409      	str	r4, [sp, #36]	; 0x24
    if (!spark_send_event(eventName, eventData, ttl, flags.value(), &d) && !p.isDone()) {
   b8012:	f7fd fd25 	bl	b5a60 <spark_send_event>
   b8016:	b9b8      	cbnz	r0, b8048 <_ZN10CloudClass13publish_eventEPKcS1_iN8particle5FlagsI15PublishFlagTypehEE+0xe8>
	return __atomic_load_n(&_M_i, int(__m));
   b8018:	9b03      	ldr	r3, [sp, #12]
   b801a:	785b      	ldrb	r3, [r3, #1]
   b801c:	f003 02ff 	and.w	r2, r3, #255	; 0xff
   b8020:	b993      	cbnz	r3, b8048 <_ZN10CloudClass13publish_eventEPKcS1_iN8particle5FlagsI15PublishFlagTypehEE+0xe8>
   b8022:	f64f 739c 	movw	r3, #65436	; 0xff9c
        p.setError(Error::UNKNOWN);
   b8026:	a905      	add	r1, sp, #20
   b8028:	a803      	add	r0, sp, #12
   b802a:	9205      	str	r2, [sp, #20]
   b802c:	f8ad 3018 	strh.w	r3, [sp, #24]
   b8030:	f7ff ff18 	bl	b7e64 <_ZN8particle11PromiseBaseIbNS_6detail13FutureContextEE8setErrorENS_5ErrorE>
   b8034:	a805      	add	r0, sp, #20
   b8036:	f7ff fe82 	bl	b7d3e <_ZN8particle5ErrorD1Ev>
        p.fromDataPtr(d.handler_data); // Free wrapper object
   b803a:	a805      	add	r0, sp, #20
   b803c:	9909      	ldr	r1, [sp, #36]	; 0x24
   b803e:	f7ff feb1 	bl	b7da4 <_ZN8particle11PromiseBaseIbNS_6detail13FutureContextEE11fromDataPtrEPv>
      ~__shared_ptr() = default;
   b8042:	a806      	add	r0, sp, #24
   b8044:	f7fc fe20 	bl	b4c88 <_ZNSt14__shared_countILN9__gnu_cxx12_Lock_policyE0EED1Ev>
   b8048:	a903      	add	r1, sp, #12
   b804a:	a805      	add	r0, sp, #20
   b804c:	f7ff fea1 	bl	b7d92 <_ZNSt12__shared_ptrIN8particle6detail10FutureImplIbNS1_13FutureContextEEELN9__gnu_cxx12_Lock_policyE0EEC1ERKS7_>
      : _M_ptr(__r._M_ptr), _M_refcount()
   b8050:	9b05      	ldr	r3, [sp, #20]
	_Sp_counted_base<_Lp>* __tmp = __r._M_pi;
   b8052:	9a06      	ldr	r2, [sp, #24]
      : _M_ptr(__r._M_ptr), _M_refcount()
   b8054:	602b      	str	r3, [r5, #0]
	_M_pi = __tmp;
   b8056:	606a      	str	r2, [r5, #4]
	__r._M_pi = _M_pi;
   b8058:	2300      	movs	r3, #0
      ~__shared_ptr() = default;
   b805a:	a806      	add	r0, sp, #24
	__r._M_pi = _M_pi;
   b805c:	9306      	str	r3, [sp, #24]
	__r._M_ptr = 0;
   b805e:	9305      	str	r3, [sp, #20]
      ~__shared_ptr() = default;
   b8060:	f7fc fe12 	bl	b4c88 <_ZNSt14__shared_countILN9__gnu_cxx12_Lock_policyE0EED1Ev>
   b8064:	a804      	add	r0, sp, #16
   b8066:	f7fc fe0f 	bl	b4c88 <_ZNSt14__shared_countILN9__gnu_cxx12_Lock_policyE0EED1Ev>
class Promise: public PromiseBase<ResultT, ContextT> {
   b806a:	e7ab      	b.n	b7fc4 <_ZN10CloudClass13publish_eventEPKcS1_iN8particle5FlagsI15PublishFlagTypehEE+0x64>
   b806c:	000b80ed 	.word	0x000b80ed

000b8070 <_ZNSt17_Function_handlerIFvvESt5_BindIFSt8functionIFvRKN8particle5ErrorEEES4_EEE10_M_managerERSt9_Any_dataRKSC_St18_Manager_operation>:
	switch (__op)
   b8070:	2a01      	cmp	r2, #1
      _M_manager(_Any_data& __dest, const _Any_data& __source,
   b8072:	b5f8      	push	{r3, r4, r5, r6, r7, lr}
   b8074:	4605      	mov	r5, r0
	switch (__op)
   b8076:	d103      	bne.n	b8080 <_ZNSt17_Function_handlerIFvvESt5_BindIFSt8functionIFvRKN8particle5ErrorEEES4_EEE10_M_managerERSt9_Any_dataRKSC_St18_Manager_operation+0x10>
	    return __source._M_access<_Functor*>();
   b8078:	680b      	ldr	r3, [r1, #0]
	    __dest._M_access<_Functor*>() = _Base::_M_get_pointer(__source);
   b807a:	6003      	str	r3, [r0, #0]
      }
   b807c:	2000      	movs	r0, #0
   b807e:	bdf8      	pop	{r3, r4, r5, r6, r7, pc}
	  switch (__op)
   b8080:	2a02      	cmp	r2, #2
   b8082:	d010      	beq.n	b80a6 <_ZNSt17_Function_handlerIFvvESt5_BindIFSt8functionIFvRKN8particle5ErrorEEES4_EEE10_M_managerERSt9_Any_dataRKSC_St18_Manager_operation+0x36>
   b8084:	2a03      	cmp	r2, #3
   b8086:	d1f9      	bne.n	b807c <_ZNSt17_Function_handlerIFvvESt5_BindIFSt8functionIFvRKN8particle5ErrorEEES4_EEE10_M_managerERSt9_Any_dataRKSC_St18_Manager_operation+0xc>
	  delete __victim._M_access<_Functor*>();
   b8088:	6804      	ldr	r4, [r0, #0]
   b808a:	2c00      	cmp	r4, #0
   b808c:	d0f6      	beq.n	b807c <_ZNSt17_Function_handlerIFvvESt5_BindIFSt8functionIFvRKN8particle5ErrorEEES4_EEE10_M_managerERSt9_Any_dataRKSC_St18_Manager_operation+0xc>
   b808e:	f104 0010 	add.w	r0, r4, #16
   b8092:	f7ff fe54 	bl	b7d3e <_ZN8particle5ErrorD1Ev>
    class function<_Res(_ArgTypes...)>
   b8096:	4620      	mov	r0, r4
   b8098:	f7fc f99e 	bl	b43d8 <_ZNSt14_Function_baseD1Ev>
	  delete __victim._M_access<_Functor*>();
   b809c:	2118      	movs	r1, #24
   b809e:	4620      	mov	r0, r4
   b80a0:	f7fb fffd 	bl	b409e <_ZdlPvj>
   b80a4:	e7ea      	b.n	b807c <_ZNSt17_Function_handlerIFvvESt5_BindIFSt8functionIFvRKN8particle5ErrorEEES4_EEE10_M_managerERSt9_Any_dataRKSC_St18_Manager_operation+0xc>
	    new _Functor(*__source._M_access<const _Functor*>());
   b80a6:	2018      	movs	r0, #24
	  __dest._M_access<_Functor*>() =
   b80a8:	680e      	ldr	r6, [r1, #0]
	    new _Functor(*__source._M_access<const _Functor*>());
   b80aa:	f7fb fff4 	bl	b4096 <_Znwj>
   b80ae:	4604      	mov	r4, r0
   b80b0:	b150      	cbz	r0, b80c8 <_ZNSt17_Function_handlerIFvvESt5_BindIFSt8functionIFvRKN8particle5ErrorEEES4_EEE10_M_managerERSt9_Any_dataRKSC_St18_Manager_operation+0x58>
      _Bind(const _Bind&) = default;
   b80b2:	4631      	mov	r1, r6
   b80b4:	f7ff fec6 	bl	b7e44 <_ZNSt8functionIFvRKN8particle5ErrorEEEC1ERKS5_>
        Error(error.type_, error.msg_) {
   b80b8:	6930      	ldr	r0, [r6, #16]
   b80ba:	f9b6 7014 	ldrsh.w	r7, [r6, #20]
        msg_(msg ? (const char*)strdup(msg) : nullptr),
   b80be:	b108      	cbz	r0, b80c4 <_ZNSt17_Function_handlerIFvvESt5_BindIFSt8functionIFvRKN8particle5ErrorEEES4_EEE10_M_managerERSt9_Any_dataRKSC_St18_Manager_operation+0x54>
   b80c0:	f001 fba8 	bl	b9814 <strdup>
        type_(type) {
   b80c4:	6120      	str	r0, [r4, #16]
   b80c6:	82a7      	strh	r7, [r4, #20]
	  __dest._M_access<_Functor*>() =
   b80c8:	602c      	str	r4, [r5, #0]
	}
   b80ca:	e7d7      	b.n	b807c <_ZNSt17_Function_handlerIFvvESt5_BindIFSt8functionIFvRKN8particle5ErrorEEES4_EEE10_M_managerERSt9_Any_dataRKSC_St18_Manager_operation+0xc>

000b80cc <_ZNSt8functionIFvRKbEEC1ERKS3_>:
    function<_Res(_ArgTypes...)>::
   b80cc:	b538      	push	{r3, r4, r5, lr}
    _Function_base() : _M_manager(nullptr) { }
   b80ce:	2300      	movs	r3, #0
   b80d0:	6083      	str	r3, [r0, #8]
    bool _M_empty() const { return !_M_manager; }
   b80d2:	688b      	ldr	r3, [r1, #8]
    function<_Res(_ArgTypes...)>::
   b80d4:	4604      	mov	r4, r0
   b80d6:	460d      	mov	r5, r1
      if (static_cast<bool>(__x))
   b80d8:	b12b      	cbz	r3, b80e6 <_ZNSt8functionIFvRKbEEC1ERKS3_+0x1a>
	  __x._M_manager(_M_functor, __x._M_functor, __clone_functor);
   b80da:	2202      	movs	r2, #2
   b80dc:	4798      	blx	r3
	  _M_invoker = __x._M_invoker;
   b80de:	68eb      	ldr	r3, [r5, #12]
   b80e0:	60e3      	str	r3, [r4, #12]
	  _M_manager = __x._M_manager;
   b80e2:	68ab      	ldr	r3, [r5, #8]
   b80e4:	60a3      	str	r3, [r4, #8]
    }
   b80e6:	4620      	mov	r0, r4
   b80e8:	bd38      	pop	{r3, r4, r5, pc}
	...

000b80ec <_ZN12_GLOBAL__N_125publishCompletionCallbackEiPKvPvS2_>:
void publishCompletionCallback(int error, const void* data, void* callbackData, void* reserved) {
   b80ec:	b5f0      	push	{r4, r5, r6, r7, lr}
   b80ee:	b089      	sub	sp, #36	; 0x24
   b80f0:	4604      	mov	r4, r0
   b80f2:	460d      	mov	r5, r1
    auto p = Promise<bool>::fromDataPtr(callbackData);
   b80f4:	a801      	add	r0, sp, #4
   b80f6:	4611      	mov	r1, r2
   b80f8:	f7ff fe54 	bl	b7da4 <_ZN8particle11PromiseBaseIbNS_6detail13FutureContextEE11fromDataPtrEPv>
    if (error != Error::NONE) {
   b80fc:	b1a4      	cbz	r4, b8128 <_ZN12_GLOBAL__N_125publishCompletionCallbackEiPKvPvS2_+0x3c>
        p.setError(Error((Error::Type)error, (const char*)data));
   b80fe:	b224      	sxth	r4, r4
        msg_(msg ? (const char*)strdup(msg) : nullptr),
   b8100:	b11d      	cbz	r5, b810a <_ZN12_GLOBAL__N_125publishCompletionCallbackEiPKvPvS2_+0x1e>
   b8102:	4628      	mov	r0, r5
   b8104:	f001 fb86 	bl	b9814 <strdup>
   b8108:	4605      	mov	r5, r0
   b810a:	a801      	add	r0, sp, #4
   b810c:	a903      	add	r1, sp, #12
        type_(type) {
   b810e:	9503      	str	r5, [sp, #12]
   b8110:	f8ad 4010 	strh.w	r4, [sp, #16]
   b8114:	f7ff fea6 	bl	b7e64 <_ZN8particle11PromiseBaseIbNS_6detail13FutureContextEE8setErrorENS_5ErrorE>
   b8118:	a803      	add	r0, sp, #12
   b811a:	f7ff fe10 	bl	b7d3e <_ZN8particle5ErrorD1Ev>
   b811e:	a802      	add	r0, sp, #8
   b8120:	f7fc fdb2 	bl	b4c88 <_ZNSt14__shared_countILN9__gnu_cxx12_Lock_policyE0EED1Ev>
}
   b8124:	b009      	add	sp, #36	; 0x24
   b8126:	bdf0      	pop	{r4, r5, r6, r7, pc}
      { return _M_ptr; }
   b8128:	9d01      	ldr	r5, [sp, #4]
	return __atomic_compare_exchange(std::__addressof(_M_i),
   b812a:	2301      	movs	r3, #1
   b812c:	e8d5 2f4f 	ldrexb	r2, [r5]
   b8130:	2a00      	cmp	r2, #0
   b8132:	d103      	bne.n	b813c <_ZN12_GLOBAL__N_125publishCompletionCallbackEiPKvPvS2_+0x50>
   b8134:	e8c5 3f41 	strexb	r1, r3, [r5]
   b8138:	2900      	cmp	r1, #0
   b813a:	d1f7      	bne.n	b812c <_ZN12_GLOBAL__N_125publishCompletionCallbackEiPKvPvS2_+0x40>
        if (this->changeState(State::SUCCEEDED)) {
   b813c:	d1ef      	bne.n	b811e <_ZN12_GLOBAL__N_125publishCompletionCallbackEiPKvPvS2_+0x32>
            new(&result_) ResultT(std::move(result));
   b813e:	732b      	strb	r3, [r5, #12]
	__atomic_store_n(&_M_i, __i, int(__m));
   b8140:	f3bf 8f5b 	dmb	ish
   b8144:	706b      	strb	r3, [r5, #1]
	return __atomic_exchange_n(&_M_p, __p, int(__m));
   b8146:	1d2b      	adds	r3, r5, #4
   b8148:	f3bf 8f5b 	dmb	ish
   b814c:	e853 6f00 	ldrex	r6, [r3]
   b8150:	e843 4200 	strex	r2, r4, [r3]
   b8154:	2a00      	cmp	r2, #0
   b8156:	d1f9      	bne.n	b814c <_ZN12_GLOBAL__N_125publishCompletionCallbackEiPKvPvS2_+0x60>
   b8158:	f3bf 8f5b 	dmb	ish
        if (callbackPtr) {
   b815c:	2e00      	cmp	r6, #0
   b815e:	d0de      	beq.n	b811e <_ZN12_GLOBAL__N_125publishCompletionCallbackEiPKvPvS2_+0x32>
        return (application_thread_current(nullptr) != 0);
   b8160:	4620      	mov	r0, r4
   b8162:	f7fd fbe1 	bl	b5928 <application_thread_current>
        if (ContextT::isApplicationThreadCurrent()) {
   b8166:	4607      	mov	r7, r0
   b8168:	b160      	cbz	r0, b8184 <_ZN12_GLOBAL__N_125publishCompletionCallbackEiPKvPvS2_+0x98>
            callback(std::forward<ArgsT>(args)...); // Synchronous call
   b816a:	f105 010c 	add.w	r1, r5, #12
   b816e:	4630      	mov	r0, r6
   b8170:	f7ff fe43 	bl	b7dfa <_ZNKSt8functionIFvRKbEEclES1_>
    class function<_Res(_ArgTypes...)>
   b8174:	4630      	mov	r0, r6
   b8176:	f7fc f92f 	bl	b43d8 <_ZNSt14_Function_baseD1Ev>
            delete callbackPtr;
   b817a:	2110      	movs	r1, #16
   b817c:	4630      	mov	r0, r6
   b817e:	f7fb ff8e 	bl	b409e <_ZdlPvj>
   b8182:	e7cc      	b.n	b811e <_ZN12_GLOBAL__N_125publishCompletionCallbackEiPKvPvS2_+0x32>
	: _M_f(__f), _M_bound_args(std::forward<_Args>(__args)...)
   b8184:	4631      	mov	r1, r6
   b8186:	a803      	add	r0, sp, #12
   b8188:	f7ff ffa0 	bl	b80cc <_ZNSt8functionIFvRKbEEC1ERKS3_>
	: _M_head_impl(std::forward<_UHead>(__h)) { }
   b818c:	7b2b      	ldrb	r3, [r5, #12]
   b818e:	f88d 301c 	strb.w	r3, [sp, #28]
            auto callbackPtr = new std::function<void()>(std::bind(callback, std::forward<ArgsT>(args)...));
   b8192:	2010      	movs	r0, #16
   b8194:	f7fb ff7f 	bl	b4096 <_Znwj>
   b8198:	4605      	mov	r5, r0
   b819a:	b1d0      	cbz	r0, b81d2 <_ZN12_GLOBAL__N_125publishCompletionCallbackEiPKvPvS2_+0xe6>
    _Function_base() : _M_manager(nullptr) { }
   b819c:	6087      	str	r7, [r0, #8]
	{ __functor._M_access<_Functor*>() = new _Functor(std::move(__f)); }
   b819e:	2014      	movs	r0, #20
   b81a0:	f7fb ff79 	bl	b4096 <_Znwj>
   b81a4:	4604      	mov	r4, r0
   b81a6:	b178      	cbz	r0, b81c8 <_ZN12_GLOBAL__N_125publishCompletionCallbackEiPKvPvS2_+0xdc>
    _Function_base() : _M_manager(nullptr) { }
   b81a8:	6087      	str	r7, [r0, #8]
	std::swap(_M_functor, __x._M_functor);
   b81aa:	4601      	mov	r1, r0
   b81ac:	a803      	add	r0, sp, #12
   b81ae:	f7ff f8cd 	bl	b734c <_ZSt4swapISt9_Any_dataENSt9enable_ifIXsrSt6__and_IJSt6__not_ISt15__is_tuple_likeIT_EESt21is_move_constructibleIS5_ESt18is_move_assignableIS5_EEE5valueEvE4typeERS5_SF_>
      _Tp __tmp = _GLIBCXX_MOVE(__a);
   b81b2:	9b05      	ldr	r3, [sp, #20]
      __a = _GLIBCXX_MOVE(__b);
   b81b4:	68a2      	ldr	r2, [r4, #8]
      __b = _GLIBCXX_MOVE(__tmp);
   b81b6:	60a3      	str	r3, [r4, #8]
      _Tp __tmp = _GLIBCXX_MOVE(__a);
   b81b8:	9b06      	ldr	r3, [sp, #24]
      __a = _GLIBCXX_MOVE(__b);
   b81ba:	9205      	str	r2, [sp, #20]
   b81bc:	68e2      	ldr	r2, [r4, #12]
      __b = _GLIBCXX_MOVE(__tmp);
   b81be:	60e3      	str	r3, [r4, #12]
   b81c0:	f89d 301c 	ldrb.w	r3, [sp, #28]
      __a = _GLIBCXX_MOVE(__b);
   b81c4:	9206      	str	r2, [sp, #24]
   b81c6:	7423      	strb	r3, [r4, #16]
	    _M_invoker = &_My_handler::_M_invoke;
   b81c8:	4b06      	ldr	r3, [pc, #24]	; (b81e4 <_ZN12_GLOBAL__N_125publishCompletionCallbackEiPKvPvS2_+0xf8>)
   b81ca:	60eb      	str	r3, [r5, #12]
	    _M_manager = &_My_handler::_M_manager;
   b81cc:	4b06      	ldr	r3, [pc, #24]	; (b81e8 <_ZN12_GLOBAL__N_125publishCompletionCallbackEiPKvPvS2_+0xfc>)
	{ __functor._M_access<_Functor*>() = new _Functor(std::move(__f)); }
   b81ce:	602c      	str	r4, [r5, #0]
	    _M_manager = &_My_handler::_M_manager;
   b81d0:	60ab      	str	r3, [r5, #8]
    class function<_Res(_ArgTypes...)>
   b81d2:	a803      	add	r0, sp, #12
   b81d4:	f7fc f900 	bl	b43d8 <_ZNSt14_Function_baseD1Ev>
        return (application_thread_invoke(callback, data, nullptr) == 0);
   b81d8:	2200      	movs	r2, #0
   b81da:	4629      	mov	r1, r5
   b81dc:	4803      	ldr	r0, [pc, #12]	; (b81ec <_ZN12_GLOBAL__N_125publishCompletionCallbackEiPKvPvS2_+0x100>)
   b81de:	f7fd fbab 	bl	b5938 <application_thread_invoke>
   b81e2:	e7c7      	b.n	b8174 <_ZN12_GLOBAL__N_125publishCompletionCallbackEiPKvPvS2_+0x88>
   b81e4:	000b7e0d 	.word	0x000b7e0d
   b81e8:	000b81f1 	.word	0x000b81f1
   b81ec:	000b8561 	.word	0x000b8561

000b81f0 <_ZNSt17_Function_handlerIFvvESt5_BindIFSt8functionIFvRKbEEbEEE10_M_managerERSt9_Any_dataRKSA_St18_Manager_operation>:
	switch (__op)
   b81f0:	2a01      	cmp	r2, #1
      _M_manager(_Any_data& __dest, const _Any_data& __source,
   b81f2:	b570      	push	{r4, r5, r6, lr}
   b81f4:	4604      	mov	r4, r0
	switch (__op)
   b81f6:	d103      	bne.n	b8200 <_ZNSt17_Function_handlerIFvvESt5_BindIFSt8functionIFvRKbEEbEEE10_M_managerERSt9_Any_dataRKSA_St18_Manager_operation+0x10>
	    return __source._M_access<_Functor*>();
   b81f8:	680b      	ldr	r3, [r1, #0]
	    __dest._M_access<_Functor*>() = _Base::_M_get_pointer(__source);
   b81fa:	6003      	str	r3, [r0, #0]
      }
   b81fc:	2000      	movs	r0, #0
   b81fe:	bd70      	pop	{r4, r5, r6, pc}
	  switch (__op)
   b8200:	2a02      	cmp	r2, #2
   b8202:	d00c      	beq.n	b821e <_ZNSt17_Function_handlerIFvvESt5_BindIFSt8functionIFvRKbEEbEEE10_M_managerERSt9_Any_dataRKSA_St18_Manager_operation+0x2e>
   b8204:	2a03      	cmp	r2, #3
   b8206:	d1f9      	bne.n	b81fc <_ZNSt17_Function_handlerIFvvESt5_BindIFSt8functionIFvRKbEEbEEE10_M_managerERSt9_Any_dataRKSA_St18_Manager_operation+0xc>
	  delete __victim._M_access<_Functor*>();
   b8208:	6804      	ldr	r4, [r0, #0]
   b820a:	2c00      	cmp	r4, #0
   b820c:	d0f6      	beq.n	b81fc <_ZNSt17_Function_handlerIFvvESt5_BindIFSt8functionIFvRKbEEbEEE10_M_managerERSt9_Any_dataRKSA_St18_Manager_operation+0xc>
    class function<_Res(_ArgTypes...)>
   b820e:	4620      	mov	r0, r4
   b8210:	f7fc f8e2 	bl	b43d8 <_ZNSt14_Function_baseD1Ev>
	  delete __victim._M_access<_Functor*>();
   b8214:	2114      	movs	r1, #20
   b8216:	4620      	mov	r0, r4
   b8218:	f7fb ff41 	bl	b409e <_ZdlPvj>
   b821c:	e7ee      	b.n	b81fc <_ZNSt17_Function_handlerIFvvESt5_BindIFSt8functionIFvRKbEEbEEE10_M_managerERSt9_Any_dataRKSA_St18_Manager_operation+0xc>
	    new _Functor(*__source._M_access<const _Functor*>());
   b821e:	2014      	movs	r0, #20
	  __dest._M_access<_Functor*>() =
   b8220:	680e      	ldr	r6, [r1, #0]
	    new _Functor(*__source._M_access<const _Functor*>());
   b8222:	f7fb ff38 	bl	b4096 <_Znwj>
   b8226:	4605      	mov	r5, r0
   b8228:	b120      	cbz	r0, b8234 <_ZNSt17_Function_handlerIFvvESt5_BindIFSt8functionIFvRKbEEbEEE10_M_managerERSt9_Any_dataRKSA_St18_Manager_operation+0x44>
      _Bind(const _Bind&) = default;
   b822a:	4631      	mov	r1, r6
   b822c:	f7ff ff4e 	bl	b80cc <_ZNSt8functionIFvRKbEEC1ERKS3_>
   b8230:	7c33      	ldrb	r3, [r6, #16]
   b8232:	742b      	strb	r3, [r5, #16]
	  __dest._M_access<_Functor*>() =
   b8234:	6025      	str	r5, [r4, #0]
	}
   b8236:	e7e1      	b.n	b81fc <_ZNSt17_Function_handlerIFvvESt5_BindIFSt8functionIFvRKbEEbEEE10_M_managerERSt9_Any_dataRKSA_St18_Manager_operation+0xc>

000b8238 <_ZN9IPAddressD1Ev>:
    virtual ~IPAddress() {}
   b8238:	4770      	bx	lr

000b823a <_ZN9IPAddressD0Ev>:
   b823a:	b510      	push	{r4, lr}
   b823c:	2118      	movs	r1, #24
   b823e:	4604      	mov	r4, r0
   b8240:	f7fb ff2d 	bl	b409e <_ZdlPvj>
   b8244:	4620      	mov	r0, r4
   b8246:	bd10      	pop	{r4, pc}

000b8248 <_ZNK9IPAddress7printToER5Print>:
#endif // Wiring_IPv6
	return address.ipv4==that.address.ipv4;
}

size_t IPAddress::printTo(Print& p) const
{
   b8248:	b5f0      	push	{r4, r5, r6, r7, lr}
#if Wiring_IPv6
#if HAL_USE_INET_HAL_POSIX
	if (address.v==6) {
   b824a:	7d03      	ldrb	r3, [r0, #20]
   b824c:	2b06      	cmp	r3, #6
{
   b824e:	b08d      	sub	sp, #52	; 0x34
   b8250:	460e      	mov	r6, r1
		char buf[INET6_ADDRSTRLEN+1];
		buf[0] = 0;
		inet_inet_ntop(AF_INET6, address.ipv6, buf, sizeof(buf));
   b8252:	f100 0704 	add.w	r7, r0, #4
   b8256:	f04f 0400 	mov.w	r4, #0
	if (address.v==6) {
   b825a:	d012      	beq.n	b8282 <_ZNK9IPAddress7printToER5Print+0x3a>
   b825c:	f100 0508 	add.w	r5, r0, #8
            val = n;
        }
#if __GNUC__ >= 9
#pragma GCC diagnostic pop
#endif // __GNUC__ >= 9
        return printNumber(val, base) + t;
   b8260:	f815 1d01 	ldrb.w	r1, [r5, #-1]!
   b8264:	220a      	movs	r2, #10
   b8266:	4630      	mov	r0, r6
   b8268:	f7ff fb67 	bl	b793a <_ZN5Print11printNumberEmh>
#else
#pragma message "HAL_USE_INET_HAL_POSIX is required for IPv6 support in IPAddress::printTo()"
#endif // HAL_USE_INET_HAL_POSIX
#endif // Wiring_IPv6
    size_t n = 0;
    for (int i = 0; i < 4; i++)
   b826c:	42af      	cmp	r7, r5
    {
        if (n)
            n += p.print('.');
        n += p.print((*this)[i], DEC);
   b826e:	4404      	add	r4, r0
    for (int i = 0; i < 4; i++)
   b8270:	d019      	beq.n	b82a6 <_ZNK9IPAddress7printToER5Print+0x5e>
        if (n)
   b8272:	2c00      	cmp	r4, #0
   b8274:	d0f4      	beq.n	b8260 <_ZNK9IPAddress7printToER5Print+0x18>
            n += p.print('.');
   b8276:	212e      	movs	r1, #46	; 0x2e
   b8278:	4630      	mov	r0, r6
   b827a:	f7ff fb45 	bl	b7908 <_ZN5Print5printEc>
   b827e:	4404      	add	r4, r0
   b8280:	e7ee      	b.n	b8260 <_ZNK9IPAddress7printToER5Print+0x18>
		inet_inet_ntop(AF_INET6, address.ipv6, buf, sizeof(buf));
   b8282:	232f      	movs	r3, #47	; 0x2f
   b8284:	466a      	mov	r2, sp
   b8286:	4639      	mov	r1, r7
   b8288:	200a      	movs	r0, #10
		buf[0] = 0;
   b828a:	f88d 4000 	strb.w	r4, [sp]
		inet_inet_ntop(AF_INET6, address.ipv6, buf, sizeof(buf));
   b828e:	f7fd fa0b 	bl	b56a8 <inet_inet_ntop>
      return write((const uint8_t *)str, strlen(str));
   b8292:	4668      	mov	r0, sp
   b8294:	f001 fadb 	bl	b984e <strlen>
   b8298:	6833      	ldr	r3, [r6, #0]
   b829a:	4602      	mov	r2, r0
   b829c:	68db      	ldr	r3, [r3, #12]
   b829e:	4669      	mov	r1, sp
   b82a0:	4630      	mov	r0, r6
   b82a2:	4798      	blx	r3
   b82a4:	4604      	mov	r4, r0
    }
    return n;
}
   b82a6:	4620      	mov	r0, r4
   b82a8:	b00d      	add	sp, #52	; 0x34
   b82aa:	bdf0      	pop	{r4, r5, r6, r7, pc}

000b82ac <_ZN9IPAddressC1Ev>:
IPAddress::IPAddress()
   b82ac:	b510      	push	{r4, lr}
   b82ae:	4b05      	ldr	r3, [pc, #20]	; (b82c4 <_ZN9IPAddressC1Ev+0x18>)
   b82b0:	4604      	mov	r4, r0
    void clear() { memset(&address, 0, sizeof (address)); }
   b82b2:	2211      	movs	r2, #17
   b82b4:	f840 3b04 	str.w	r3, [r0], #4
   b82b8:	2100      	movs	r1, #0
   b82ba:	f001 fa52 	bl	b9762 <memset>
}
   b82be:	4620      	mov	r0, r4
   b82c0:	bd10      	pop	{r4, pc}
   b82c2:	bf00      	nop
   b82c4:	000bc0c4 	.word	0x000bc0c4

000b82c8 <_ZN9IPAddressC1ERK16_HAL_IPAddress_t>:
IPAddress::IPAddress(const HAL_IPAddress& address)
   b82c8:	4603      	mov	r3, r0
   b82ca:	4a07      	ldr	r2, [pc, #28]	; (b82e8 <_ZN9IPAddressC1ERK16_HAL_IPAddress_t+0x20>)
   b82cc:	b510      	push	{r4, lr}
   b82ce:	f843 2b04 	str.w	r2, [r3], #4
    memcpy(&this->address, &address, sizeof(address));
   b82d2:	f101 0210 	add.w	r2, r1, #16
   b82d6:	f851 4b04 	ldr.w	r4, [r1], #4
   b82da:	f843 4b04 	str.w	r4, [r3], #4
   b82de:	4291      	cmp	r1, r2
   b82e0:	d1f9      	bne.n	b82d6 <_ZN9IPAddressC1ERK16_HAL_IPAddress_t+0xe>
   b82e2:	780a      	ldrb	r2, [r1, #0]
   b82e4:	701a      	strb	r2, [r3, #0]
}
   b82e6:	bd10      	pop	{r4, pc}
   b82e8:	000bc0c4 	.word	0x000bc0c4

000b82ec <_ZN9IPAddressC1Em>:
IPAddress::IPAddress(uint32_t addr)
   b82ec:	4a02      	ldr	r2, [pc, #8]	; (b82f8 <_ZN9IPAddressC1Em+0xc>)
    address.ipv4 = addr;
   b82ee:	e9c0 2100 	strd	r2, r1, [r0]
        address.v = version;
   b82f2:	2204      	movs	r2, #4
   b82f4:	7502      	strb	r2, [r0, #20]
}
   b82f6:	4770      	bx	lr
   b82f8:	000bc0c4 	.word	0x000bc0c4

000b82fc <_ZNK9IPAddresscvbEv>:
    		return address.v;
   b82fc:	7d03      	ldrb	r3, [r0, #20]
    if (version() == 4) {
   b82fe:	2b04      	cmp	r3, #4
   b8300:	d104      	bne.n	b830c <_ZNK9IPAddresscvbEv+0x10>
        return address.ipv4 != 0;
   b8302:	6840      	ldr	r0, [r0, #4]
        return address.ipv6[0] != 0 || address.ipv6[1] != 0 || address.ipv6[2] != 0 || address.ipv6[3] != 0;
   b8304:	3800      	subs	r0, #0
   b8306:	bf18      	it	ne
   b8308:	2001      	movne	r0, #1
   b830a:	4770      	bx	lr
    } else if (version() == 6) {
   b830c:	2b06      	cmp	r3, #6
   b830e:	d107      	bne.n	b8320 <_ZNK9IPAddresscvbEv+0x24>
        return address.ipv6[0] != 0 || address.ipv6[1] != 0 || address.ipv6[2] != 0 || address.ipv6[3] != 0;
   b8310:	6843      	ldr	r3, [r0, #4]
   b8312:	b93b      	cbnz	r3, b8324 <_ZNK9IPAddresscvbEv+0x28>
   b8314:	6883      	ldr	r3, [r0, #8]
   b8316:	b92b      	cbnz	r3, b8324 <_ZNK9IPAddresscvbEv+0x28>
   b8318:	68c3      	ldr	r3, [r0, #12]
   b831a:	b91b      	cbnz	r3, b8324 <_ZNK9IPAddresscvbEv+0x28>
   b831c:	6900      	ldr	r0, [r0, #16]
   b831e:	e7f1      	b.n	b8304 <_ZNK9IPAddresscvbEv+0x8>
        return false;
   b8320:	2000      	movs	r0, #0
   b8322:	4770      	bx	lr
        return address.ipv6[0] != 0 || address.ipv6[1] != 0 || address.ipv6[2] != 0 || address.ipv6[3] != 0;
   b8324:	2001      	movs	r0, #1
}
   b8326:	4770      	bx	lr

000b8328 <_ZN9IPAddress8set_ipv4Ehhhh>:
{
   b8328:	b510      	push	{r4, lr}
    address.ipv4 = b0<<24 | b1 << 16 | b2 << 8 | b3;
   b832a:	f89d 4008 	ldrb.w	r4, [sp, #8]
   b832e:	ea44 2303 	orr.w	r3, r4, r3, lsl #8
   b8332:	ea43 4202 	orr.w	r2, r3, r2, lsl #16
   b8336:	ea42 6101 	orr.w	r1, r2, r1, lsl #24
        address.v = version;
   b833a:	2304      	movs	r3, #4
   b833c:	6041      	str	r1, [r0, #4]
   b833e:	7503      	strb	r3, [r0, #20]
}
   b8340:	bd10      	pop	{r4, pc}
	...

000b8344 <_ZN9IPAddressC1EPKh>:
IPAddress::IPAddress(const uint8_t* addr)
   b8344:	b507      	push	{r0, r1, r2, lr}
   b8346:	4b06      	ldr	r3, [pc, #24]	; (b8360 <_ZN9IPAddressC1EPKh+0x1c>)
   b8348:	6003      	str	r3, [r0, #0]
    set_ipv4(addr[0], addr[1], addr[2], addr[3]);
   b834a:	78cb      	ldrb	r3, [r1, #3]
   b834c:	9300      	str	r3, [sp, #0]
   b834e:	788b      	ldrb	r3, [r1, #2]
   b8350:	784a      	ldrb	r2, [r1, #1]
   b8352:	7809      	ldrb	r1, [r1, #0]
   b8354:	f7ff ffe8 	bl	b8328 <_ZN9IPAddress8set_ipv4Ehhhh>
}
   b8358:	b003      	add	sp, #12
   b835a:	f85d fb04 	ldr.w	pc, [sp], #4
   b835e:	bf00      	nop
   b8360:	000bc0c4 	.word	0x000bc0c4

000b8364 <_ZN9USBSerial14blockOnOverrunEb>:
  HAL_USB_USART_Flush_Data(_serial);
}

void USBSerial::blockOnOverrun(bool block)
{
  _blocking = block;
   b8364:	7441      	strb	r1, [r0, #17]
}
   b8366:	4770      	bx	lr

000b8368 <__tcf_0>:
}

USBSerial& _fetch_usbserial()
{
  HAL_USB_USART_Config conf = acquireSerialBuffer();
	static USBSerial _usbserial(HAL_USB_USART_SERIAL, conf);
   b8368:	4770      	bx	lr

000b836a <_ZN9USBSerialD1Ev>:
#include "usb_hal.h"
#include "system_task.h"
#include "spark_wiring_startup.h"
#include "concurrent_hal.h"

class USBSerial : public Stream
   b836a:	4770      	bx	lr

000b836c <_ZN9USBSerial4readEv>:
{
   b836c:	b508      	push	{r3, lr}
	return std::max(-1, (int)HAL_USB_USART_Receive_Data(_serial, false));
   b836e:	2100      	movs	r1, #0
   b8370:	7c00      	ldrb	r0, [r0, #16]
   b8372:	f7fd fa89 	bl	b5888 <HAL_USB_USART_Receive_Data>
}
   b8376:	ea40 70e0 	orr.w	r0, r0, r0, asr #31
   b837a:	bd08      	pop	{r3, pc}

000b837c <_ZN9USBSerial4peekEv>:
{
   b837c:	b508      	push	{r3, lr}
	return std::max(-1, (int)HAL_USB_USART_Receive_Data(_serial, true));
   b837e:	2101      	movs	r1, #1
   b8380:	7c00      	ldrb	r0, [r0, #16]
   b8382:	f7fd fa81 	bl	b5888 <HAL_USB_USART_Receive_Data>
}
   b8386:	ea40 70e0 	orr.w	r0, r0, r0, asr #31
   b838a:	bd08      	pop	{r3, pc}

000b838c <_ZN9USBSerial17availableForWriteEv>:
{
   b838c:	b508      	push	{r3, lr}
  return std::max(0, (int)HAL_USB_USART_Available_Data_For_Write(_serial));
   b838e:	7c00      	ldrb	r0, [r0, #16]
   b8390:	f7fd fa72 	bl	b5878 <HAL_USB_USART_Available_Data_For_Write>
}
   b8394:	ea20 70e0 	bic.w	r0, r0, r0, asr #31
   b8398:	bd08      	pop	{r3, pc}

000b839a <_ZN9USBSerial9availableEv>:
{
   b839a:	b508      	push	{r3, lr}
	return std::max(0, (int)HAL_USB_USART_Available_Data(_serial));
   b839c:	7c00      	ldrb	r0, [r0, #16]
   b839e:	f7fd fa63 	bl	b5868 <HAL_USB_USART_Available_Data>
}
   b83a2:	ea20 70e0 	bic.w	r0, r0, r0, asr #31
   b83a6:	bd08      	pop	{r3, pc}

000b83a8 <_ZN9USBSerial5writeEh>:
{
   b83a8:	b513      	push	{r0, r1, r4, lr}
   b83aa:	4604      	mov	r4, r0
  if (HAL_USB_USART_Available_Data_For_Write(_serial) > 0 || _blocking) {
   b83ac:	7c00      	ldrb	r0, [r0, #16]
{
   b83ae:	9101      	str	r1, [sp, #4]
  if (HAL_USB_USART_Available_Data_For_Write(_serial) > 0 || _blocking) {
   b83b0:	f7fd fa62 	bl	b5878 <HAL_USB_USART_Available_Data_For_Write>
   b83b4:	2800      	cmp	r0, #0
   b83b6:	9901      	ldr	r1, [sp, #4]
   b83b8:	dc01      	bgt.n	b83be <_ZN9USBSerial5writeEh+0x16>
   b83ba:	7c60      	ldrb	r0, [r4, #17]
   b83bc:	b120      	cbz	r0, b83c8 <_ZN9USBSerial5writeEh+0x20>
    return std::max(0, (int)HAL_USB_USART_Send_Data(_serial, byte));
   b83be:	7c20      	ldrb	r0, [r4, #16]
   b83c0:	f7fd fa6a 	bl	b5898 <HAL_USB_USART_Send_Data>
   b83c4:	ea20 70e0 	bic.w	r0, r0, r0, asr #31
}
   b83c8:	b002      	add	sp, #8
   b83ca:	bd10      	pop	{r4, pc}

000b83cc <_ZN9USBSerial5flushEv>:
  HAL_USB_USART_Flush_Data(_serial);
   b83cc:	7c00      	ldrb	r0, [r0, #16]
   b83ce:	f7fd ba6b 	b.w	b58a8 <HAL_USB_USART_Flush_Data>

000b83d2 <_ZN9USBSerialD0Ev>:
   b83d2:	b510      	push	{r4, lr}
   b83d4:	2114      	movs	r1, #20
   b83d6:	4604      	mov	r4, r0
   b83d8:	f7fb fe61 	bl	b409e <_ZdlPvj>
   b83dc:	4620      	mov	r0, r4
   b83de:	bd10      	pop	{r4, pc}

000b83e0 <_ZN9USBSerialC1E20HAL_USB_USART_SerialRK20HAL_USB_USART_Config>:
USBSerial::USBSerial(HAL_USB_USART_Serial serial, const HAL_USB_USART_Config& conf)
   b83e0:	b510      	push	{r4, lr}
   b83e2:	f44f 737a 	mov.w	r3, #1000	; 0x3e8
   b83e6:	4604      	mov	r4, r0
   b83e8:	4608      	mov	r0, r1
   b83ea:	2100      	movs	r1, #0
   b83ec:	e9c4 1301 	strd	r1, r3, [r4, #4]
   b83f0:	4b04      	ldr	r3, [pc, #16]	; (b8404 <_ZN9USBSerialC1E20HAL_USB_USART_SerialRK20HAL_USB_USART_Config+0x24>)
   b83f2:	6023      	str	r3, [r4, #0]
  _blocking = true;
   b83f4:	2301      	movs	r3, #1
  _serial = serial;
   b83f6:	7420      	strb	r0, [r4, #16]
  _blocking = true;
   b83f8:	7463      	strb	r3, [r4, #17]
  HAL_USB_USART_Init(_serial, &conf);
   b83fa:	4611      	mov	r1, r2
   b83fc:	f7fd fa2c 	bl	b5858 <HAL_USB_USART_Init>
}
   b8400:	4620      	mov	r0, r4
   b8402:	bd10      	pop	{r4, pc}
   b8404:	000bc0d8 	.word	0x000bc0d8

000b8408 <_Z19acquireSerialBufferv>:
{
   b8408:	b510      	push	{r4, lr}
  HAL_USB_USART_Config conf = {};
   b840a:	2214      	movs	r2, #20
{
   b840c:	4604      	mov	r4, r0
  HAL_USB_USART_Config conf = {};
   b840e:	2100      	movs	r1, #0
   b8410:	f001 f9a7 	bl	b9762 <memset>
}
   b8414:	4620      	mov	r0, r4
   b8416:	bd10      	pop	{r4, pc}

000b8418 <_Z16_fetch_usbserialv>:
{
   b8418:	b510      	push	{r4, lr}
	static USBSerial _usbserial(HAL_USB_USART_SERIAL, conf);
   b841a:	4c0f      	ldr	r4, [pc, #60]	; (b8458 <_Z16_fetch_usbserialv+0x40>)
{
   b841c:	b088      	sub	sp, #32
  HAL_USB_USART_Config conf = acquireSerialBuffer();
   b841e:	a803      	add	r0, sp, #12
   b8420:	f7ff fff2 	bl	b8408 <_Z19acquireSerialBufferv>
	static USBSerial _usbserial(HAL_USB_USART_SERIAL, conf);
   b8424:	7821      	ldrb	r1, [r4, #0]
   b8426:	f3bf 8f5b 	dmb	ish
   b842a:	f011 0101 	ands.w	r1, r1, #1
   b842e:	d10f      	bne.n	b8450 <_Z16_fetch_usbserialv+0x38>
   b8430:	4620      	mov	r0, r4
   b8432:	9101      	str	r1, [sp, #4]
   b8434:	f7fb fe35 	bl	b40a2 <__cxa_guard_acquire>
   b8438:	9901      	ldr	r1, [sp, #4]
   b843a:	b148      	cbz	r0, b8450 <_Z16_fetch_usbserialv+0x38>
   b843c:	aa03      	add	r2, sp, #12
   b843e:	4807      	ldr	r0, [pc, #28]	; (b845c <_Z16_fetch_usbserialv+0x44>)
   b8440:	f7ff ffce 	bl	b83e0 <_ZN9USBSerialC1E20HAL_USB_USART_SerialRK20HAL_USB_USART_Config>
   b8444:	4620      	mov	r0, r4
   b8446:	f7fb fe31 	bl	b40ac <__cxa_guard_release>
   b844a:	4805      	ldr	r0, [pc, #20]	; (b8460 <_Z16_fetch_usbserialv+0x48>)
   b844c:	f001 f944 	bl	b96d8 <atexit>
	return _usbserial;
}
   b8450:	4802      	ldr	r0, [pc, #8]	; (b845c <_Z16_fetch_usbserialv+0x44>)
   b8452:	b008      	add	sp, #32
   b8454:	bd10      	pop	{r4, pc}
   b8456:	bf00      	nop
   b8458:	2003e6f8 	.word	0x2003e6f8
   b845c:	2003e6fc 	.word	0x2003e6fc
   b8460:	000b8369 	.word	0x000b8369

000b8464 <_Z26call_raw_interrupt_handlerPv>:
}

void call_raw_interrupt_handler(void* data)
{
    raw_interrupt_handler_t handler = raw_interrupt_handler_t(data);
    handler();
   b8464:	4700      	bx	r0
	...

000b8468 <_Z15attachInterrupttPFvvE13InterruptModeah>:
    }
    return handler!=NULL;
}

bool attachInterrupt(uint16_t pin, raw_interrupt_handler_t handler, InterruptMode mode, int8_t priority, uint8_t subpriority)
{
   b8468:	e92d 41ff 	stmdb	sp!, {r0, r1, r2, r3, r4, r5, r6, r7, r8, lr}
    HAL_Interrupts_Detach(pin);
    HAL_InterruptExtraConfiguration extra = {};
   b846c:	2400      	movs	r4, #0
{
   b846e:	461d      	mov	r5, r3
   b8470:	460f      	mov	r7, r1
   b8472:	4690      	mov	r8, r2
   b8474:	4606      	mov	r6, r0
    HAL_Interrupts_Detach(pin);
   b8476:	f7fd f80d 	bl	b5494 <HAL_Interrupts_Detach>
  if (priority >= 0) {
   b847a:	42a5      	cmp	r5, r4
  extra.version = HAL_INTERRUPT_EXTRA_CONFIGURATION_VERSION_1;
   b847c:	f04f 0304 	mov.w	r3, #4
    HAL_InterruptExtraConfiguration extra = {};
   b8480:	f8ad 400d 	strh.w	r4, [sp, #13]
  extra.version = HAL_INTERRUPT_EXTRA_CONFIGURATION_VERSION_1;
   b8484:	f88d 300c 	strb.w	r3, [sp, #12]
    HAL_InterruptExtraConfiguration extra = {};
   b8488:	f88d 400f 	strb.w	r4, [sp, #15]
    extra.IRQChannelSubPriority = subpriority;
   b848c:	bfa2      	ittt	ge
   b848e:	f89d 3028 	ldrbge.w	r3, [sp, #40]	; 0x28
   b8492:	f88d 300e 	strbge.w	r3, [sp, #14]
    return &extra;
   b8496:	ac03      	addge	r4, sp, #12
    if (SYSTEM_ERROR_NONE != HAL_Interrupts_Attach(pin, call_raw_interrupt_handler, (void*)handler, mode, configure_interrupt(extra, priority, subpriority))) {
   b8498:	4907      	ldr	r1, [pc, #28]	; (b84b8 <_Z15attachInterrupttPFvvE13InterruptModeah+0x50>)
   b849a:	9400      	str	r4, [sp, #0]
   b849c:	4643      	mov	r3, r8
   b849e:	463a      	mov	r2, r7
   b84a0:	4630      	mov	r0, r6
    extra.IRQChannelPreemptionPriority = (uint8_t)priority;
   b84a2:	bfa8      	it	ge
   b84a4:	f88d 500d 	strbge.w	r5, [sp, #13]
    if (SYSTEM_ERROR_NONE != HAL_Interrupts_Attach(pin, call_raw_interrupt_handler, (void*)handler, mode, configure_interrupt(extra, priority, subpriority))) {
   b84a8:	f7fc ffec 	bl	b5484 <HAL_Interrupts_Attach>
        return false;
    }
    return true;
}
   b84ac:	fab0 f080 	clz	r0, r0
   b84b0:	0940      	lsrs	r0, r0, #5
   b84b2:	b004      	add	sp, #16
   b84b4:	e8bd 81f0 	ldmia.w	sp!, {r4, r5, r6, r7, r8, pc}
   b84b8:	000b8465 	.word	0x000b8465

000b84bc <_ZN11USARTSerialD1Ev>:
private:
  hal_usart_interface_t _serial;
  bool _blocking;
public:
  USARTSerial(hal_usart_interface_t serial, const hal_usart_buffer_config_t& config);
  virtual ~USARTSerial() {};
   b84bc:	4770      	bx	lr

000b84be <_ZN11USARTSerial14blockOnOverrunEb>:
    hal_usart_half_duplex(_serial, Enable);
}

void USARTSerial::blockOnOverrun(bool block)
{
  _blocking = block;
   b84be:	7441      	strb	r1, [r0, #17]
}
   b84c0:	4770      	bx	lr

000b84c2 <_ZN11USARTSerial17availableForWriteEv>:


int USARTSerial::availableForWrite(void)
{
   b84c2:	b508      	push	{r3, lr}
  return std::max(0, (int)hal_usart_available_data_for_write(_serial));
   b84c4:	7c00      	ldrb	r0, [r0, #16]
   b84c6:	f7fd f93f 	bl	b5748 <hal_usart_available_data_for_write>
}
   b84ca:	ea20 70e0 	bic.w	r0, r0, r0, asr #31
   b84ce:	bd08      	pop	{r3, pc}

000b84d0 <_ZN11USARTSerial9availableEv>:

int USARTSerial::available(void)
{
   b84d0:	b508      	push	{r3, lr}
  return std::max(0, (int)hal_usart_available(_serial));
   b84d2:	7c00      	ldrb	r0, [r0, #16]
   b84d4:	f7fd f910 	bl	b56f8 <hal_usart_available>
}
   b84d8:	ea20 70e0 	bic.w	r0, r0, r0, asr #31
   b84dc:	bd08      	pop	{r3, pc}

000b84de <_ZN11USARTSerial4peekEv>:

int USARTSerial::peek(void)
{
   b84de:	b508      	push	{r3, lr}
  return std::max(-1, (int)hal_usart_peek(_serial));
   b84e0:	7c00      	ldrb	r0, [r0, #16]
   b84e2:	f7fd f919 	bl	b5718 <hal_usart_peek>
}
   b84e6:	ea40 70e0 	orr.w	r0, r0, r0, asr #31
   b84ea:	bd08      	pop	{r3, pc}

000b84ec <_ZN11USARTSerial4readEv>:

int USARTSerial::read(void)
{
   b84ec:	b508      	push	{r3, lr}
  return std::max(-1, (int)hal_usart_read(_serial));
   b84ee:	7c00      	ldrb	r0, [r0, #16]
   b84f0:	f7fd f90a 	bl	b5708 <hal_usart_read>
}
   b84f4:	ea40 70e0 	orr.w	r0, r0, r0, asr #31
   b84f8:	bd08      	pop	{r3, pc}

000b84fa <_ZN11USARTSerial5flushEv>:

void USARTSerial::flush()
{
  hal_usart_flush(_serial);
   b84fa:	7c00      	ldrb	r0, [r0, #16]
   b84fc:	f7fd b914 	b.w	b5728 <hal_usart_flush>

000b8500 <_ZN11USARTSerial5writeEh>:
}

size_t USARTSerial::write(uint8_t c)
{
   b8500:	b537      	push	{r0, r1, r2, r4, r5, lr}
  // attempt a write if blocking, or for non-blocking if there is room.
  if (_blocking || hal_usart_available_data_for_write(_serial) > 0) {
   b8502:	7c45      	ldrb	r5, [r0, #17]
{
   b8504:	4604      	mov	r4, r0
  if (_blocking || hal_usart_available_data_for_write(_serial) > 0) {
   b8506:	b12d      	cbz	r5, b8514 <_ZN11USARTSerial5writeEh+0x14>
    // the HAL always blocks.
	  return hal_usart_write(_serial, c);
   b8508:	7c20      	ldrb	r0, [r4, #16]
  }
  return 0;
}
   b850a:	b003      	add	sp, #12
   b850c:	e8bd 4030 	ldmia.w	sp!, {r4, r5, lr}
	  return hal_usart_write(_serial, c);
   b8510:	f7fd b8ea 	b.w	b56e8 <hal_usart_write>
  if (_blocking || hal_usart_available_data_for_write(_serial) > 0) {
   b8514:	7c00      	ldrb	r0, [r0, #16]
   b8516:	9101      	str	r1, [sp, #4]
   b8518:	f7fd f916 	bl	b5748 <hal_usart_available_data_for_write>
   b851c:	2800      	cmp	r0, #0
   b851e:	9901      	ldr	r1, [sp, #4]
   b8520:	dcf2      	bgt.n	b8508 <_ZN11USARTSerial5writeEh+0x8>
}
   b8522:	4628      	mov	r0, r5
   b8524:	b003      	add	sp, #12
   b8526:	bd30      	pop	{r4, r5, pc}

000b8528 <_ZN11USARTSerialD0Ev>:
   b8528:	b510      	push	{r4, lr}
   b852a:	2114      	movs	r1, #20
   b852c:	4604      	mov	r4, r0
   b852e:	f7fb fdb6 	bl	b409e <_ZdlPvj>
   b8532:	4620      	mov	r0, r4
   b8534:	bd10      	pop	{r4, pc}
	...

000b8538 <_ZN11USARTSerialC1E21hal_usart_interface_tRK25hal_usart_buffer_config_t>:
USARTSerial::USARTSerial(hal_usart_interface_t serial, const hal_usart_buffer_config_t& config)
   b8538:	b510      	push	{r4, lr}
   b853a:	f44f 737a 	mov.w	r3, #1000	; 0x3e8
   b853e:	4604      	mov	r4, r0
   b8540:	4608      	mov	r0, r1
   b8542:	4611      	mov	r1, r2
   b8544:	2200      	movs	r2, #0
   b8546:	e9c4 2301 	strd	r2, r3, [r4, #4]
   b854a:	4b04      	ldr	r3, [pc, #16]	; (b855c <_ZN11USARTSerialC1E21hal_usart_interface_tRK25hal_usart_buffer_config_t+0x24>)
   b854c:	6023      	str	r3, [r4, #0]
  _blocking = true;
   b854e:	2301      	movs	r3, #1
  _serial = serial;
   b8550:	7420      	strb	r0, [r4, #16]
  _blocking = true;
   b8552:	7463      	strb	r3, [r4, #17]
  hal_usart_init_ex(serial, &config, nullptr);
   b8554:	f7fd f900 	bl	b5758 <hal_usart_init_ex>
}
   b8558:	4620      	mov	r0, r4
   b855a:	bd10      	pop	{r4, pc}
   b855c:	000bc108 	.word	0x000bc108

000b8560 <_ZN8particle6detail21futureCallbackWrapperEPv>:
 * License along with this library; if not, see <http://www.gnu.org/licenses/>.
 */

#include "spark_wiring_async.h"

void particle::detail::futureCallbackWrapper(void* data) {
   b8560:	b510      	push	{r4, lr}
      if (_M_empty())
   b8562:	6883      	ldr	r3, [r0, #8]
   b8564:	4604      	mov	r4, r0
   b8566:	b90b      	cbnz	r3, b856c <_ZN8particle6detail21futureCallbackWrapperEPv+0xc>
	__throw_bad_function_call();
   b8568:	f000 fad8 	bl	b8b1c <_ZSt25__throw_bad_function_callv>
      return _M_invoker(_M_functor, std::forward<_ArgTypes>(__args)...);
   b856c:	68c3      	ldr	r3, [r0, #12]
   b856e:	4798      	blx	r3
      if (_M_manager)
   b8570:	68a3      	ldr	r3, [r4, #8]
   b8572:	b11b      	cbz	r3, b857c <_ZN8particle6detail21futureCallbackWrapperEPv+0x1c>
	_M_manager(_M_functor, _M_functor, __destroy_functor);
   b8574:	2203      	movs	r2, #3
   b8576:	4621      	mov	r1, r4
   b8578:	4620      	mov	r0, r4
   b857a:	4798      	blx	r3
    auto callbackPtr = static_cast<const std::function<void()>*>(data);
    (*callbackPtr)();
    delete callbackPtr;
   b857c:	4620      	mov	r0, r4
   b857e:	2110      	movs	r1, #16
}
   b8580:	e8bd 4010 	ldmia.w	sp!, {r4, lr}
    delete callbackPtr;
   b8584:	f7fb bd8b 	b.w	b409e <_ZdlPvj>

000b8588 <_ZN7TwoWireD1Ev>:
private:
  hal_i2c_interface_t _i2c;

public:
  TwoWire(hal_i2c_interface_t i2c, const hal_i2c_config_t& config);
  virtual ~TwoWire() {};
   b8588:	4770      	bx	lr

000b858a <_ZN7TwoWire5writeEPKhj>:

// must be called in:
// slave tx event callback
// or after beginTransmission(address)
size_t TwoWire::write(const uint8_t *data, size_t quantity)
{
   b858a:	b5f8      	push	{r3, r4, r5, r6, r7, lr}
   b858c:	4606      	mov	r6, r0
   b858e:	4615      	mov	r5, r2
   b8590:	460c      	mov	r4, r1
   b8592:	188f      	adds	r7, r1, r2
  // in master/slave transmitter mode
  for(size_t i = 0; i < quantity; ++i)
   b8594:	42bc      	cmp	r4, r7
   b8596:	d006      	beq.n	b85a6 <_ZN7TwoWire5writeEPKhj+0x1c>
  {
    write(data[i]);
   b8598:	6833      	ldr	r3, [r6, #0]
   b859a:	f814 1b01 	ldrb.w	r1, [r4], #1
   b859e:	689b      	ldr	r3, [r3, #8]
   b85a0:	4630      	mov	r0, r6
   b85a2:	4798      	blx	r3
  for(size_t i = 0; i < quantity; ++i)
   b85a4:	e7f6      	b.n	b8594 <_ZN7TwoWire5writeEPKhj+0xa>
  }

  return quantity;
}
   b85a6:	4628      	mov	r0, r5
   b85a8:	bdf8      	pop	{r3, r4, r5, r6, r7, pc}

000b85aa <_ZN7TwoWire5writeEh>:
  return hal_i2c_write(_i2c, data, NULL);
   b85aa:	7c00      	ldrb	r0, [r0, #16]
   b85ac:	2200      	movs	r2, #0
   b85ae:	f7fd b8db 	b.w	b5768 <hal_i2c_write>

000b85b2 <_ZN7TwoWire9availableEv>:
// must be called in:
// slave rx event callback
// or after requestFrom(address, numBytes)
int TwoWire::available(void)
{
  return hal_i2c_available(_i2c, NULL);
   b85b2:	7c00      	ldrb	r0, [r0, #16]
   b85b4:	2100      	movs	r1, #0
   b85b6:	f7fd b8df 	b.w	b5778 <hal_i2c_available>

000b85ba <_ZN7TwoWire4readEv>:
// must be called in:
// slave rx event callback
// or after requestFrom(address, numBytes)
int TwoWire::read(void)
{
  return hal_i2c_read(_i2c, NULL);
   b85ba:	7c00      	ldrb	r0, [r0, #16]
   b85bc:	2100      	movs	r1, #0
   b85be:	f7fd b8e3 	b.w	b5788 <hal_i2c_read>

000b85c2 <_ZN7TwoWire4peekEv>:
// must be called in:
// slave rx event callback
// or after requestFrom(address, numBytes)
int TwoWire::peek(void)
{
  return hal_i2c_peek(_i2c, NULL);
   b85c2:	7c00      	ldrb	r0, [r0, #16]
   b85c4:	2100      	movs	r1, #0
   b85c6:	f7fd b8e7 	b.w	b5798 <hal_i2c_peek>

000b85ca <_ZN7TwoWire5flushEv>:
}

void TwoWire::flush(void)
{
  hal_i2c_flush(_i2c, NULL);
   b85ca:	7c00      	ldrb	r0, [r0, #16]
   b85cc:	2100      	movs	r1, #0
   b85ce:	f7fd b8eb 	b.w	b57a8 <hal_i2c_flush>

000b85d2 <_ZN7TwoWireD0Ev>:
   b85d2:	b510      	push	{r4, lr}
   b85d4:	2114      	movs	r1, #20
   b85d6:	4604      	mov	r4, r0
   b85d8:	f7fb fd61 	bl	b409e <_ZdlPvj>
   b85dc:	4620      	mov	r0, r4
   b85de:	bd10      	pop	{r4, pc}

000b85e0 <_ZN7TwoWireC1E19hal_i2c_interface_tRK16hal_i2c_config_t>:
TwoWire::TwoWire(hal_i2c_interface_t i2c, const hal_i2c_config_t& conf)
   b85e0:	b538      	push	{r3, r4, r5, lr}
   b85e2:	4604      	mov	r4, r0
   b85e4:	4615      	mov	r5, r2
   b85e6:	f44f 737a 	mov.w	r3, #1000	; 0x3e8
   b85ea:	2200      	movs	r2, #0
   b85ec:	e9c4 2301 	strd	r2, r3, [r4, #4]
   b85f0:	4b09      	ldr	r3, [pc, #36]	; (b8618 <_ZN7TwoWireC1E19hal_i2c_interface_tRK16hal_i2c_config_t+0x38>)
  _i2c = i2c;
   b85f2:	7421      	strb	r1, [r4, #16]
TwoWire::TwoWire(hal_i2c_interface_t i2c, const hal_i2c_config_t& conf)
   b85f4:	4608      	mov	r0, r1
   b85f6:	6023      	str	r3, [r4, #0]
  int result = hal_i2c_init(_i2c, &conf);
   b85f8:	4629      	mov	r1, r5
   b85fa:	f7fd f8e5 	bl	b57c8 <hal_i2c_init>
  if (result == SYSTEM_ERROR_NOT_ENOUGH_DATA && 
   b85fe:	30bf      	adds	r0, #191	; 0xbf
   b8600:	d108      	bne.n	b8614 <_ZN7TwoWireC1E19hal_i2c_interface_tRK16hal_i2c_config_t+0x34>
      (conf.flags & HAL_I2C_CONFIG_FLAG_FREEABLE)) {
   b8602:	696b      	ldr	r3, [r5, #20]
  if (result == SYSTEM_ERROR_NOT_ENOUGH_DATA && 
   b8604:	07db      	lsls	r3, r3, #31
   b8606:	d505      	bpl.n	b8614 <_ZN7TwoWireC1E19hal_i2c_interface_tRK16hal_i2c_config_t+0x34>
    free(conf.rx_buffer);
   b8608:	6868      	ldr	r0, [r5, #4]
   b860a:	f7fd fa51 	bl	b5ab0 <free>
    free(conf.tx_buffer);
   b860e:	68e8      	ldr	r0, [r5, #12]
   b8610:	f7fd fa4e 	bl	b5ab0 <free>
}
   b8614:	4620      	mov	r0, r4
   b8616:	bd38      	pop	{r3, r4, r5, pc}
   b8618:	000bc138 	.word	0x000bc138

000b861c <_ZN10WiFiSignalD1Ev>:
    int rssi = 2;
    int qual = 0;

    WiFiSignal() {}
    WiFiSignal(const wlan_connected_info_t& inf);
    virtual ~WiFiSignal() {};
   b861c:	4770      	bx	lr

000b861e <_ZNK10WiFiSignal19getAccessTechnologyEv>:
    return true;
}

hal_net_access_tech_t WiFiSignal::getAccessTechnology() const {
    return NET_ACCESS_TECHNOLOGY_WIFI;
}
   b861e:	2001      	movs	r0, #1
   b8620:	4770      	bx	lr

000b8622 <_ZN5spark9WiFiClass5readyEv>:
    bool connecting(void) {
        return network_connecting(*this, 0, NULL);
    }

    bool ready(void) {
        return network_ready(*this, 0, NULL);
   b8622:	2200      	movs	r2, #0
   b8624:	6840      	ldr	r0, [r0, #4]
   b8626:	4611      	mov	r1, r2
   b8628:	f7fd b9c2 	b.w	b59b0 <network_ready>

000b862c <_ZN10WiFiSignalD0Ev>:
    virtual ~WiFiSignal() {};
   b862c:	b510      	push	{r4, lr}
   b862e:	2124      	movs	r1, #36	; 0x24
   b8630:	4604      	mov	r4, r0
   b8632:	f7fb fd34 	bl	b409e <_ZdlPvj>
   b8636:	4620      	mov	r0, r4
   b8638:	bd10      	pop	{r4, pc}

000b863a <_ZN5spark9WiFiClass9listeningEv>:
    uint16_t getListenTimeout(void) {
        return network_get_listen_timeout(*this, 0, NULL);
    }

    bool listening(void) {
        return network_listening(*this, 0, NULL);
   b863a:	2200      	movs	r2, #0
   b863c:	6840      	ldr	r0, [r0, #4]
   b863e:	4611      	mov	r1, r2
   b8640:	f7fd b9d6 	b.w	b59f0 <network_listening>

000b8644 <_ZN5spark9WiFiClass16getListenTimeoutEv>:
        return network_get_listen_timeout(*this, 0, NULL);
   b8644:	2200      	movs	r2, #0
   b8646:	6840      	ldr	r0, [r0, #4]
   b8648:	4611      	mov	r1, r2
   b864a:	f7fd b9e1 	b.w	b5a10 <network_get_listen_timeout>

000b864e <_ZN5spark9WiFiClass16setListenTimeoutEt>:
        network_set_listen_timeout(*this, timeout, NULL);
   b864e:	6840      	ldr	r0, [r0, #4]
   b8650:	2200      	movs	r2, #0
   b8652:	f7fd b9d5 	b.w	b5a00 <network_set_listen_timeout>

000b8656 <_ZN5spark9WiFiClass6listenEb>:
        network_listen(*this, begin ? 0 : 1, NULL);
   b8656:	6840      	ldr	r0, [r0, #4]
   b8658:	2200      	movs	r2, #0
   b865a:	f081 0101 	eor.w	r1, r1, #1
   b865e:	f7fd b9bf 	b.w	b59e0 <network_listen>

000b8662 <_ZN5spark9WiFiClass3offEv>:
        network_off(*this, 0, 0, NULL);
   b8662:	2300      	movs	r3, #0
   b8664:	6840      	ldr	r0, [r0, #4]
   b8666:	461a      	mov	r2, r3
   b8668:	4619      	mov	r1, r3
   b866a:	f7fd b9b1 	b.w	b59d0 <network_off>

000b866e <_ZN5spark9WiFiClass2onEv>:
        network_on(*this, 0, 0, NULL);
   b866e:	2300      	movs	r3, #0
   b8670:	6840      	ldr	r0, [r0, #4]
   b8672:	461a      	mov	r2, r3
   b8674:	4619      	mov	r1, r3
   b8676:	f7fd b9a3 	b.w	b59c0 <network_on>

000b867a <_ZN5spark9WiFiClass10connectingEv>:
        return network_connecting(*this, 0, NULL);
   b867a:	2200      	movs	r2, #0
   b867c:	6840      	ldr	r0, [r0, #4]
   b867e:	4611      	mov	r1, r2
   b8680:	f7fd b986 	b.w	b5990 <network_connecting>

000b8684 <_ZN5spark9WiFiClass10disconnectEv>:
        network_disconnect(*this, NETWORK_DISCONNECT_REASON_USER, NULL);
   b8684:	6840      	ldr	r0, [r0, #4]
   b8686:	2200      	movs	r2, #0
   b8688:	2102      	movs	r1, #2
   b868a:	f7fd b989 	b.w	b59a0 <network_disconnect>

000b868e <_ZN5spark9WiFiClass7connectEj>:
        network_connect(*this, flags, 0, NULL);
   b868e:	2300      	movs	r3, #0
   b8690:	6840      	ldr	r0, [r0, #4]
   b8692:	461a      	mov	r2, r3
   b8694:	f7fd b974 	b.w	b5980 <network_connect>

000b8698 <_ZNK10WiFiSignal11getStrengthEv>:

float WiFiSignal::getStrength() const {
    if (inf_.size != 0 && inf_.strength >= 0) {
   b8698:	8983      	ldrh	r3, [r0, #12]
   b869a:	b17b      	cbz	r3, b86bc <_ZNK10WiFiSignal11getStrengthEv+0x24>
   b869c:	6943      	ldr	r3, [r0, #20]
   b869e:	2b00      	cmp	r3, #0
   b86a0:	db0c      	blt.n	b86bc <_ZNK10WiFiSignal11getStrengthEv+0x24>
        return inf_.strength / 65535.0f * 100.0f;
   b86a2:	ee07 3a90 	vmov	s15, r3
   b86a6:	ed9f 7a07 	vldr	s14, [pc, #28]	; b86c4 <_ZNK10WiFiSignal11getStrengthEv+0x2c>
   b86aa:	eef8 7ae7 	vcvt.f32.s32	s15, s15
   b86ae:	ee87 0a87 	vdiv.f32	s0, s15, s14
   b86b2:	eddf 7a05 	vldr	s15, [pc, #20]	; b86c8 <_ZNK10WiFiSignal11getStrengthEv+0x30>
   b86b6:	ee20 0a27 	vmul.f32	s0, s0, s15
   b86ba:	4770      	bx	lr
    }
    return -1.0f;
   b86bc:	eebf 0a00 	vmov.f32	s0, #240	; 0xbf800000 -1.0
}
   b86c0:	4770      	bx	lr
   b86c2:	bf00      	nop
   b86c4:	477fff00 	.word	0x477fff00
   b86c8:	42c80000 	.word	0x42c80000

000b86cc <_ZNK10WiFiSignal16getStrengthValueEv>:

float WiFiSignal::getStrengthValue() const {
    if (inf_.size != 0 && inf_.rssi != std::numeric_limits<int32_t>::min()) {
   b86cc:	8983      	ldrh	r3, [r0, #12]
   b86ce:	b163      	cbz	r3, b86ea <_ZNK10WiFiSignal16getStrengthValueEv+0x1e>
   b86d0:	6903      	ldr	r3, [r0, #16]
   b86d2:	f1b3 4f00 	cmp.w	r3, #2147483648	; 0x80000000
   b86d6:	d008      	beq.n	b86ea <_ZNK10WiFiSignal16getStrengthValueEv+0x1e>
        return inf_.rssi / 100.0f;
   b86d8:	ee07 3a90 	vmov	s15, r3
   b86dc:	ed9f 7a04 	vldr	s14, [pc, #16]	; b86f0 <_ZNK10WiFiSignal16getStrengthValueEv+0x24>
   b86e0:	eef8 7ae7 	vcvt.f32.s32	s15, s15
   b86e4:	ee87 0a87 	vdiv.f32	s0, s15, s14
   b86e8:	4770      	bx	lr
    }
    return 0.0f;
   b86ea:	ed9f 0a02 	vldr	s0, [pc, #8]	; b86f4 <_ZNK10WiFiSignal16getStrengthValueEv+0x28>
}
   b86ee:	4770      	bx	lr
   b86f0:	42c80000 	.word	0x42c80000
   b86f4:	00000000 	.word	0x00000000

000b86f8 <_ZNK10WiFiSignal10getQualityEv>:

float WiFiSignal::getQuality() const {
    if (inf_.size != 0 && inf_.quality >= 0) {
   b86f8:	8983      	ldrh	r3, [r0, #12]
   b86fa:	b17b      	cbz	r3, b871c <_ZNK10WiFiSignal10getQualityEv+0x24>
   b86fc:	6a03      	ldr	r3, [r0, #32]
   b86fe:	2b00      	cmp	r3, #0
   b8700:	db0c      	blt.n	b871c <_ZNK10WiFiSignal10getQualityEv+0x24>
        return inf_.quality / 65535.0f * 100.0f;
   b8702:	ee07 3a90 	vmov	s15, r3
   b8706:	ed9f 7a07 	vldr	s14, [pc, #28]	; b8724 <_ZNK10WiFiSignal10getQualityEv+0x2c>
   b870a:	eef8 7ae7 	vcvt.f32.s32	s15, s15
   b870e:	ee87 0a87 	vdiv.f32	s0, s15, s14
   b8712:	eddf 7a05 	vldr	s15, [pc, #20]	; b8728 <_ZNK10WiFiSignal10getQualityEv+0x30>
   b8716:	ee20 0a27 	vmul.f32	s0, s0, s15
   b871a:	4770      	bx	lr
    }
    return -1.0f;
   b871c:	eebf 0a00 	vmov.f32	s0, #240	; 0xbf800000 -1.0
}
   b8720:	4770      	bx	lr
   b8722:	bf00      	nop
   b8724:	477fff00 	.word	0x477fff00
   b8728:	42c80000 	.word	0x42c80000

000b872c <_ZNK10WiFiSignal15getQualityValueEv>:

float WiFiSignal::getQualityValue() const {
    if (inf_.size != 0 && inf_.snr != std::numeric_limits<int32_t>::min()) {
   b872c:	8983      	ldrh	r3, [r0, #12]
   b872e:	b163      	cbz	r3, b874a <_ZNK10WiFiSignal15getQualityValueEv+0x1e>
   b8730:	6983      	ldr	r3, [r0, #24]
   b8732:	f1b3 4f00 	cmp.w	r3, #2147483648	; 0x80000000
   b8736:	d008      	beq.n	b874a <_ZNK10WiFiSignal15getQualityValueEv+0x1e>
        return inf_.snr / 100.0f;
   b8738:	ee07 3a90 	vmov	s15, r3
   b873c:	ed9f 7a04 	vldr	s14, [pc, #16]	; b8750 <_ZNK10WiFiSignal15getQualityValueEv+0x24>
   b8740:	eef8 7ae7 	vcvt.f32.s32	s15, s15
   b8744:	ee87 0a87 	vdiv.f32	s0, s15, s14
   b8748:	4770      	bx	lr
    }
    return 0.0f;
   b874a:	ed9f 0a02 	vldr	s0, [pc, #8]	; b8754 <_ZNK10WiFiSignal15getQualityValueEv+0x28>
}
   b874e:	4770      	bx	lr
   b8750:	42c80000 	.word	0x42c80000
   b8754:	00000000 	.word	0x00000000

000b8758 <_ZNK10WiFiSignalcvaEv>:
}
   b8758:	f990 0004 	ldrsb.w	r0, [r0, #4]
   b875c:	4770      	bx	lr

000b875e <_ZN10WiFiSignal17fromConnectedInfoERK21wlan_connected_info_t>:
bool WiFiSignal::fromConnectedInfo(const wlan_connected_info_t& inf) {
   b875e:	b570      	push	{r4, r5, r6, lr}
    inf_ = inf;
   b8760:	460c      	mov	r4, r1
bool WiFiSignal::fromConnectedInfo(const wlan_connected_info_t& inf) {
   b8762:	4606      	mov	r6, r0
    inf_ = inf;
   b8764:	f100 050c 	add.w	r5, r0, #12
   b8768:	cc0f      	ldmia	r4!, {r0, r1, r2, r3}
   b876a:	c50f      	stmia	r5!, {r0, r1, r2, r3}
   b876c:	e894 0003 	ldmia.w	r4, {r0, r1}
   b8770:	e885 0003 	stmia.w	r5, {r0, r1}
    this->rssi = inf_.rssi != std::numeric_limits<int32_t>::min() ? inf_.rssi / 100 : 2;
   b8774:	6933      	ldr	r3, [r6, #16]
   b8776:	f1b3 4f00 	cmp.w	r3, #2147483648	; 0x80000000
   b877a:	bf0e      	itee	eq
   b877c:	2302      	moveq	r3, #2
   b877e:	2264      	movne	r2, #100	; 0x64
   b8780:	fb93 f3f2 	sdivne	r3, r3, r2
   b8784:	6073      	str	r3, [r6, #4]
    this->qual = inf_.snr != std::numeric_limits<int32_t>::min() ? inf_.snr / 100 : 0;
   b8786:	69b3      	ldr	r3, [r6, #24]
   b8788:	f1b3 4f00 	cmp.w	r3, #2147483648	; 0x80000000
   b878c:	bf0c      	ite	eq
   b878e:	2300      	moveq	r3, #0
   b8790:	2264      	movne	r2, #100	; 0x64
}
   b8792:	f04f 0001 	mov.w	r0, #1
    this->qual = inf_.snr != std::numeric_limits<int32_t>::min() ? inf_.snr / 100 : 0;
   b8796:	bf18      	it	ne
   b8798:	fb93 f3f2 	sdivne	r3, r3, r2
   b879c:	60b3      	str	r3, [r6, #8]
}
   b879e:	bd70      	pop	{r4, r5, r6, pc}

000b87a0 <_ZN5spark9WiFiClass4RSSIEv>:
    int WiFiClass::getCredentials(WiFiAccessPoint* results, size_t result_count) {
        APList apList(results, result_count);
        return apList.start();
    }

    WiFiSignal WiFiClass::RSSI() {
   b87a0:	e92d 41f0 	stmdb	sp!, {r4, r5, r6, r7, r8, lr}
    WiFiSignal() {}
   b87a4:	4b16      	ldr	r3, [pc, #88]	; (b8800 <_ZN5spark9WiFiClass4RSSIEv+0x60>)
   b87a6:	6003      	str	r3, [r0, #0]
   b87a8:	2500      	movs	r5, #0
   b87aa:	460f      	mov	r7, r1
   b87ac:	f04f 0802 	mov.w	r8, #2
   b87b0:	2618      	movs	r6, #24
   b87b2:	e9c0 8501 	strd	r8, r5, [r0, #4]
   b87b6:	b086      	sub	sp, #24
   b87b8:	4632      	mov	r2, r6
   b87ba:	4629      	mov	r1, r5
   b87bc:	4604      	mov	r4, r0
   b87be:	300c      	adds	r0, #12
   b87c0:	f000 ffcf 	bl	b9762 <memset>
        WiFiSignal sig;
        if (!network_ready(*this, 0, NULL)) {
   b87c4:	6878      	ldr	r0, [r7, #4]
   b87c6:	462a      	mov	r2, r5
   b87c8:	4629      	mov	r1, r5
   b87ca:	f7fd f8f1 	bl	b59b0 <network_ready>
   b87ce:	b180      	cbz	r0, b87f2 <_ZN5spark9WiFiClass4RSSIEv+0x52>
            return sig;
        }

        wlan_connected_info_t info = {};
   b87d0:	4632      	mov	r2, r6
   b87d2:	4629      	mov	r1, r5
   b87d4:	4668      	mov	r0, sp
   b87d6:	f000 ffc4 	bl	b9762 <memset>
        info.size = sizeof(info);
        int r = wlan_connected_info(nullptr, &info, nullptr);
   b87da:	462a      	mov	r2, r5
   b87dc:	4669      	mov	r1, sp
   b87de:	4628      	mov	r0, r5
        info.size = sizeof(info);
   b87e0:	f8ad 6000 	strh.w	r6, [sp]
        int r = wlan_connected_info(nullptr, &info, nullptr);
   b87e4:	f7fd f868 	bl	b58b8 <wlan_connected_info>
        if (r == 0) {
   b87e8:	b938      	cbnz	r0, b87fa <_ZN5spark9WiFiClass4RSSIEv+0x5a>
            sig.fromConnectedInfo(info);
   b87ea:	4669      	mov	r1, sp
   b87ec:	4620      	mov	r0, r4
   b87ee:	f7ff ffb6 	bl	b875e <_ZN10WiFiSignal17fromConnectedInfoERK21wlan_connected_info_t>
            return sig;
        }

        sig.rssi = 2;
        return sig;
    }
   b87f2:	4620      	mov	r0, r4
   b87f4:	b006      	add	sp, #24
   b87f6:	e8bd 81f0 	ldmia.w	sp!, {r4, r5, r6, r7, r8, pc}
        sig.rssi = 2;
   b87fa:	f8c4 8004 	str.w	r8, [r4, #4]
        return sig;
   b87fe:	e7f8      	b.n	b87f2 <_ZN5spark9WiFiClass4RSSIEv+0x52>
   b8800:	000bc19c 	.word	0x000bc19c

000b8804 <_GLOBAL__sub_I__ZN10WiFiSignalC2ERK21wlan_connected_info_t>:
   b8804:	4b02      	ldr	r3, [pc, #8]	; (b8810 <_GLOBAL__sub_I__ZN10WiFiSignalC2ERK21wlan_connected_info_t+0xc>)
   b8806:	2204      	movs	r2, #4
   b8808:	605a      	str	r2, [r3, #4]
            NetworkClass(NETWORK_INTERFACE_WIFI_STA) {
   b880a:	4a02      	ldr	r2, [pc, #8]	; (b8814 <_GLOBAL__sub_I__ZN10WiFiSignalC2ERK21wlan_connected_info_t+0x10>)
   b880c:	601a      	str	r2, [r3, #0]
the same way.
*****************************************************************************/

    WiFiClass WiFi;
    // NetworkClass& Network = WiFi;
}
   b880e:	4770      	bx	lr
   b8810:	2003e710 	.word	0x2003e710
   b8814:	000bc160 	.word	0x000bc160

000b8818 <_ZN5spark12NetworkClass7connectEj>:
        return Network;
    }
}

void NetworkClass::connect(unsigned flags) {
    network_connect(*this, flags, 0, nullptr);
   b8818:	2300      	movs	r3, #0
   b881a:	6840      	ldr	r0, [r0, #4]
   b881c:	461a      	mov	r2, r3
   b881e:	f7fd b8af 	b.w	b5980 <network_connect>

000b8822 <_ZN5spark12NetworkClass10disconnectEv>:
}

void NetworkClass::disconnect() {
    network_disconnect(*this, NETWORK_DISCONNECT_REASON_USER, nullptr);
   b8822:	6840      	ldr	r0, [r0, #4]
   b8824:	2200      	movs	r2, #0
   b8826:	2102      	movs	r1, #2
   b8828:	f7fd b8ba 	b.w	b59a0 <network_disconnect>

000b882c <_ZN5spark12NetworkClass10connectingEv>:
}

bool NetworkClass::connecting() {
    return network_connecting(*this, 0, nullptr);
   b882c:	2200      	movs	r2, #0
   b882e:	6840      	ldr	r0, [r0, #4]
   b8830:	4611      	mov	r1, r2
   b8832:	f7fd b8ad 	b.w	b5990 <network_connecting>

000b8836 <_ZN5spark12NetworkClass5readyEv>:
}

bool NetworkClass::ready() {
    return network_ready(*this, 0, nullptr);
   b8836:	2200      	movs	r2, #0
   b8838:	6840      	ldr	r0, [r0, #4]
   b883a:	4611      	mov	r1, r2
   b883c:	f7fd b8b8 	b.w	b59b0 <network_ready>

000b8840 <_ZN5spark12NetworkClass2onEv>:
}

void NetworkClass::on() {
    network_on(*this, 0, 0, nullptr);
   b8840:	2300      	movs	r3, #0
   b8842:	6840      	ldr	r0, [r0, #4]
   b8844:	461a      	mov	r2, r3
   b8846:	4619      	mov	r1, r3
   b8848:	f7fd b8ba 	b.w	b59c0 <network_on>

000b884c <_ZN5spark12NetworkClass3offEv>:
}

void NetworkClass::off() {
    network_off(*this, 0, 0, nullptr);
   b884c:	2300      	movs	r3, #0
   b884e:	6840      	ldr	r0, [r0, #4]
   b8850:	461a      	mov	r2, r3
   b8852:	4619      	mov	r1, r3
   b8854:	f7fd b8bc 	b.w	b59d0 <network_off>

000b8858 <_ZN5spark12NetworkClass4isOnEv>:
}

bool NetworkClass::isOn() {
    return network_is_on(*this, nullptr);
   b8858:	6840      	ldr	r0, [r0, #4]
   b885a:	2100      	movs	r1, #0
   b885c:	f7fd b8e0 	b.w	b5a20 <network_is_on>

000b8860 <_ZN5spark12NetworkClass5isOffEv>:
}

bool NetworkClass::isOff() {
    return network_is_off(*this, nullptr);
   b8860:	6840      	ldr	r0, [r0, #4]
   b8862:	2100      	movs	r1, #0
   b8864:	f7fd b8e4 	b.w	b5a30 <network_is_off>

000b8868 <_ZN5spark12NetworkClass6listenEb>:
}

void NetworkClass::listen(bool begin) {
    network_listen(*this, begin ? 0 : 1, nullptr);
   b8868:	6840      	ldr	r0, [r0, #4]
   b886a:	2200      	movs	r2, #0
   b886c:	f081 0101 	eor.w	r1, r1, #1
   b8870:	f7fd b8b6 	b.w	b59e0 <network_listen>

000b8874 <_ZN5spark12NetworkClass16setListenTimeoutEt>:
}

void NetworkClass::setListenTimeout(uint16_t timeout) {
    network_set_listen_timeout(*this, timeout, nullptr);
   b8874:	6840      	ldr	r0, [r0, #4]
   b8876:	2200      	movs	r2, #0
   b8878:	f7fd b8c2 	b.w	b5a00 <network_set_listen_timeout>

000b887c <_ZN5spark12NetworkClass16getListenTimeoutEv>:
}

uint16_t NetworkClass::getListenTimeout() {
    return network_get_listen_timeout(*this, 0, nullptr);
   b887c:	2200      	movs	r2, #0
   b887e:	6840      	ldr	r0, [r0, #4]
   b8880:	4611      	mov	r1, r2
   b8882:	f7fd b8c5 	b.w	b5a10 <network_get_listen_timeout>

000b8886 <_ZN5spark12NetworkClass9listeningEv>:
}

bool NetworkClass::listening() {
    return network_listening(*this, 0, nullptr);
   b8886:	2200      	movs	r2, #0
   b8888:	6840      	ldr	r0, [r0, #4]
   b888a:	4611      	mov	r1, r2
   b888c:	f7fd b8b0 	b.w	b59f0 <network_listening>

000b8890 <_ZN5spark12NetworkClass7resolveEPKc>:
}

IPAddress NetworkClass::resolve(const char* name) {
   b8890:	e92d 43f0 	stmdb	sp!, {r4, r5, r6, r7, r8, r9, lr}
   b8894:	b095      	sub	sp, #84	; 0x54
   b8896:	4614      	mov	r4, r2
   b8898:	460d      	mov	r5, r1
   b889a:	4607      	mov	r7, r0
    IPAddress addr;
   b889c:	f7ff fd06 	bl	b82ac <_ZN9IPAddressC1Ev>
#if HAL_USE_INET_HAL_POSIX
    struct addrinfo *ai = nullptr;
   b88a0:	2100      	movs	r1, #0
    struct addrinfo hints = {};
   b88a2:	221c      	movs	r2, #28
   b88a4:	a80d      	add	r0, sp, #52	; 0x34
    struct addrinfo *ai = nullptr;
   b88a6:	9100      	str	r1, [sp, #0]
    struct addrinfo hints = {};
   b88a8:	f000 ff5b 	bl	b9762 <memset>
    hints.ai_flags = AI_ADDRCONFIG;
   b88ac:	2340      	movs	r3, #64	; 0x40
   b88ae:	930c      	str	r3, [sp, #48]	; 0x30
    hints.ai_family = AF_UNSPEC;
    const int r = getaddrinfo(name, nullptr, &hints, &ai);
   b88b0:	4620      	mov	r0, r4
   b88b2:	466b      	mov	r3, sp
   b88b4:	aa0c      	add	r2, sp, #48	; 0x30
   b88b6:	2100      	movs	r1, #0
   b88b8:	f7fc fdd4 	bl	b5464 <netdb_getaddrinfo>
    if (!r) {
   b88bc:	4604      	mov	r4, r0
   b88be:	2800      	cmp	r0, #0
   b88c0:	d14b      	bne.n	b895a <_ZN5spark12NetworkClass7resolveEPKc+0xca>
        bool ok = false;
        // This is not really needed if AI_ADDRCONFIG is properly supported
        bool ipv4 = network_ready(*this, NETWORK_READY_TYPE_IPV4, nullptr);
   b88c2:	4602      	mov	r2, r0
   b88c4:	2101      	movs	r1, #1
   b88c6:	6868      	ldr	r0, [r5, #4]
   b88c8:	f7fd f872 	bl	b59b0 <network_ready>
        bool ipv6 = network_ready(*this, NETWORK_READY_TYPE_IPV6, nullptr);
   b88cc:	2102      	movs	r1, #2
        bool ipv4 = network_ready(*this, NETWORK_READY_TYPE_IPV4, nullptr);
   b88ce:	4680      	mov	r8, r0
        bool ipv6 = network_ready(*this, NETWORK_READY_TYPE_IPV6, nullptr);
   b88d0:	4622      	mov	r2, r4
   b88d2:	6868      	ldr	r0, [r5, #4]
   b88d4:	f7fd f86c 	bl	b59b0 <network_ready>
        for (auto cur = ai; cur != nullptr && !ok; cur = cur->ai_next) {
   b88d8:	9e00      	ldr	r6, [sp, #0]
        bool ipv6 = network_ready(*this, NETWORK_READY_TYPE_IPV6, nullptr);
   b88da:	4681      	mov	r9, r0
        bool ok = false;
   b88dc:	4621      	mov	r1, r4
        for (auto cur = ai; cur != nullptr && !ok; cur = cur->ai_next) {
   b88de:	2e00      	cmp	r6, #0
   b88e0:	d03b      	beq.n	b895a <_ZN5spark12NetworkClass7resolveEPKc+0xca>
   b88e2:	2900      	cmp	r1, #0
   b88e4:	d139      	bne.n	b895a <_ZN5spark12NetworkClass7resolveEPKc+0xca>
            // NOTE: using only the first entry that matches the current state of IPv4/IPv6 connectivity
            switch (cur->ai_family) {
   b88e6:	6873      	ldr	r3, [r6, #4]
   b88e8:	2b02      	cmp	r3, #2
   b88ea:	d003      	beq.n	b88f4 <_ZN5spark12NetworkClass7resolveEPKc+0x64>
   b88ec:	2b0a      	cmp	r3, #10
   b88ee:	d011      	beq.n	b8914 <_ZN5spark12NetworkClass7resolveEPKc+0x84>
        for (auto cur = ai; cur != nullptr && !ok; cur = cur->ai_next) {
   b88f0:	69f6      	ldr	r6, [r6, #28]
   b88f2:	e7f4      	b.n	b88de <_ZN5spark12NetworkClass7resolveEPKc+0x4e>
                case AF_INET: {
                    if (!ipv4) {
   b88f4:	f1b8 0f00 	cmp.w	r8, #0
   b88f8:	d0fa      	beq.n	b88f0 <_ZN5spark12NetworkClass7resolveEPKc+0x60>
                        continue;
                    }
                    // NOTE: HAL_IPAddress is little-endian
                    auto in = (struct sockaddr_in*)cur->ai_addr;
                    addr = (const uint8_t*)(&in->sin_addr.s_addr);
   b88fa:	6971      	ldr	r1, [r6, #20]
        return *this = IPAddress(address);
   b88fc:	a806      	add	r0, sp, #24
   b88fe:	3104      	adds	r1, #4
class IPAddress : public Printable {
   b8900:	ad07      	add	r5, sp, #28
        return *this = IPAddress(address);
   b8902:	f7ff fd1f 	bl	b8344 <_ZN9IPAddressC1EPKh>
class IPAddress : public Printable {
   b8906:	cd0f      	ldmia	r5!, {r0, r1, r2, r3}
   b8908:	1d3c      	adds	r4, r7, #4
   b890a:	c40f      	stmia	r4!, {r0, r1, r2, r3}
   b890c:	682b      	ldr	r3, [r5, #0]
   b890e:	7023      	strb	r3, [r4, #0]
                    ok = true;
   b8910:	4641      	mov	r1, r8
        return *this = IPAddress(address);
   b8912:	e7ed      	b.n	b88f0 <_ZN5spark12NetworkClass7resolveEPKc+0x60>
                    break;
                }
                case AF_INET6: {
                    if (!ipv6) {
   b8914:	f1b9 0f00 	cmp.w	r9, #0
   b8918:	d0ea      	beq.n	b88f0 <_ZN5spark12NetworkClass7resolveEPKc+0x60>
                        continue;
                    }
                    auto in6 = (struct sockaddr_in6*)cur->ai_addr;
   b891a:	6974      	ldr	r4, [r6, #20]
                    HAL_IPAddress a = {};
   b891c:	2210      	movs	r2, #16
   b891e:	a801      	add	r0, sp, #4
   b8920:	f000 ff1f 	bl	b9762 <memset>
                    a.v = 6;
   b8924:	2306      	movs	r3, #6
   b8926:	f88d 3014 	strb.w	r3, [sp, #20]
                    memcpy(a.ipv6, in6->sin6_addr.s6_addr, sizeof(a.ipv6));
   b892a:	ad01      	add	r5, sp, #4
   b892c:	f104 0308 	add.w	r3, r4, #8
   b8930:	3418      	adds	r4, #24
   b8932:	6818      	ldr	r0, [r3, #0]
   b8934:	6859      	ldr	r1, [r3, #4]
   b8936:	462a      	mov	r2, r5
   b8938:	c203      	stmia	r2!, {r0, r1}
   b893a:	3308      	adds	r3, #8
   b893c:	42a3      	cmp	r3, r4
   b893e:	4615      	mov	r5, r2
   b8940:	d1f7      	bne.n	b8932 <_ZN5spark12NetworkClass7resolveEPKc+0xa2>
                    addr = IPAddress(a);
   b8942:	a901      	add	r1, sp, #4
   b8944:	a806      	add	r0, sp, #24
class IPAddress : public Printable {
   b8946:	ad07      	add	r5, sp, #28
   b8948:	f7ff fcbe 	bl	b82c8 <_ZN9IPAddressC1ERK16_HAL_IPAddress_t>
   b894c:	cd0f      	ldmia	r5!, {r0, r1, r2, r3}
   b894e:	1d3c      	adds	r4, r7, #4
   b8950:	c40f      	stmia	r4!, {r0, r1, r2, r3}
   b8952:	682b      	ldr	r3, [r5, #0]
   b8954:	7023      	strb	r3, [r4, #0]
                    ok = true;
   b8956:	4649      	mov	r1, r9
   b8958:	e7ca      	b.n	b88f0 <_ZN5spark12NetworkClass7resolveEPKc+0x60>
                    break;
                }
            }
        }
    }
    freeaddrinfo(ai);
   b895a:	9800      	ldr	r0, [sp, #0]
   b895c:	f7fc fd7a 	bl	b5454 <netdb_freeaddrinfo>
    return Cellular.resolve(name);
#endif // Wiring_Cellular

#endif // HAL_USE_INET_HAL_POSIX
    return addr;
}
   b8960:	4638      	mov	r0, r7
   b8962:	b015      	add	sp, #84	; 0x54
   b8964:	e8bd 83f0 	ldmia.w	sp!, {r4, r5, r6, r7, r8, r9, pc}

000b8968 <_GLOBAL__sub_I__ZN5spark7NetworkE>:
   b8968:	4b02      	ldr	r3, [pc, #8]	; (b8974 <_GLOBAL__sub_I__ZN5spark7NetworkE+0xc>)
   b896a:	4a03      	ldr	r2, [pc, #12]	; (b8978 <_GLOBAL__sub_I__ZN5spark7NetworkE+0x10>)
   b896c:	601a      	str	r2, [r3, #0]
   b896e:	2200      	movs	r2, #0
   b8970:	605a      	str	r2, [r3, #4]

} // spark
   b8972:	4770      	bx	lr
   b8974:	2003e718 	.word	0x2003e718
   b8978:	000bc1c0 	.word	0x000bc1c0

000b897c <pinAvailable>:
/*
 * @brief Perform safety check on desired pin to see if it's already
 * being used.  Return 0 if used, otherwise return 1 if available.
 */
bool pinAvailable(uint16_t pin) {
  if (pin >= TOTAL_PINS) {
   b897c:	2823      	cmp	r0, #35	; 0x23
bool pinAvailable(uint16_t pin) {
   b897e:	b513      	push	{r0, r1, r4, lr}
  if (pin >= TOTAL_PINS) {
   b8980:	d902      	bls.n	b8988 <pinAvailable+0xc>
    return false;
   b8982:	2000      	movs	r0, #0
    return false; // 'pin' is used
  }
#endif

  return true; // 'pin' is available
}
   b8984:	b002      	add	sp, #8
   b8986:	bd10      	pop	{r4, pc}
  if((pin == SCK || pin == MOSI || pin == MISO) && hal_spi_is_enabled(SPI.interface()) == true)
   b8988:	f1a0 030b 	sub.w	r3, r0, #11
   b898c:	2b02      	cmp	r3, #2
   b898e:	d81a      	bhi.n	b89c6 <pinAvailable+0x4a>

template <hal_spi_interface_t Interface>
class SpiProxy {
public:
    static SPIClass& instance() {
        static SPIClass instance(Interface);
   b8990:	4c17      	ldr	r4, [pc, #92]	; (b89f0 <pinAvailable+0x74>)
   b8992:	7821      	ldrb	r1, [r4, #0]
   b8994:	f3bf 8f5b 	dmb	ish
   b8998:	f011 0101 	ands.w	r1, r1, #1
   b899c:	d10b      	bne.n	b89b6 <pinAvailable+0x3a>
   b899e:	4620      	mov	r0, r4
   b89a0:	9101      	str	r1, [sp, #4]
   b89a2:	f7fb fb7e 	bl	b40a2 <__cxa_guard_acquire>
   b89a6:	9901      	ldr	r1, [sp, #4]
   b89a8:	b128      	cbz	r0, b89b6 <pinAvailable+0x3a>
   b89aa:	4812      	ldr	r0, [pc, #72]	; (b89f4 <pinAvailable+0x78>)
   b89ac:	f7fd f90e 	bl	b5bcc <_ZN8SPIClassC1E19hal_spi_interface_t>
   b89b0:	4620      	mov	r0, r4
   b89b2:	f7fb fb7b 	bl	b40ac <__cxa_guard_release>
   b89b6:	4b0f      	ldr	r3, [pc, #60]	; (b89f4 <pinAvailable+0x78>)
   b89b8:	7818      	ldrb	r0, [r3, #0]
   b89ba:	f7fc ff45 	bl	b5848 <hal_spi_is_enabled>
   b89be:	2800      	cmp	r0, #0
   b89c0:	d1df      	bne.n	b8982 <pinAvailable+0x6>
  return true; // 'pin' is available
   b89c2:	2001      	movs	r0, #1
   b89c4:	e7de      	b.n	b8984 <pinAvailable+0x8>
  if((pin == SCL || pin == SDA) && hal_i2c_is_enabled(Wire.interface(), nullptr) == true)
   b89c6:	2801      	cmp	r0, #1
   b89c8:	d809      	bhi.n	b89de <pinAvailable+0x62>
   b89ca:	f000 f881 	bl	b8ad0 <_Z19__fetch_global_Wirev>
   b89ce:	2100      	movs	r1, #0
   b89d0:	7c00      	ldrb	r0, [r0, #16]
   b89d2:	f7fc fef1 	bl	b57b8 <hal_i2c_is_enabled>
  if((pin == RX || pin == TX) && hal_usart_is_enabled(Serial1.interface()) == true)
   b89d6:	f080 0001 	eor.w	r0, r0, #1
   b89da:	b2c0      	uxtb	r0, r0
   b89dc:	e7d2      	b.n	b8984 <pinAvailable+0x8>
   b89de:	3809      	subs	r0, #9
   b89e0:	2801      	cmp	r0, #1
   b89e2:	d8ee      	bhi.n	b89c2 <pinAvailable+0x46>
   b89e4:	f000 f834 	bl	b8a50 <_Z22__fetch_global_Serial1v>
   b89e8:	7c00      	ldrb	r0, [r0, #16]
   b89ea:	f7fc fea5 	bl	b5738 <hal_usart_is_enabled>
   b89ee:	e7f2      	b.n	b89d6 <pinAvailable+0x5a>
   b89f0:	2003e720 	.word	0x2003e720
   b89f4:	2003e724 	.word	0x2003e724

000b89f8 <pinMode>:
  if(pin >= TOTAL_PINS || setMode == PIN_MODE_NONE )
   b89f8:	2823      	cmp	r0, #35	; 0x23
{
   b89fa:	b538      	push	{r3, r4, r5, lr}
   b89fc:	4604      	mov	r4, r0
   b89fe:	460d      	mov	r5, r1
  if(pin >= TOTAL_PINS || setMode == PIN_MODE_NONE )
   b8a00:	d80a      	bhi.n	b8a18 <pinMode+0x20>
   b8a02:	29ff      	cmp	r1, #255	; 0xff
   b8a04:	d008      	beq.n	b8a18 <pinMode+0x20>
  if( !pinAvailable(pin) ) {
   b8a06:	f7ff ffb9 	bl	b897c <pinAvailable>
   b8a0a:	b128      	cbz	r0, b8a18 <pinMode+0x20>
  HAL_Pin_Mode(pin, setMode);
   b8a0c:	4629      	mov	r1, r5
   b8a0e:	4620      	mov	r0, r4
}
   b8a10:	e8bd 4038 	ldmia.w	sp!, {r3, r4, r5, lr}
  HAL_Pin_Mode(pin, setMode);
   b8a14:	f7fc bd2e 	b.w	b5474 <HAL_Pin_Mode>
}
   b8a18:	bd38      	pop	{r3, r4, r5, pc}

000b8a1a <__tcf_0>:
}
#endif

USARTSerial& __fetch_global_Serial1()
{
    static USARTSerial serial1(HAL_USART_SERIAL1, acquireSerial1Buffer());
   b8a1a:	4770      	bx	lr

000b8a1c <_Z20acquireSerial1Bufferv>:
{
   b8a1c:	b538      	push	{r3, r4, r5, lr}
   b8a1e:	4604      	mov	r4, r0
    hal_usart_buffer_config_t config = {
   b8a20:	2514      	movs	r5, #20
   b8a22:	462a      	mov	r2, r5
   b8a24:	2100      	movs	r1, #0
   b8a26:	f000 fe9c 	bl	b9762 <memset>
   b8a2a:	8025      	strh	r5, [r4, #0]
   b8a2c:	2540      	movs	r5, #64	; 0x40
        .rx_buffer = new (std::nothrow) uint8_t[bufferSize],
   b8a2e:	4907      	ldr	r1, [pc, #28]	; (b8a4c <_Z20acquireSerial1Bufferv+0x30>)
    hal_usart_buffer_config_t config = {
   b8a30:	8125      	strh	r5, [r4, #8]
        .rx_buffer = new (std::nothrow) uint8_t[bufferSize],
   b8a32:	4628      	mov	r0, r5
    hal_usart_buffer_config_t config = {
   b8a34:	8225      	strh	r5, [r4, #16]
        .rx_buffer = new (std::nothrow) uint8_t[bufferSize],
   b8a36:	f000 f86f 	bl	b8b18 <_ZnajRKSt9nothrow_t>
        .tx_buffer = new (std::nothrow) uint8_t[bufferSize],
   b8a3a:	4904      	ldr	r1, [pc, #16]	; (b8a4c <_Z20acquireSerial1Bufferv+0x30>)
    };
   b8a3c:	6060      	str	r0, [r4, #4]
        .tx_buffer = new (std::nothrow) uint8_t[bufferSize],
   b8a3e:	4628      	mov	r0, r5
   b8a40:	f000 f86a 	bl	b8b18 <_ZnajRKSt9nothrow_t>
    };
   b8a44:	60e0      	str	r0, [r4, #12]
}
   b8a46:	4620      	mov	r0, r4
   b8a48:	bd38      	pop	{r3, r4, r5, pc}
   b8a4a:	bf00      	nop
   b8a4c:	000bc1f4 	.word	0x000bc1f4

000b8a50 <_Z22__fetch_global_Serial1v>:
{
   b8a50:	b530      	push	{r4, r5, lr}
    static USARTSerial serial1(HAL_USART_SERIAL1, acquireSerial1Buffer());
   b8a52:	4d0e      	ldr	r5, [pc, #56]	; (b8a8c <_Z22__fetch_global_Serial1v+0x3c>)
   b8a54:	7829      	ldrb	r1, [r5, #0]
   b8a56:	f3bf 8f5b 	dmb	ish
   b8a5a:	f011 0401 	ands.w	r4, r1, #1
{
   b8a5e:	b087      	sub	sp, #28
    static USARTSerial serial1(HAL_USART_SERIAL1, acquireSerial1Buffer());
   b8a60:	d111      	bne.n	b8a86 <_Z22__fetch_global_Serial1v+0x36>
   b8a62:	4628      	mov	r0, r5
   b8a64:	f7fb fb1d 	bl	b40a2 <__cxa_guard_acquire>
   b8a68:	b168      	cbz	r0, b8a86 <_Z22__fetch_global_Serial1v+0x36>
   b8a6a:	a801      	add	r0, sp, #4
   b8a6c:	f7ff ffd6 	bl	b8a1c <_Z20acquireSerial1Bufferv>
   b8a70:	aa01      	add	r2, sp, #4
   b8a72:	4621      	mov	r1, r4
   b8a74:	4806      	ldr	r0, [pc, #24]	; (b8a90 <_Z22__fetch_global_Serial1v+0x40>)
   b8a76:	f7ff fd5f 	bl	b8538 <_ZN11USARTSerialC1E21hal_usart_interface_tRK25hal_usart_buffer_config_t>
   b8a7a:	4628      	mov	r0, r5
   b8a7c:	f7fb fb16 	bl	b40ac <__cxa_guard_release>
   b8a80:	4804      	ldr	r0, [pc, #16]	; (b8a94 <_Z22__fetch_global_Serial1v+0x44>)
   b8a82:	f000 fe29 	bl	b96d8 <atexit>
    return serial1;
}
   b8a86:	4802      	ldr	r0, [pc, #8]	; (b8a90 <_Z22__fetch_global_Serial1v+0x40>)
   b8a88:	b007      	add	sp, #28
   b8a8a:	bd30      	pop	{r4, r5, pc}
   b8a8c:	2003e72c 	.word	0x2003e72c
   b8a90:	2003e730 	.word	0x2003e730
   b8a94:	000b8a1b 	.word	0x000b8a1b

000b8a98 <__tcf_0>:
}
#endif

TwoWire& __fetch_global_Wire()
{
	static TwoWire wire(HAL_I2C_INTERFACE1, acquireWireBuffer());
   b8a98:	4770      	bx	lr
	...

000b8a9c <_Z17acquireWireBufferv>:
{
   b8a9c:	b538      	push	{r3, r4, r5, lr}
	hal_i2c_config_t config = {
   b8a9e:	4b0a      	ldr	r3, [pc, #40]	; (b8ac8 <_Z17acquireWireBufferv+0x2c>)
   b8aa0:	6003      	str	r3, [r0, #0]
   b8aa2:	2301      	movs	r3, #1
{
   b8aa4:	4604      	mov	r4, r0
	hal_i2c_config_t config = {
   b8aa6:	6143      	str	r3, [r0, #20]
		.rx_buffer = new (std::nothrow) uint8_t[i2c_buffer_size],
   b8aa8:	4908      	ldr	r1, [pc, #32]	; (b8acc <_Z17acquireWireBufferv+0x30>)
   b8aaa:	2020      	movs	r0, #32
   b8aac:	f000 f834 	bl	b8b18 <_ZnajRKSt9nothrow_t>
	};
   b8ab0:	2520      	movs	r5, #32
   b8ab2:	6060      	str	r0, [r4, #4]
		.tx_buffer = new (std::nothrow) uint8_t[i2c_buffer_size],
   b8ab4:	4905      	ldr	r1, [pc, #20]	; (b8acc <_Z17acquireWireBufferv+0x30>)
	};
   b8ab6:	60a5      	str	r5, [r4, #8]
		.tx_buffer = new (std::nothrow) uint8_t[i2c_buffer_size],
   b8ab8:	4628      	mov	r0, r5
   b8aba:	f000 f82d 	bl	b8b18 <_ZnajRKSt9nothrow_t>
	};
   b8abe:	e9c4 0503 	strd	r0, r5, [r4, #12]
}
   b8ac2:	4620      	mov	r0, r4
   b8ac4:	bd38      	pop	{r3, r4, r5, pc}
   b8ac6:	bf00      	nop
   b8ac8:	00010018 	.word	0x00010018
   b8acc:	000bc1f4 	.word	0x000bc1f4

000b8ad0 <_Z19__fetch_global_Wirev>:
{
   b8ad0:	b530      	push	{r4, r5, lr}
	static TwoWire wire(HAL_I2C_INTERFACE1, acquireWireBuffer());
   b8ad2:	4d0e      	ldr	r5, [pc, #56]	; (b8b0c <_Z19__fetch_global_Wirev+0x3c>)
   b8ad4:	7829      	ldrb	r1, [r5, #0]
   b8ad6:	f3bf 8f5b 	dmb	ish
   b8ada:	f011 0401 	ands.w	r4, r1, #1
{
   b8ade:	b087      	sub	sp, #28
	static TwoWire wire(HAL_I2C_INTERFACE1, acquireWireBuffer());
   b8ae0:	d111      	bne.n	b8b06 <_Z19__fetch_global_Wirev+0x36>
   b8ae2:	4628      	mov	r0, r5
   b8ae4:	f7fb fadd 	bl	b40a2 <__cxa_guard_acquire>
   b8ae8:	b168      	cbz	r0, b8b06 <_Z19__fetch_global_Wirev+0x36>
   b8aea:	4668      	mov	r0, sp
   b8aec:	f7ff ffd6 	bl	b8a9c <_Z17acquireWireBufferv>
   b8af0:	466a      	mov	r2, sp
   b8af2:	4621      	mov	r1, r4
   b8af4:	4806      	ldr	r0, [pc, #24]	; (b8b10 <_Z19__fetch_global_Wirev+0x40>)
   b8af6:	f7ff fd73 	bl	b85e0 <_ZN7TwoWireC1E19hal_i2c_interface_tRK16hal_i2c_config_t>
   b8afa:	4628      	mov	r0, r5
   b8afc:	f7fb fad6 	bl	b40ac <__cxa_guard_release>
   b8b00:	4804      	ldr	r0, [pc, #16]	; (b8b14 <_Z19__fetch_global_Wirev+0x44>)
   b8b02:	f000 fde9 	bl	b96d8 <atexit>
	return wire;
}
   b8b06:	4802      	ldr	r0, [pc, #8]	; (b8b10 <_Z19__fetch_global_Wirev+0x40>)
   b8b08:	b007      	add	sp, #28
   b8b0a:	bd30      	pop	{r4, r5, pc}
   b8b0c:	2003e748 	.word	0x2003e748
   b8b10:	2003e74c 	.word	0x2003e74c
   b8b14:	000b8a99 	.word	0x000b8a99

000b8b18 <_ZnajRKSt9nothrow_t>:
   b8b18:	f7fb babf 	b.w	b409a <_Znaj>

000b8b1c <_ZSt25__throw_bad_function_callv>:
   b8b1c:	b508      	push	{r3, lr}
   b8b1e:	f7fc ffe7 	bl	b5af0 <abort>
	...

000b8b24 <_ZNSt19_Sp_make_shared_tag5_S_eqERKSt9type_info>:
   b8b24:	4901      	ldr	r1, [pc, #4]	; (b8b2c <_ZNSt19_Sp_make_shared_tag5_S_eqERKSt9type_info+0x8>)
   b8b26:	f000 b8f9 	b.w	b8d1c <_ZNKSt9type_infoeqERKS_>
   b8b2a:	bf00      	nop
   b8b2c:	000bc210 	.word	0x000bc210

000b8b30 <_ZNK10__cxxabiv117__class_type_info11__do_upcastEPKS0_PPv>:
   b8b30:	b57f      	push	{r0, r1, r2, r3, r4, r5, r6, lr}
   b8b32:	2400      	movs	r4, #0
   b8b34:	2310      	movs	r3, #16
   b8b36:	e9cd 3402 	strd	r3, r4, [sp, #8]
   b8b3a:	6803      	ldr	r3, [r0, #0]
   b8b3c:	4615      	mov	r5, r2
   b8b3e:	699e      	ldr	r6, [r3, #24]
   b8b40:	6812      	ldr	r2, [r2, #0]
   b8b42:	466b      	mov	r3, sp
   b8b44:	e9cd 4400 	strd	r4, r4, [sp]
   b8b48:	47b0      	blx	r6
   b8b4a:	f89d 3004 	ldrb.w	r3, [sp, #4]
   b8b4e:	f003 0306 	and.w	r3, r3, #6
   b8b52:	2b06      	cmp	r3, #6
   b8b54:	bf03      	ittte	eq
   b8b56:	9b00      	ldreq	r3, [sp, #0]
   b8b58:	602b      	streq	r3, [r5, #0]
   b8b5a:	2001      	moveq	r0, #1
   b8b5c:	4620      	movne	r0, r4
   b8b5e:	b004      	add	sp, #16
   b8b60:	bd70      	pop	{r4, r5, r6, pc}

000b8b62 <_ZNK10__cxxabiv117__class_type_info20__do_find_public_srcEiPKvPKS0_S2_>:
   b8b62:	9800      	ldr	r0, [sp, #0]
   b8b64:	4290      	cmp	r0, r2
   b8b66:	bf14      	ite	ne
   b8b68:	2001      	movne	r0, #1
   b8b6a:	2006      	moveq	r0, #6
   b8b6c:	4770      	bx	lr
	...

000b8b70 <_ZN10__cxxabiv117__class_type_infoD1Ev>:
   b8b70:	b510      	push	{r4, lr}
   b8b72:	4b03      	ldr	r3, [pc, #12]	; (b8b80 <_ZN10__cxxabiv117__class_type_infoD1Ev+0x10>)
   b8b74:	6003      	str	r3, [r0, #0]
   b8b76:	4604      	mov	r4, r0
   b8b78:	f000 f8cd 	bl	b8d16 <_ZNSt9type_infoD1Ev>
   b8b7c:	4620      	mov	r0, r4
   b8b7e:	bd10      	pop	{r4, pc}
   b8b80:	000bc250 	.word	0x000bc250

000b8b84 <_ZN10__cxxabiv117__class_type_infoD0Ev>:
   b8b84:	b510      	push	{r4, lr}
   b8b86:	4604      	mov	r4, r0
   b8b88:	f7ff fff2 	bl	b8b70 <_ZN10__cxxabiv117__class_type_infoD1Ev>
   b8b8c:	4620      	mov	r0, r4
   b8b8e:	2108      	movs	r1, #8
   b8b90:	f7fb fa85 	bl	b409e <_ZdlPvj>
   b8b94:	4620      	mov	r0, r4
   b8b96:	bd10      	pop	{r4, pc}

000b8b98 <_ZNK10__cxxabiv117__class_type_info12__do_dyncastEiNS0_10__sub_kindEPKS0_PKvS3_S5_RNS0_16__dyncast_resultE>:
   b8b98:	e92d 41f0 	stmdb	sp!, {r4, r5, r6, r7, r8, lr}
   b8b9c:	461f      	mov	r7, r3
   b8b9e:	e9dd 3408 	ldrd	r3, r4, [sp, #32]
   b8ba2:	f8dd 8018 	ldr.w	r8, [sp, #24]
   b8ba6:	4598      	cmp	r8, r3
   b8ba8:	4606      	mov	r6, r0
   b8baa:	4615      	mov	r5, r2
   b8bac:	d107      	bne.n	b8bbe <_ZNK10__cxxabiv117__class_type_info12__do_dyncastEiNS0_10__sub_kindEPKS0_PKvS3_S5_RNS0_16__dyncast_resultE+0x26>
   b8bae:	9907      	ldr	r1, [sp, #28]
   b8bb0:	f000 f8b4 	bl	b8d1c <_ZNKSt9type_infoeqERKS_>
   b8bb4:	b118      	cbz	r0, b8bbe <_ZNK10__cxxabiv117__class_type_info12__do_dyncastEiNS0_10__sub_kindEPKS0_PKvS3_S5_RNS0_16__dyncast_resultE+0x26>
   b8bb6:	7165      	strb	r5, [r4, #5]
   b8bb8:	2000      	movs	r0, #0
   b8bba:	e8bd 81f0 	ldmia.w	sp!, {r4, r5, r6, r7, r8, pc}
   b8bbe:	4639      	mov	r1, r7
   b8bc0:	4630      	mov	r0, r6
   b8bc2:	f000 f8ab 	bl	b8d1c <_ZNKSt9type_infoeqERKS_>
   b8bc6:	2800      	cmp	r0, #0
   b8bc8:	d0f6      	beq.n	b8bb8 <_ZNK10__cxxabiv117__class_type_info12__do_dyncastEiNS0_10__sub_kindEPKS0_PKvS3_S5_RNS0_16__dyncast_resultE+0x20>
   b8bca:	2301      	movs	r3, #1
   b8bcc:	f8c4 8000 	str.w	r8, [r4]
   b8bd0:	7125      	strb	r5, [r4, #4]
   b8bd2:	71a3      	strb	r3, [r4, #6]
   b8bd4:	e7f0      	b.n	b8bb8 <_ZNK10__cxxabiv117__class_type_info12__do_dyncastEiNS0_10__sub_kindEPKS0_PKvS3_S5_RNS0_16__dyncast_resultE+0x20>

000b8bd6 <_ZNK10__cxxabiv117__class_type_info11__do_upcastEPKS0_PKvRNS0_15__upcast_resultE>:
   b8bd6:	b538      	push	{r3, r4, r5, lr}
   b8bd8:	4615      	mov	r5, r2
   b8bda:	461c      	mov	r4, r3
   b8bdc:	f000 f89e 	bl	b8d1c <_ZNKSt9type_infoeqERKS_>
   b8be0:	b120      	cbz	r0, b8bec <_ZNK10__cxxabiv117__class_type_info11__do_upcastEPKS0_PKvRNS0_15__upcast_resultE+0x16>
   b8be2:	2308      	movs	r3, #8
   b8be4:	60e3      	str	r3, [r4, #12]
   b8be6:	2306      	movs	r3, #6
   b8be8:	6025      	str	r5, [r4, #0]
   b8bea:	7123      	strb	r3, [r4, #4]
   b8bec:	bd38      	pop	{r3, r4, r5, pc}

000b8bee <_ZNK10__cxxabiv117__class_type_info10__do_catchEPKSt9type_infoPPvj>:
   b8bee:	b573      	push	{r0, r1, r4, r5, r6, lr}
   b8bf0:	4605      	mov	r5, r0
   b8bf2:	460c      	mov	r4, r1
   b8bf4:	9201      	str	r2, [sp, #4]
   b8bf6:	461e      	mov	r6, r3
   b8bf8:	f000 f890 	bl	b8d1c <_ZNKSt9type_infoeqERKS_>
   b8bfc:	b950      	cbnz	r0, b8c14 <_ZNK10__cxxabiv117__class_type_info10__do_catchEPKSt9type_infoPPvj+0x26>
   b8bfe:	2e03      	cmp	r6, #3
   b8c00:	d808      	bhi.n	b8c14 <_ZNK10__cxxabiv117__class_type_info10__do_catchEPKSt9type_infoPPvj+0x26>
   b8c02:	6823      	ldr	r3, [r4, #0]
   b8c04:	9a01      	ldr	r2, [sp, #4]
   b8c06:	695b      	ldr	r3, [r3, #20]
   b8c08:	4629      	mov	r1, r5
   b8c0a:	4620      	mov	r0, r4
   b8c0c:	b002      	add	sp, #8
   b8c0e:	e8bd 4070 	ldmia.w	sp!, {r4, r5, r6, lr}
   b8c12:	4718      	bx	r3
   b8c14:	b002      	add	sp, #8
   b8c16:	bd70      	pop	{r4, r5, r6, pc}

000b8c18 <_ZN10__cxxabiv120__si_class_type_infoD1Ev>:
   b8c18:	b510      	push	{r4, lr}
   b8c1a:	4b03      	ldr	r3, [pc, #12]	; (b8c28 <_ZN10__cxxabiv120__si_class_type_infoD1Ev+0x10>)
   b8c1c:	6003      	str	r3, [r0, #0]
   b8c1e:	4604      	mov	r4, r0
   b8c20:	f7ff ffa6 	bl	b8b70 <_ZN10__cxxabiv117__class_type_infoD1Ev>
   b8c24:	4620      	mov	r0, r4
   b8c26:	bd10      	pop	{r4, pc}
   b8c28:	000bc2b0 	.word	0x000bc2b0

000b8c2c <_ZN10__cxxabiv120__si_class_type_infoD0Ev>:
   b8c2c:	b510      	push	{r4, lr}
   b8c2e:	4604      	mov	r4, r0
   b8c30:	f7ff fff2 	bl	b8c18 <_ZN10__cxxabiv120__si_class_type_infoD1Ev>
   b8c34:	4620      	mov	r0, r4
   b8c36:	210c      	movs	r1, #12
   b8c38:	f7fb fa31 	bl	b409e <_ZdlPvj>
   b8c3c:	4620      	mov	r0, r4
   b8c3e:	bd10      	pop	{r4, pc}

000b8c40 <_ZNK10__cxxabiv120__si_class_type_info20__do_find_public_srcEiPKvPKNS_17__class_type_infoES2_>:
   b8c40:	b5f7      	push	{r0, r1, r2, r4, r5, r6, r7, lr}
   b8c42:	9f08      	ldr	r7, [sp, #32]
   b8c44:	4297      	cmp	r7, r2
   b8c46:	4605      	mov	r5, r0
   b8c48:	460e      	mov	r6, r1
   b8c4a:	4614      	mov	r4, r2
   b8c4c:	d00a      	beq.n	b8c64 <_ZNK10__cxxabiv120__si_class_type_info20__do_find_public_srcEiPKvPKNS_17__class_type_infoES2_+0x24>
   b8c4e:	68a8      	ldr	r0, [r5, #8]
   b8c50:	6802      	ldr	r2, [r0, #0]
   b8c52:	9708      	str	r7, [sp, #32]
   b8c54:	6a15      	ldr	r5, [r2, #32]
   b8c56:	4631      	mov	r1, r6
   b8c58:	4622      	mov	r2, r4
   b8c5a:	46ac      	mov	ip, r5
   b8c5c:	b003      	add	sp, #12
   b8c5e:	e8bd 40f0 	ldmia.w	sp!, {r4, r5, r6, r7, lr}
   b8c62:	4760      	bx	ip
   b8c64:	4619      	mov	r1, r3
   b8c66:	9301      	str	r3, [sp, #4]
   b8c68:	f000 f858 	bl	b8d1c <_ZNKSt9type_infoeqERKS_>
   b8c6c:	9b01      	ldr	r3, [sp, #4]
   b8c6e:	2800      	cmp	r0, #0
   b8c70:	d0ed      	beq.n	b8c4e <_ZNK10__cxxabiv120__si_class_type_info20__do_find_public_srcEiPKvPKNS_17__class_type_infoES2_+0xe>
   b8c72:	2006      	movs	r0, #6
   b8c74:	b003      	add	sp, #12
   b8c76:	bdf0      	pop	{r4, r5, r6, r7, pc}

000b8c78 <_ZNK10__cxxabiv120__si_class_type_info12__do_dyncastEiNS_17__class_type_info10__sub_kindEPKS1_PKvS4_S6_RNS1_16__dyncast_resultE>:
   b8c78:	e92d 4ff1 	stmdb	sp!, {r0, r4, r5, r6, r7, r8, r9, sl, fp, lr}
   b8c7c:	460d      	mov	r5, r1
   b8c7e:	4619      	mov	r1, r3
   b8c80:	e9dd 4b0a 	ldrd	r4, fp, [sp, #40]	; 0x28
   b8c84:	e9dd a60c 	ldrd	sl, r6, [sp, #48]	; 0x30
   b8c88:	4681      	mov	r9, r0
   b8c8a:	4617      	mov	r7, r2
   b8c8c:	4698      	mov	r8, r3
   b8c8e:	f000 f845 	bl	b8d1c <_ZNKSt9type_infoeqERKS_>
   b8c92:	b190      	cbz	r0, b8cba <_ZNK10__cxxabiv120__si_class_type_info12__do_dyncastEiNS_17__class_type_info10__sub_kindEPKS1_PKvS4_S6_RNS1_16__dyncast_resultE+0x42>
   b8c94:	2d00      	cmp	r5, #0
   b8c96:	6034      	str	r4, [r6, #0]
   b8c98:	7137      	strb	r7, [r6, #4]
   b8c9a:	db09      	blt.n	b8cb0 <_ZNK10__cxxabiv120__si_class_type_info12__do_dyncastEiNS_17__class_type_info10__sub_kindEPKS1_PKvS4_S6_RNS1_16__dyncast_resultE+0x38>
   b8c9c:	1961      	adds	r1, r4, r5
   b8c9e:	458a      	cmp	sl, r1
   b8ca0:	bf0c      	ite	eq
   b8ca2:	2106      	moveq	r1, #6
   b8ca4:	2101      	movne	r1, #1
   b8ca6:	71b1      	strb	r1, [r6, #6]
   b8ca8:	2000      	movs	r0, #0
   b8caa:	b001      	add	sp, #4
   b8cac:	e8bd 8ff0 	ldmia.w	sp!, {r4, r5, r6, r7, r8, r9, sl, fp, pc}
   b8cb0:	3502      	adds	r5, #2
   b8cb2:	d1f9      	bne.n	b8ca8 <_ZNK10__cxxabiv120__si_class_type_info12__do_dyncastEiNS_17__class_type_info10__sub_kindEPKS1_PKvS4_S6_RNS1_16__dyncast_resultE+0x30>
   b8cb4:	2301      	movs	r3, #1
   b8cb6:	71b3      	strb	r3, [r6, #6]
   b8cb8:	e7f6      	b.n	b8ca8 <_ZNK10__cxxabiv120__si_class_type_info12__do_dyncastEiNS_17__class_type_info10__sub_kindEPKS1_PKvS4_S6_RNS1_16__dyncast_resultE+0x30>
   b8cba:	4554      	cmp	r4, sl
   b8cbc:	d106      	bne.n	b8ccc <_ZNK10__cxxabiv120__si_class_type_info12__do_dyncastEiNS_17__class_type_info10__sub_kindEPKS1_PKvS4_S6_RNS1_16__dyncast_resultE+0x54>
   b8cbe:	4659      	mov	r1, fp
   b8cc0:	4648      	mov	r0, r9
   b8cc2:	f000 f82b 	bl	b8d1c <_ZNKSt9type_infoeqERKS_>
   b8cc6:	b108      	cbz	r0, b8ccc <_ZNK10__cxxabiv120__si_class_type_info12__do_dyncastEiNS_17__class_type_info10__sub_kindEPKS1_PKvS4_S6_RNS1_16__dyncast_resultE+0x54>
   b8cc8:	7177      	strb	r7, [r6, #5]
   b8cca:	e7ed      	b.n	b8ca8 <_ZNK10__cxxabiv120__si_class_type_info12__do_dyncastEiNS_17__class_type_info10__sub_kindEPKS1_PKvS4_S6_RNS1_16__dyncast_resultE+0x30>
   b8ccc:	f8d9 0008 	ldr.w	r0, [r9, #8]
   b8cd0:	6803      	ldr	r3, [r0, #0]
   b8cd2:	e9cd a60c 	strd	sl, r6, [sp, #48]	; 0x30
   b8cd6:	e9cd 4b0a 	strd	r4, fp, [sp, #40]	; 0x28
   b8cda:	69dc      	ldr	r4, [r3, #28]
   b8cdc:	463a      	mov	r2, r7
   b8cde:	4643      	mov	r3, r8
   b8ce0:	4629      	mov	r1, r5
   b8ce2:	46a4      	mov	ip, r4
   b8ce4:	b001      	add	sp, #4
   b8ce6:	e8bd 4ff0 	ldmia.w	sp!, {r4, r5, r6, r7, r8, r9, sl, fp, lr}
   b8cea:	4760      	bx	ip

000b8cec <_ZNK10__cxxabiv120__si_class_type_info11__do_upcastEPKNS_17__class_type_infoEPKvRNS1_15__upcast_resultE>:
   b8cec:	e92d 41f0 	stmdb	sp!, {r4, r5, r6, r7, r8, lr}
   b8cf0:	4607      	mov	r7, r0
   b8cf2:	460c      	mov	r4, r1
   b8cf4:	4615      	mov	r5, r2
   b8cf6:	461e      	mov	r6, r3
   b8cf8:	f7ff ff6d 	bl	b8bd6 <_ZNK10__cxxabiv117__class_type_info11__do_upcastEPKS0_PKvRNS0_15__upcast_resultE>
   b8cfc:	b948      	cbnz	r0, b8d12 <_ZNK10__cxxabiv120__si_class_type_info11__do_upcastEPKNS_17__class_type_infoEPKvRNS1_15__upcast_resultE+0x26>
   b8cfe:	68b8      	ldr	r0, [r7, #8]
   b8d00:	6803      	ldr	r3, [r0, #0]
   b8d02:	699f      	ldr	r7, [r3, #24]
   b8d04:	462a      	mov	r2, r5
   b8d06:	4633      	mov	r3, r6
   b8d08:	4621      	mov	r1, r4
   b8d0a:	46bc      	mov	ip, r7
   b8d0c:	e8bd 41f0 	ldmia.w	sp!, {r4, r5, r6, r7, r8, lr}
   b8d10:	4760      	bx	ip
   b8d12:	e8bd 81f0 	ldmia.w	sp!, {r4, r5, r6, r7, r8, pc}

000b8d16 <_ZNSt9type_infoD1Ev>:
   b8d16:	4770      	bx	lr

000b8d18 <_ZNKSt9type_info14__is_pointer_pEv>:
   b8d18:	2000      	movs	r0, #0
   b8d1a:	4770      	bx	lr

000b8d1c <_ZNKSt9type_infoeqERKS_>:
   b8d1c:	4281      	cmp	r1, r0
   b8d1e:	b508      	push	{r3, lr}
   b8d20:	d00e      	beq.n	b8d40 <_ZNKSt9type_infoeqERKS_+0x24>
   b8d22:	6840      	ldr	r0, [r0, #4]
   b8d24:	7803      	ldrb	r3, [r0, #0]
   b8d26:	2b2a      	cmp	r3, #42	; 0x2a
   b8d28:	d00c      	beq.n	b8d44 <_ZNKSt9type_infoeqERKS_+0x28>
   b8d2a:	6849      	ldr	r1, [r1, #4]
   b8d2c:	780b      	ldrb	r3, [r1, #0]
   b8d2e:	2b2a      	cmp	r3, #42	; 0x2a
   b8d30:	bf08      	it	eq
   b8d32:	3101      	addeq	r1, #1
   b8d34:	f000 fd5b 	bl	b97ee <strcmp>
   b8d38:	fab0 f080 	clz	r0, r0
   b8d3c:	0940      	lsrs	r0, r0, #5
   b8d3e:	bd08      	pop	{r3, pc}
   b8d40:	2001      	movs	r0, #1
   b8d42:	e7fc      	b.n	b8d3e <_ZNKSt9type_infoeqERKS_+0x22>
   b8d44:	2000      	movs	r0, #0
   b8d46:	e7fa      	b.n	b8d3e <_ZNKSt9type_infoeqERKS_+0x22>

000b8d48 <__aeabi_drsub>:
   b8d48:	f081 4100 	eor.w	r1, r1, #2147483648	; 0x80000000
   b8d4c:	e002      	b.n	b8d54 <__adddf3>
   b8d4e:	bf00      	nop

000b8d50 <__aeabi_dsub>:
   b8d50:	f083 4300 	eor.w	r3, r3, #2147483648	; 0x80000000

000b8d54 <__adddf3>:
   b8d54:	b530      	push	{r4, r5, lr}
   b8d56:	ea4f 0441 	mov.w	r4, r1, lsl #1
   b8d5a:	ea4f 0543 	mov.w	r5, r3, lsl #1
   b8d5e:	ea94 0f05 	teq	r4, r5
   b8d62:	bf08      	it	eq
   b8d64:	ea90 0f02 	teqeq	r0, r2
   b8d68:	bf1f      	itttt	ne
   b8d6a:	ea54 0c00 	orrsne.w	ip, r4, r0
   b8d6e:	ea55 0c02 	orrsne.w	ip, r5, r2
   b8d72:	ea7f 5c64 	mvnsne.w	ip, r4, asr #21
   b8d76:	ea7f 5c65 	mvnsne.w	ip, r5, asr #21
   b8d7a:	f000 80e2 	beq.w	b8f42 <__adddf3+0x1ee>
   b8d7e:	ea4f 5454 	mov.w	r4, r4, lsr #21
   b8d82:	ebd4 5555 	rsbs	r5, r4, r5, lsr #21
   b8d86:	bfb8      	it	lt
   b8d88:	426d      	neglt	r5, r5
   b8d8a:	dd0c      	ble.n	b8da6 <__adddf3+0x52>
   b8d8c:	442c      	add	r4, r5
   b8d8e:	ea80 0202 	eor.w	r2, r0, r2
   b8d92:	ea81 0303 	eor.w	r3, r1, r3
   b8d96:	ea82 0000 	eor.w	r0, r2, r0
   b8d9a:	ea83 0101 	eor.w	r1, r3, r1
   b8d9e:	ea80 0202 	eor.w	r2, r0, r2
   b8da2:	ea81 0303 	eor.w	r3, r1, r3
   b8da6:	2d36      	cmp	r5, #54	; 0x36
   b8da8:	bf88      	it	hi
   b8daa:	bd30      	pophi	{r4, r5, pc}
   b8dac:	f011 4f00 	tst.w	r1, #2147483648	; 0x80000000
   b8db0:	ea4f 3101 	mov.w	r1, r1, lsl #12
   b8db4:	f44f 1c80 	mov.w	ip, #1048576	; 0x100000
   b8db8:	ea4c 3111 	orr.w	r1, ip, r1, lsr #12
   b8dbc:	d002      	beq.n	b8dc4 <__adddf3+0x70>
   b8dbe:	4240      	negs	r0, r0
   b8dc0:	eb61 0141 	sbc.w	r1, r1, r1, lsl #1
   b8dc4:	f013 4f00 	tst.w	r3, #2147483648	; 0x80000000
   b8dc8:	ea4f 3303 	mov.w	r3, r3, lsl #12
   b8dcc:	ea4c 3313 	orr.w	r3, ip, r3, lsr #12
   b8dd0:	d002      	beq.n	b8dd8 <__adddf3+0x84>
   b8dd2:	4252      	negs	r2, r2
   b8dd4:	eb63 0343 	sbc.w	r3, r3, r3, lsl #1
   b8dd8:	ea94 0f05 	teq	r4, r5
   b8ddc:	f000 80a7 	beq.w	b8f2e <__adddf3+0x1da>
   b8de0:	f1a4 0401 	sub.w	r4, r4, #1
   b8de4:	f1d5 0e20 	rsbs	lr, r5, #32
   b8de8:	db0d      	blt.n	b8e06 <__adddf3+0xb2>
   b8dea:	fa02 fc0e 	lsl.w	ip, r2, lr
   b8dee:	fa22 f205 	lsr.w	r2, r2, r5
   b8df2:	1880      	adds	r0, r0, r2
   b8df4:	f141 0100 	adc.w	r1, r1, #0
   b8df8:	fa03 f20e 	lsl.w	r2, r3, lr
   b8dfc:	1880      	adds	r0, r0, r2
   b8dfe:	fa43 f305 	asr.w	r3, r3, r5
   b8e02:	4159      	adcs	r1, r3
   b8e04:	e00e      	b.n	b8e24 <__adddf3+0xd0>
   b8e06:	f1a5 0520 	sub.w	r5, r5, #32
   b8e0a:	f10e 0e20 	add.w	lr, lr, #32
   b8e0e:	2a01      	cmp	r2, #1
   b8e10:	fa03 fc0e 	lsl.w	ip, r3, lr
   b8e14:	bf28      	it	cs
   b8e16:	f04c 0c02 	orrcs.w	ip, ip, #2
   b8e1a:	fa43 f305 	asr.w	r3, r3, r5
   b8e1e:	18c0      	adds	r0, r0, r3
   b8e20:	eb51 71e3 	adcs.w	r1, r1, r3, asr #31
   b8e24:	f001 4500 	and.w	r5, r1, #2147483648	; 0x80000000
   b8e28:	d507      	bpl.n	b8e3a <__adddf3+0xe6>
   b8e2a:	f04f 0e00 	mov.w	lr, #0
   b8e2e:	f1dc 0c00 	rsbs	ip, ip, #0
   b8e32:	eb7e 0000 	sbcs.w	r0, lr, r0
   b8e36:	eb6e 0101 	sbc.w	r1, lr, r1
   b8e3a:	f5b1 1f80 	cmp.w	r1, #1048576	; 0x100000
   b8e3e:	d31b      	bcc.n	b8e78 <__adddf3+0x124>
   b8e40:	f5b1 1f00 	cmp.w	r1, #2097152	; 0x200000
   b8e44:	d30c      	bcc.n	b8e60 <__adddf3+0x10c>
   b8e46:	0849      	lsrs	r1, r1, #1
   b8e48:	ea5f 0030 	movs.w	r0, r0, rrx
   b8e4c:	ea4f 0c3c 	mov.w	ip, ip, rrx
   b8e50:	f104 0401 	add.w	r4, r4, #1
   b8e54:	ea4f 5244 	mov.w	r2, r4, lsl #21
   b8e58:	f512 0f80 	cmn.w	r2, #4194304	; 0x400000
   b8e5c:	f080 809a 	bcs.w	b8f94 <__adddf3+0x240>
   b8e60:	f1bc 4f00 	cmp.w	ip, #2147483648	; 0x80000000
   b8e64:	bf08      	it	eq
   b8e66:	ea5f 0c50 	movseq.w	ip, r0, lsr #1
   b8e6a:	f150 0000 	adcs.w	r0, r0, #0
   b8e6e:	eb41 5104 	adc.w	r1, r1, r4, lsl #20
   b8e72:	ea41 0105 	orr.w	r1, r1, r5
   b8e76:	bd30      	pop	{r4, r5, pc}
   b8e78:	ea5f 0c4c 	movs.w	ip, ip, lsl #1
   b8e7c:	4140      	adcs	r0, r0
   b8e7e:	eb41 0101 	adc.w	r1, r1, r1
   b8e82:	3c01      	subs	r4, #1
   b8e84:	bf28      	it	cs
   b8e86:	f5b1 1f80 	cmpcs.w	r1, #1048576	; 0x100000
   b8e8a:	d2e9      	bcs.n	b8e60 <__adddf3+0x10c>
   b8e8c:	f091 0f00 	teq	r1, #0
   b8e90:	bf04      	itt	eq
   b8e92:	4601      	moveq	r1, r0
   b8e94:	2000      	moveq	r0, #0
   b8e96:	fab1 f381 	clz	r3, r1
   b8e9a:	bf08      	it	eq
   b8e9c:	3320      	addeq	r3, #32
   b8e9e:	f1a3 030b 	sub.w	r3, r3, #11
   b8ea2:	f1b3 0220 	subs.w	r2, r3, #32
   b8ea6:	da0c      	bge.n	b8ec2 <__adddf3+0x16e>
   b8ea8:	320c      	adds	r2, #12
   b8eaa:	dd08      	ble.n	b8ebe <__adddf3+0x16a>
   b8eac:	f102 0c14 	add.w	ip, r2, #20
   b8eb0:	f1c2 020c 	rsb	r2, r2, #12
   b8eb4:	fa01 f00c 	lsl.w	r0, r1, ip
   b8eb8:	fa21 f102 	lsr.w	r1, r1, r2
   b8ebc:	e00c      	b.n	b8ed8 <__adddf3+0x184>
   b8ebe:	f102 0214 	add.w	r2, r2, #20
   b8ec2:	bfd8      	it	le
   b8ec4:	f1c2 0c20 	rsble	ip, r2, #32
   b8ec8:	fa01 f102 	lsl.w	r1, r1, r2
   b8ecc:	fa20 fc0c 	lsr.w	ip, r0, ip
   b8ed0:	bfdc      	itt	le
   b8ed2:	ea41 010c 	orrle.w	r1, r1, ip
   b8ed6:	4090      	lslle	r0, r2
   b8ed8:	1ae4      	subs	r4, r4, r3
   b8eda:	bfa2      	ittt	ge
   b8edc:	eb01 5104 	addge.w	r1, r1, r4, lsl #20
   b8ee0:	4329      	orrge	r1, r5
   b8ee2:	bd30      	popge	{r4, r5, pc}
   b8ee4:	ea6f 0404 	mvn.w	r4, r4
   b8ee8:	3c1f      	subs	r4, #31
   b8eea:	da1c      	bge.n	b8f26 <__adddf3+0x1d2>
   b8eec:	340c      	adds	r4, #12
   b8eee:	dc0e      	bgt.n	b8f0e <__adddf3+0x1ba>
   b8ef0:	f104 0414 	add.w	r4, r4, #20
   b8ef4:	f1c4 0220 	rsb	r2, r4, #32
   b8ef8:	fa20 f004 	lsr.w	r0, r0, r4
   b8efc:	fa01 f302 	lsl.w	r3, r1, r2
   b8f00:	ea40 0003 	orr.w	r0, r0, r3
   b8f04:	fa21 f304 	lsr.w	r3, r1, r4
   b8f08:	ea45 0103 	orr.w	r1, r5, r3
   b8f0c:	bd30      	pop	{r4, r5, pc}
   b8f0e:	f1c4 040c 	rsb	r4, r4, #12
   b8f12:	f1c4 0220 	rsb	r2, r4, #32
   b8f16:	fa20 f002 	lsr.w	r0, r0, r2
   b8f1a:	fa01 f304 	lsl.w	r3, r1, r4
   b8f1e:	ea40 0003 	orr.w	r0, r0, r3
   b8f22:	4629      	mov	r1, r5
   b8f24:	bd30      	pop	{r4, r5, pc}
   b8f26:	fa21 f004 	lsr.w	r0, r1, r4
   b8f2a:	4629      	mov	r1, r5
   b8f2c:	bd30      	pop	{r4, r5, pc}
   b8f2e:	f094 0f00 	teq	r4, #0
   b8f32:	f483 1380 	eor.w	r3, r3, #1048576	; 0x100000
   b8f36:	bf06      	itte	eq
   b8f38:	f481 1180 	eoreq.w	r1, r1, #1048576	; 0x100000
   b8f3c:	3401      	addeq	r4, #1
   b8f3e:	3d01      	subne	r5, #1
   b8f40:	e74e      	b.n	b8de0 <__adddf3+0x8c>
   b8f42:	ea7f 5c64 	mvns.w	ip, r4, asr #21
   b8f46:	bf18      	it	ne
   b8f48:	ea7f 5c65 	mvnsne.w	ip, r5, asr #21
   b8f4c:	d029      	beq.n	b8fa2 <__adddf3+0x24e>
   b8f4e:	ea94 0f05 	teq	r4, r5
   b8f52:	bf08      	it	eq
   b8f54:	ea90 0f02 	teqeq	r0, r2
   b8f58:	d005      	beq.n	b8f66 <__adddf3+0x212>
   b8f5a:	ea54 0c00 	orrs.w	ip, r4, r0
   b8f5e:	bf04      	itt	eq
   b8f60:	4619      	moveq	r1, r3
   b8f62:	4610      	moveq	r0, r2
   b8f64:	bd30      	pop	{r4, r5, pc}
   b8f66:	ea91 0f03 	teq	r1, r3
   b8f6a:	bf1e      	ittt	ne
   b8f6c:	2100      	movne	r1, #0
   b8f6e:	2000      	movne	r0, #0
   b8f70:	bd30      	popne	{r4, r5, pc}
   b8f72:	ea5f 5c54 	movs.w	ip, r4, lsr #21
   b8f76:	d105      	bne.n	b8f84 <__adddf3+0x230>
   b8f78:	0040      	lsls	r0, r0, #1
   b8f7a:	4149      	adcs	r1, r1
   b8f7c:	bf28      	it	cs
   b8f7e:	f041 4100 	orrcs.w	r1, r1, #2147483648	; 0x80000000
   b8f82:	bd30      	pop	{r4, r5, pc}
   b8f84:	f514 0480 	adds.w	r4, r4, #4194304	; 0x400000
   b8f88:	bf3c      	itt	cc
   b8f8a:	f501 1180 	addcc.w	r1, r1, #1048576	; 0x100000
   b8f8e:	bd30      	popcc	{r4, r5, pc}
   b8f90:	f001 4500 	and.w	r5, r1, #2147483648	; 0x80000000
   b8f94:	f045 41fe 	orr.w	r1, r5, #2130706432	; 0x7f000000
   b8f98:	f441 0170 	orr.w	r1, r1, #15728640	; 0xf00000
   b8f9c:	f04f 0000 	mov.w	r0, #0
   b8fa0:	bd30      	pop	{r4, r5, pc}
   b8fa2:	ea7f 5c64 	mvns.w	ip, r4, asr #21
   b8fa6:	bf1a      	itte	ne
   b8fa8:	4619      	movne	r1, r3
   b8faa:	4610      	movne	r0, r2
   b8fac:	ea7f 5c65 	mvnseq.w	ip, r5, asr #21
   b8fb0:	bf1c      	itt	ne
   b8fb2:	460b      	movne	r3, r1
   b8fb4:	4602      	movne	r2, r0
   b8fb6:	ea50 3401 	orrs.w	r4, r0, r1, lsl #12
   b8fba:	bf06      	itte	eq
   b8fbc:	ea52 3503 	orrseq.w	r5, r2, r3, lsl #12
   b8fc0:	ea91 0f03 	teqeq	r1, r3
   b8fc4:	f441 2100 	orrne.w	r1, r1, #524288	; 0x80000
   b8fc8:	bd30      	pop	{r4, r5, pc}
   b8fca:	bf00      	nop

000b8fcc <__aeabi_ui2d>:
   b8fcc:	f090 0f00 	teq	r0, #0
   b8fd0:	bf04      	itt	eq
   b8fd2:	2100      	moveq	r1, #0
   b8fd4:	4770      	bxeq	lr
   b8fd6:	b530      	push	{r4, r5, lr}
   b8fd8:	f44f 6480 	mov.w	r4, #1024	; 0x400
   b8fdc:	f104 0432 	add.w	r4, r4, #50	; 0x32
   b8fe0:	f04f 0500 	mov.w	r5, #0
   b8fe4:	f04f 0100 	mov.w	r1, #0
   b8fe8:	e750      	b.n	b8e8c <__adddf3+0x138>
   b8fea:	bf00      	nop

000b8fec <__aeabi_i2d>:
   b8fec:	f090 0f00 	teq	r0, #0
   b8ff0:	bf04      	itt	eq
   b8ff2:	2100      	moveq	r1, #0
   b8ff4:	4770      	bxeq	lr
   b8ff6:	b530      	push	{r4, r5, lr}
   b8ff8:	f44f 6480 	mov.w	r4, #1024	; 0x400
   b8ffc:	f104 0432 	add.w	r4, r4, #50	; 0x32
   b9000:	f010 4500 	ands.w	r5, r0, #2147483648	; 0x80000000
   b9004:	bf48      	it	mi
   b9006:	4240      	negmi	r0, r0
   b9008:	f04f 0100 	mov.w	r1, #0
   b900c:	e73e      	b.n	b8e8c <__adddf3+0x138>
   b900e:	bf00      	nop

000b9010 <__aeabi_f2d>:
   b9010:	0042      	lsls	r2, r0, #1
   b9012:	ea4f 01e2 	mov.w	r1, r2, asr #3
   b9016:	ea4f 0131 	mov.w	r1, r1, rrx
   b901a:	ea4f 7002 	mov.w	r0, r2, lsl #28
   b901e:	bf1f      	itttt	ne
   b9020:	f012 437f 	andsne.w	r3, r2, #4278190080	; 0xff000000
   b9024:	f093 4f7f 	teqne	r3, #4278190080	; 0xff000000
   b9028:	f081 5160 	eorne.w	r1, r1, #939524096	; 0x38000000
   b902c:	4770      	bxne	lr
   b902e:	f032 427f 	bics.w	r2, r2, #4278190080	; 0xff000000
   b9032:	bf08      	it	eq
   b9034:	4770      	bxeq	lr
   b9036:	f093 4f7f 	teq	r3, #4278190080	; 0xff000000
   b903a:	bf04      	itt	eq
   b903c:	f441 2100 	orreq.w	r1, r1, #524288	; 0x80000
   b9040:	4770      	bxeq	lr
   b9042:	b530      	push	{r4, r5, lr}
   b9044:	f44f 7460 	mov.w	r4, #896	; 0x380
   b9048:	f001 4500 	and.w	r5, r1, #2147483648	; 0x80000000
   b904c:	f021 4100 	bic.w	r1, r1, #2147483648	; 0x80000000
   b9050:	e71c      	b.n	b8e8c <__adddf3+0x138>
   b9052:	bf00      	nop

000b9054 <__aeabi_ul2d>:
   b9054:	ea50 0201 	orrs.w	r2, r0, r1
   b9058:	bf08      	it	eq
   b905a:	4770      	bxeq	lr
   b905c:	b530      	push	{r4, r5, lr}
   b905e:	f04f 0500 	mov.w	r5, #0
   b9062:	e00a      	b.n	b907a <__aeabi_l2d+0x16>

000b9064 <__aeabi_l2d>:
   b9064:	ea50 0201 	orrs.w	r2, r0, r1
   b9068:	bf08      	it	eq
   b906a:	4770      	bxeq	lr
   b906c:	b530      	push	{r4, r5, lr}
   b906e:	f011 4500 	ands.w	r5, r1, #2147483648	; 0x80000000
   b9072:	d502      	bpl.n	b907a <__aeabi_l2d+0x16>
   b9074:	4240      	negs	r0, r0
   b9076:	eb61 0141 	sbc.w	r1, r1, r1, lsl #1
   b907a:	f44f 6480 	mov.w	r4, #1024	; 0x400
   b907e:	f104 0432 	add.w	r4, r4, #50	; 0x32
   b9082:	ea5f 5c91 	movs.w	ip, r1, lsr #22
   b9086:	f43f aed8 	beq.w	b8e3a <__adddf3+0xe6>
   b908a:	f04f 0203 	mov.w	r2, #3
   b908e:	ea5f 0cdc 	movs.w	ip, ip, lsr #3
   b9092:	bf18      	it	ne
   b9094:	3203      	addne	r2, #3
   b9096:	ea5f 0cdc 	movs.w	ip, ip, lsr #3
   b909a:	bf18      	it	ne
   b909c:	3203      	addne	r2, #3
   b909e:	eb02 02dc 	add.w	r2, r2, ip, lsr #3
   b90a2:	f1c2 0320 	rsb	r3, r2, #32
   b90a6:	fa00 fc03 	lsl.w	ip, r0, r3
   b90aa:	fa20 f002 	lsr.w	r0, r0, r2
   b90ae:	fa01 fe03 	lsl.w	lr, r1, r3
   b90b2:	ea40 000e 	orr.w	r0, r0, lr
   b90b6:	fa21 f102 	lsr.w	r1, r1, r2
   b90ba:	4414      	add	r4, r2
   b90bc:	e6bd      	b.n	b8e3a <__adddf3+0xe6>
   b90be:	bf00      	nop

000b90c0 <__aeabi_dmul>:
   b90c0:	b570      	push	{r4, r5, r6, lr}
   b90c2:	f04f 0cff 	mov.w	ip, #255	; 0xff
   b90c6:	f44c 6ce0 	orr.w	ip, ip, #1792	; 0x700
   b90ca:	ea1c 5411 	ands.w	r4, ip, r1, lsr #20
   b90ce:	bf1d      	ittte	ne
   b90d0:	ea1c 5513 	andsne.w	r5, ip, r3, lsr #20
   b90d4:	ea94 0f0c 	teqne	r4, ip
   b90d8:	ea95 0f0c 	teqne	r5, ip
   b90dc:	f000 f8de 	bleq	b929c <__aeabi_dmul+0x1dc>
   b90e0:	442c      	add	r4, r5
   b90e2:	ea81 0603 	eor.w	r6, r1, r3
   b90e6:	ea21 514c 	bic.w	r1, r1, ip, lsl #21
   b90ea:	ea23 534c 	bic.w	r3, r3, ip, lsl #21
   b90ee:	ea50 3501 	orrs.w	r5, r0, r1, lsl #12
   b90f2:	bf18      	it	ne
   b90f4:	ea52 3503 	orrsne.w	r5, r2, r3, lsl #12
   b90f8:	f441 1180 	orr.w	r1, r1, #1048576	; 0x100000
   b90fc:	f443 1380 	orr.w	r3, r3, #1048576	; 0x100000
   b9100:	d038      	beq.n	b9174 <__aeabi_dmul+0xb4>
   b9102:	fba0 ce02 	umull	ip, lr, r0, r2
   b9106:	f04f 0500 	mov.w	r5, #0
   b910a:	fbe1 e502 	umlal	lr, r5, r1, r2
   b910e:	f006 4200 	and.w	r2, r6, #2147483648	; 0x80000000
   b9112:	fbe0 e503 	umlal	lr, r5, r0, r3
   b9116:	f04f 0600 	mov.w	r6, #0
   b911a:	fbe1 5603 	umlal	r5, r6, r1, r3
   b911e:	f09c 0f00 	teq	ip, #0
   b9122:	bf18      	it	ne
   b9124:	f04e 0e01 	orrne.w	lr, lr, #1
   b9128:	f1a4 04ff 	sub.w	r4, r4, #255	; 0xff
   b912c:	f5b6 7f00 	cmp.w	r6, #512	; 0x200
   b9130:	f564 7440 	sbc.w	r4, r4, #768	; 0x300
   b9134:	d204      	bcs.n	b9140 <__aeabi_dmul+0x80>
   b9136:	ea5f 0e4e 	movs.w	lr, lr, lsl #1
   b913a:	416d      	adcs	r5, r5
   b913c:	eb46 0606 	adc.w	r6, r6, r6
   b9140:	ea42 21c6 	orr.w	r1, r2, r6, lsl #11
   b9144:	ea41 5155 	orr.w	r1, r1, r5, lsr #21
   b9148:	ea4f 20c5 	mov.w	r0, r5, lsl #11
   b914c:	ea40 505e 	orr.w	r0, r0, lr, lsr #21
   b9150:	ea4f 2ece 	mov.w	lr, lr, lsl #11
   b9154:	f1b4 0cfd 	subs.w	ip, r4, #253	; 0xfd
   b9158:	bf88      	it	hi
   b915a:	f5bc 6fe0 	cmphi.w	ip, #1792	; 0x700
   b915e:	d81e      	bhi.n	b919e <__aeabi_dmul+0xde>
   b9160:	f1be 4f00 	cmp.w	lr, #2147483648	; 0x80000000
   b9164:	bf08      	it	eq
   b9166:	ea5f 0e50 	movseq.w	lr, r0, lsr #1
   b916a:	f150 0000 	adcs.w	r0, r0, #0
   b916e:	eb41 5104 	adc.w	r1, r1, r4, lsl #20
   b9172:	bd70      	pop	{r4, r5, r6, pc}
   b9174:	f006 4600 	and.w	r6, r6, #2147483648	; 0x80000000
   b9178:	ea46 0101 	orr.w	r1, r6, r1
   b917c:	ea40 0002 	orr.w	r0, r0, r2
   b9180:	ea81 0103 	eor.w	r1, r1, r3
   b9184:	ebb4 045c 	subs.w	r4, r4, ip, lsr #1
   b9188:	bfc2      	ittt	gt
   b918a:	ebd4 050c 	rsbsgt	r5, r4, ip
   b918e:	ea41 5104 	orrgt.w	r1, r1, r4, lsl #20
   b9192:	bd70      	popgt	{r4, r5, r6, pc}
   b9194:	f441 1180 	orr.w	r1, r1, #1048576	; 0x100000
   b9198:	f04f 0e00 	mov.w	lr, #0
   b919c:	3c01      	subs	r4, #1
   b919e:	f300 80ab 	bgt.w	b92f8 <__aeabi_dmul+0x238>
   b91a2:	f114 0f36 	cmn.w	r4, #54	; 0x36
   b91a6:	bfde      	ittt	le
   b91a8:	2000      	movle	r0, #0
   b91aa:	f001 4100 	andle.w	r1, r1, #2147483648	; 0x80000000
   b91ae:	bd70      	pople	{r4, r5, r6, pc}
   b91b0:	f1c4 0400 	rsb	r4, r4, #0
   b91b4:	3c20      	subs	r4, #32
   b91b6:	da35      	bge.n	b9224 <__aeabi_dmul+0x164>
   b91b8:	340c      	adds	r4, #12
   b91ba:	dc1b      	bgt.n	b91f4 <__aeabi_dmul+0x134>
   b91bc:	f104 0414 	add.w	r4, r4, #20
   b91c0:	f1c4 0520 	rsb	r5, r4, #32
   b91c4:	fa00 f305 	lsl.w	r3, r0, r5
   b91c8:	fa20 f004 	lsr.w	r0, r0, r4
   b91cc:	fa01 f205 	lsl.w	r2, r1, r5
   b91d0:	ea40 0002 	orr.w	r0, r0, r2
   b91d4:	f001 4200 	and.w	r2, r1, #2147483648	; 0x80000000
   b91d8:	f021 4100 	bic.w	r1, r1, #2147483648	; 0x80000000
   b91dc:	eb10 70d3 	adds.w	r0, r0, r3, lsr #31
   b91e0:	fa21 f604 	lsr.w	r6, r1, r4
   b91e4:	eb42 0106 	adc.w	r1, r2, r6
   b91e8:	ea5e 0e43 	orrs.w	lr, lr, r3, lsl #1
   b91ec:	bf08      	it	eq
   b91ee:	ea20 70d3 	biceq.w	r0, r0, r3, lsr #31
   b91f2:	bd70      	pop	{r4, r5, r6, pc}
   b91f4:	f1c4 040c 	rsb	r4, r4, #12
   b91f8:	f1c4 0520 	rsb	r5, r4, #32
   b91fc:	fa00 f304 	lsl.w	r3, r0, r4
   b9200:	fa20 f005 	lsr.w	r0, r0, r5
   b9204:	fa01 f204 	lsl.w	r2, r1, r4
   b9208:	ea40 0002 	orr.w	r0, r0, r2
   b920c:	f001 4100 	and.w	r1, r1, #2147483648	; 0x80000000
   b9210:	eb10 70d3 	adds.w	r0, r0, r3, lsr #31
   b9214:	f141 0100 	adc.w	r1, r1, #0
   b9218:	ea5e 0e43 	orrs.w	lr, lr, r3, lsl #1
   b921c:	bf08      	it	eq
   b921e:	ea20 70d3 	biceq.w	r0, r0, r3, lsr #31
   b9222:	bd70      	pop	{r4, r5, r6, pc}
   b9224:	f1c4 0520 	rsb	r5, r4, #32
   b9228:	fa00 f205 	lsl.w	r2, r0, r5
   b922c:	ea4e 0e02 	orr.w	lr, lr, r2
   b9230:	fa20 f304 	lsr.w	r3, r0, r4
   b9234:	fa01 f205 	lsl.w	r2, r1, r5
   b9238:	ea43 0302 	orr.w	r3, r3, r2
   b923c:	fa21 f004 	lsr.w	r0, r1, r4
   b9240:	f001 4100 	and.w	r1, r1, #2147483648	; 0x80000000
   b9244:	fa21 f204 	lsr.w	r2, r1, r4
   b9248:	ea20 0002 	bic.w	r0, r0, r2
   b924c:	eb00 70d3 	add.w	r0, r0, r3, lsr #31
   b9250:	ea5e 0e43 	orrs.w	lr, lr, r3, lsl #1
   b9254:	bf08      	it	eq
   b9256:	ea20 70d3 	biceq.w	r0, r0, r3, lsr #31
   b925a:	bd70      	pop	{r4, r5, r6, pc}
   b925c:	f094 0f00 	teq	r4, #0
   b9260:	d10f      	bne.n	b9282 <__aeabi_dmul+0x1c2>
   b9262:	f001 4600 	and.w	r6, r1, #2147483648	; 0x80000000
   b9266:	0040      	lsls	r0, r0, #1
   b9268:	eb41 0101 	adc.w	r1, r1, r1
   b926c:	f411 1f80 	tst.w	r1, #1048576	; 0x100000
   b9270:	bf08      	it	eq
   b9272:	3c01      	subeq	r4, #1
   b9274:	d0f7      	beq.n	b9266 <__aeabi_dmul+0x1a6>
   b9276:	ea41 0106 	orr.w	r1, r1, r6
   b927a:	f095 0f00 	teq	r5, #0
   b927e:	bf18      	it	ne
   b9280:	4770      	bxne	lr
   b9282:	f003 4600 	and.w	r6, r3, #2147483648	; 0x80000000
   b9286:	0052      	lsls	r2, r2, #1
   b9288:	eb43 0303 	adc.w	r3, r3, r3
   b928c:	f413 1f80 	tst.w	r3, #1048576	; 0x100000
   b9290:	bf08      	it	eq
   b9292:	3d01      	subeq	r5, #1
   b9294:	d0f7      	beq.n	b9286 <__aeabi_dmul+0x1c6>
   b9296:	ea43 0306 	orr.w	r3, r3, r6
   b929a:	4770      	bx	lr
   b929c:	ea94 0f0c 	teq	r4, ip
   b92a0:	ea0c 5513 	and.w	r5, ip, r3, lsr #20
   b92a4:	bf18      	it	ne
   b92a6:	ea95 0f0c 	teqne	r5, ip
   b92aa:	d00c      	beq.n	b92c6 <__aeabi_dmul+0x206>
   b92ac:	ea50 0641 	orrs.w	r6, r0, r1, lsl #1
   b92b0:	bf18      	it	ne
   b92b2:	ea52 0643 	orrsne.w	r6, r2, r3, lsl #1
   b92b6:	d1d1      	bne.n	b925c <__aeabi_dmul+0x19c>
   b92b8:	ea81 0103 	eor.w	r1, r1, r3
   b92bc:	f001 4100 	and.w	r1, r1, #2147483648	; 0x80000000
   b92c0:	f04f 0000 	mov.w	r0, #0
   b92c4:	bd70      	pop	{r4, r5, r6, pc}
   b92c6:	ea50 0641 	orrs.w	r6, r0, r1, lsl #1
   b92ca:	bf06      	itte	eq
   b92cc:	4610      	moveq	r0, r2
   b92ce:	4619      	moveq	r1, r3
   b92d0:	ea52 0643 	orrsne.w	r6, r2, r3, lsl #1
   b92d4:	d019      	beq.n	b930a <__aeabi_dmul+0x24a>
   b92d6:	ea94 0f0c 	teq	r4, ip
   b92da:	d102      	bne.n	b92e2 <__aeabi_dmul+0x222>
   b92dc:	ea50 3601 	orrs.w	r6, r0, r1, lsl #12
   b92e0:	d113      	bne.n	b930a <__aeabi_dmul+0x24a>
   b92e2:	ea95 0f0c 	teq	r5, ip
   b92e6:	d105      	bne.n	b92f4 <__aeabi_dmul+0x234>
   b92e8:	ea52 3603 	orrs.w	r6, r2, r3, lsl #12
   b92ec:	bf1c      	itt	ne
   b92ee:	4610      	movne	r0, r2
   b92f0:	4619      	movne	r1, r3
   b92f2:	d10a      	bne.n	b930a <__aeabi_dmul+0x24a>
   b92f4:	ea81 0103 	eor.w	r1, r1, r3
   b92f8:	f001 4100 	and.w	r1, r1, #2147483648	; 0x80000000
   b92fc:	f041 41fe 	orr.w	r1, r1, #2130706432	; 0x7f000000
   b9300:	f441 0170 	orr.w	r1, r1, #15728640	; 0xf00000
   b9304:	f04f 0000 	mov.w	r0, #0
   b9308:	bd70      	pop	{r4, r5, r6, pc}
   b930a:	f041 41fe 	orr.w	r1, r1, #2130706432	; 0x7f000000
   b930e:	f441 0178 	orr.w	r1, r1, #16252928	; 0xf80000
   b9312:	bd70      	pop	{r4, r5, r6, pc}

000b9314 <__aeabi_ddiv>:
   b9314:	b570      	push	{r4, r5, r6, lr}
   b9316:	f04f 0cff 	mov.w	ip, #255	; 0xff
   b931a:	f44c 6ce0 	orr.w	ip, ip, #1792	; 0x700
   b931e:	ea1c 5411 	ands.w	r4, ip, r1, lsr #20
   b9322:	bf1d      	ittte	ne
   b9324:	ea1c 5513 	andsne.w	r5, ip, r3, lsr #20
   b9328:	ea94 0f0c 	teqne	r4, ip
   b932c:	ea95 0f0c 	teqne	r5, ip
   b9330:	f000 f8a7 	bleq	b9482 <__aeabi_ddiv+0x16e>
   b9334:	eba4 0405 	sub.w	r4, r4, r5
   b9338:	ea81 0e03 	eor.w	lr, r1, r3
   b933c:	ea52 3503 	orrs.w	r5, r2, r3, lsl #12
   b9340:	ea4f 3101 	mov.w	r1, r1, lsl #12
   b9344:	f000 8088 	beq.w	b9458 <__aeabi_ddiv+0x144>
   b9348:	ea4f 3303 	mov.w	r3, r3, lsl #12
   b934c:	f04f 5580 	mov.w	r5, #268435456	; 0x10000000
   b9350:	ea45 1313 	orr.w	r3, r5, r3, lsr #4
   b9354:	ea43 6312 	orr.w	r3, r3, r2, lsr #24
   b9358:	ea4f 2202 	mov.w	r2, r2, lsl #8
   b935c:	ea45 1511 	orr.w	r5, r5, r1, lsr #4
   b9360:	ea45 6510 	orr.w	r5, r5, r0, lsr #24
   b9364:	ea4f 2600 	mov.w	r6, r0, lsl #8
   b9368:	f00e 4100 	and.w	r1, lr, #2147483648	; 0x80000000
   b936c:	429d      	cmp	r5, r3
   b936e:	bf08      	it	eq
   b9370:	4296      	cmpeq	r6, r2
   b9372:	f144 04fd 	adc.w	r4, r4, #253	; 0xfd
   b9376:	f504 7440 	add.w	r4, r4, #768	; 0x300
   b937a:	d202      	bcs.n	b9382 <__aeabi_ddiv+0x6e>
   b937c:	085b      	lsrs	r3, r3, #1
   b937e:	ea4f 0232 	mov.w	r2, r2, rrx
   b9382:	1ab6      	subs	r6, r6, r2
   b9384:	eb65 0503 	sbc.w	r5, r5, r3
   b9388:	085b      	lsrs	r3, r3, #1
   b938a:	ea4f 0232 	mov.w	r2, r2, rrx
   b938e:	f44f 1080 	mov.w	r0, #1048576	; 0x100000
   b9392:	f44f 2c00 	mov.w	ip, #524288	; 0x80000
   b9396:	ebb6 0e02 	subs.w	lr, r6, r2
   b939a:	eb75 0e03 	sbcs.w	lr, r5, r3
   b939e:	bf22      	ittt	cs
   b93a0:	1ab6      	subcs	r6, r6, r2
   b93a2:	4675      	movcs	r5, lr
   b93a4:	ea40 000c 	orrcs.w	r0, r0, ip
   b93a8:	085b      	lsrs	r3, r3, #1
   b93aa:	ea4f 0232 	mov.w	r2, r2, rrx
   b93ae:	ebb6 0e02 	subs.w	lr, r6, r2
   b93b2:	eb75 0e03 	sbcs.w	lr, r5, r3
   b93b6:	bf22      	ittt	cs
   b93b8:	1ab6      	subcs	r6, r6, r2
   b93ba:	4675      	movcs	r5, lr
   b93bc:	ea40 005c 	orrcs.w	r0, r0, ip, lsr #1
   b93c0:	085b      	lsrs	r3, r3, #1
   b93c2:	ea4f 0232 	mov.w	r2, r2, rrx
   b93c6:	ebb6 0e02 	subs.w	lr, r6, r2
   b93ca:	eb75 0e03 	sbcs.w	lr, r5, r3
   b93ce:	bf22      	ittt	cs
   b93d0:	1ab6      	subcs	r6, r6, r2
   b93d2:	4675      	movcs	r5, lr
   b93d4:	ea40 009c 	orrcs.w	r0, r0, ip, lsr #2
   b93d8:	085b      	lsrs	r3, r3, #1
   b93da:	ea4f 0232 	mov.w	r2, r2, rrx
   b93de:	ebb6 0e02 	subs.w	lr, r6, r2
   b93e2:	eb75 0e03 	sbcs.w	lr, r5, r3
   b93e6:	bf22      	ittt	cs
   b93e8:	1ab6      	subcs	r6, r6, r2
   b93ea:	4675      	movcs	r5, lr
   b93ec:	ea40 00dc 	orrcs.w	r0, r0, ip, lsr #3
   b93f0:	ea55 0e06 	orrs.w	lr, r5, r6
   b93f4:	d018      	beq.n	b9428 <__aeabi_ddiv+0x114>
   b93f6:	ea4f 1505 	mov.w	r5, r5, lsl #4
   b93fa:	ea45 7516 	orr.w	r5, r5, r6, lsr #28
   b93fe:	ea4f 1606 	mov.w	r6, r6, lsl #4
   b9402:	ea4f 03c3 	mov.w	r3, r3, lsl #3
   b9406:	ea43 7352 	orr.w	r3, r3, r2, lsr #29
   b940a:	ea4f 02c2 	mov.w	r2, r2, lsl #3
   b940e:	ea5f 1c1c 	movs.w	ip, ip, lsr #4
   b9412:	d1c0      	bne.n	b9396 <__aeabi_ddiv+0x82>
   b9414:	f411 1f80 	tst.w	r1, #1048576	; 0x100000
   b9418:	d10b      	bne.n	b9432 <__aeabi_ddiv+0x11e>
   b941a:	ea41 0100 	orr.w	r1, r1, r0
   b941e:	f04f 0000 	mov.w	r0, #0
   b9422:	f04f 4c00 	mov.w	ip, #2147483648	; 0x80000000
   b9426:	e7b6      	b.n	b9396 <__aeabi_ddiv+0x82>
   b9428:	f411 1f80 	tst.w	r1, #1048576	; 0x100000
   b942c:	bf04      	itt	eq
   b942e:	4301      	orreq	r1, r0
   b9430:	2000      	moveq	r0, #0
   b9432:	f1b4 0cfd 	subs.w	ip, r4, #253	; 0xfd
   b9436:	bf88      	it	hi
   b9438:	f5bc 6fe0 	cmphi.w	ip, #1792	; 0x700
   b943c:	f63f aeaf 	bhi.w	b919e <__aeabi_dmul+0xde>
   b9440:	ebb5 0c03 	subs.w	ip, r5, r3
   b9444:	bf04      	itt	eq
   b9446:	ebb6 0c02 	subseq.w	ip, r6, r2
   b944a:	ea5f 0c50 	movseq.w	ip, r0, lsr #1
   b944e:	f150 0000 	adcs.w	r0, r0, #0
   b9452:	eb41 5104 	adc.w	r1, r1, r4, lsl #20
   b9456:	bd70      	pop	{r4, r5, r6, pc}
   b9458:	f00e 4e00 	and.w	lr, lr, #2147483648	; 0x80000000
   b945c:	ea4e 3111 	orr.w	r1, lr, r1, lsr #12
   b9460:	eb14 045c 	adds.w	r4, r4, ip, lsr #1
   b9464:	bfc2      	ittt	gt
   b9466:	ebd4 050c 	rsbsgt	r5, r4, ip
   b946a:	ea41 5104 	orrgt.w	r1, r1, r4, lsl #20
   b946e:	bd70      	popgt	{r4, r5, r6, pc}
   b9470:	f441 1180 	orr.w	r1, r1, #1048576	; 0x100000
   b9474:	f04f 0e00 	mov.w	lr, #0
   b9478:	3c01      	subs	r4, #1
   b947a:	e690      	b.n	b919e <__aeabi_dmul+0xde>
   b947c:	ea45 0e06 	orr.w	lr, r5, r6
   b9480:	e68d      	b.n	b919e <__aeabi_dmul+0xde>
   b9482:	ea0c 5513 	and.w	r5, ip, r3, lsr #20
   b9486:	ea94 0f0c 	teq	r4, ip
   b948a:	bf08      	it	eq
   b948c:	ea95 0f0c 	teqeq	r5, ip
   b9490:	f43f af3b 	beq.w	b930a <__aeabi_dmul+0x24a>
   b9494:	ea94 0f0c 	teq	r4, ip
   b9498:	d10a      	bne.n	b94b0 <__aeabi_ddiv+0x19c>
   b949a:	ea50 3401 	orrs.w	r4, r0, r1, lsl #12
   b949e:	f47f af34 	bne.w	b930a <__aeabi_dmul+0x24a>
   b94a2:	ea95 0f0c 	teq	r5, ip
   b94a6:	f47f af25 	bne.w	b92f4 <__aeabi_dmul+0x234>
   b94aa:	4610      	mov	r0, r2
   b94ac:	4619      	mov	r1, r3
   b94ae:	e72c      	b.n	b930a <__aeabi_dmul+0x24a>
   b94b0:	ea95 0f0c 	teq	r5, ip
   b94b4:	d106      	bne.n	b94c4 <__aeabi_ddiv+0x1b0>
   b94b6:	ea52 3503 	orrs.w	r5, r2, r3, lsl #12
   b94ba:	f43f aefd 	beq.w	b92b8 <__aeabi_dmul+0x1f8>
   b94be:	4610      	mov	r0, r2
   b94c0:	4619      	mov	r1, r3
   b94c2:	e722      	b.n	b930a <__aeabi_dmul+0x24a>
   b94c4:	ea50 0641 	orrs.w	r6, r0, r1, lsl #1
   b94c8:	bf18      	it	ne
   b94ca:	ea52 0643 	orrsne.w	r6, r2, r3, lsl #1
   b94ce:	f47f aec5 	bne.w	b925c <__aeabi_dmul+0x19c>
   b94d2:	ea50 0441 	orrs.w	r4, r0, r1, lsl #1
   b94d6:	f47f af0d 	bne.w	b92f4 <__aeabi_dmul+0x234>
   b94da:	ea52 0543 	orrs.w	r5, r2, r3, lsl #1
   b94de:	f47f aeeb 	bne.w	b92b8 <__aeabi_dmul+0x1f8>
   b94e2:	e712      	b.n	b930a <__aeabi_dmul+0x24a>

000b94e4 <__gedf2>:
   b94e4:	f04f 3cff 	mov.w	ip, #4294967295
   b94e8:	e006      	b.n	b94f8 <__cmpdf2+0x4>
   b94ea:	bf00      	nop

000b94ec <__ledf2>:
   b94ec:	f04f 0c01 	mov.w	ip, #1
   b94f0:	e002      	b.n	b94f8 <__cmpdf2+0x4>
   b94f2:	bf00      	nop

000b94f4 <__cmpdf2>:
   b94f4:	f04f 0c01 	mov.w	ip, #1
   b94f8:	f84d cd04 	str.w	ip, [sp, #-4]!
   b94fc:	ea4f 0c41 	mov.w	ip, r1, lsl #1
   b9500:	ea7f 5c6c 	mvns.w	ip, ip, asr #21
   b9504:	ea4f 0c43 	mov.w	ip, r3, lsl #1
   b9508:	bf18      	it	ne
   b950a:	ea7f 5c6c 	mvnsne.w	ip, ip, asr #21
   b950e:	d01b      	beq.n	b9548 <__cmpdf2+0x54>
   b9510:	b001      	add	sp, #4
   b9512:	ea50 0c41 	orrs.w	ip, r0, r1, lsl #1
   b9516:	bf0c      	ite	eq
   b9518:	ea52 0c43 	orrseq.w	ip, r2, r3, lsl #1
   b951c:	ea91 0f03 	teqne	r1, r3
   b9520:	bf02      	ittt	eq
   b9522:	ea90 0f02 	teqeq	r0, r2
   b9526:	2000      	moveq	r0, #0
   b9528:	4770      	bxeq	lr
   b952a:	f110 0f00 	cmn.w	r0, #0
   b952e:	ea91 0f03 	teq	r1, r3
   b9532:	bf58      	it	pl
   b9534:	4299      	cmppl	r1, r3
   b9536:	bf08      	it	eq
   b9538:	4290      	cmpeq	r0, r2
   b953a:	bf2c      	ite	cs
   b953c:	17d8      	asrcs	r0, r3, #31
   b953e:	ea6f 70e3 	mvncc.w	r0, r3, asr #31
   b9542:	f040 0001 	orr.w	r0, r0, #1
   b9546:	4770      	bx	lr
   b9548:	ea4f 0c41 	mov.w	ip, r1, lsl #1
   b954c:	ea7f 5c6c 	mvns.w	ip, ip, asr #21
   b9550:	d102      	bne.n	b9558 <__cmpdf2+0x64>
   b9552:	ea50 3c01 	orrs.w	ip, r0, r1, lsl #12
   b9556:	d107      	bne.n	b9568 <__cmpdf2+0x74>
   b9558:	ea4f 0c43 	mov.w	ip, r3, lsl #1
   b955c:	ea7f 5c6c 	mvns.w	ip, ip, asr #21
   b9560:	d1d6      	bne.n	b9510 <__cmpdf2+0x1c>
   b9562:	ea52 3c03 	orrs.w	ip, r2, r3, lsl #12
   b9566:	d0d3      	beq.n	b9510 <__cmpdf2+0x1c>
   b9568:	f85d 0b04 	ldr.w	r0, [sp], #4
   b956c:	4770      	bx	lr
   b956e:	bf00      	nop

000b9570 <__aeabi_cdrcmple>:
   b9570:	4684      	mov	ip, r0
   b9572:	4610      	mov	r0, r2
   b9574:	4662      	mov	r2, ip
   b9576:	468c      	mov	ip, r1
   b9578:	4619      	mov	r1, r3
   b957a:	4663      	mov	r3, ip
   b957c:	e000      	b.n	b9580 <__aeabi_cdcmpeq>
   b957e:	bf00      	nop

000b9580 <__aeabi_cdcmpeq>:
   b9580:	b501      	push	{r0, lr}
   b9582:	f7ff ffb7 	bl	b94f4 <__cmpdf2>
   b9586:	2800      	cmp	r0, #0
   b9588:	bf48      	it	mi
   b958a:	f110 0f00 	cmnmi.w	r0, #0
   b958e:	bd01      	pop	{r0, pc}

000b9590 <__aeabi_dcmpeq>:
   b9590:	f84d ed08 	str.w	lr, [sp, #-8]!
   b9594:	f7ff fff4 	bl	b9580 <__aeabi_cdcmpeq>
   b9598:	bf0c      	ite	eq
   b959a:	2001      	moveq	r0, #1
   b959c:	2000      	movne	r0, #0
   b959e:	f85d fb08 	ldr.w	pc, [sp], #8
   b95a2:	bf00      	nop

000b95a4 <__aeabi_dcmplt>:
   b95a4:	f84d ed08 	str.w	lr, [sp, #-8]!
   b95a8:	f7ff ffea 	bl	b9580 <__aeabi_cdcmpeq>
   b95ac:	bf34      	ite	cc
   b95ae:	2001      	movcc	r0, #1
   b95b0:	2000      	movcs	r0, #0
   b95b2:	f85d fb08 	ldr.w	pc, [sp], #8
   b95b6:	bf00      	nop

000b95b8 <__aeabi_dcmple>:
   b95b8:	f84d ed08 	str.w	lr, [sp, #-8]!
   b95bc:	f7ff ffe0 	bl	b9580 <__aeabi_cdcmpeq>
   b95c0:	bf94      	ite	ls
   b95c2:	2001      	movls	r0, #1
   b95c4:	2000      	movhi	r0, #0
   b95c6:	f85d fb08 	ldr.w	pc, [sp], #8
   b95ca:	bf00      	nop

000b95cc <__aeabi_dcmpge>:
   b95cc:	f84d ed08 	str.w	lr, [sp, #-8]!
   b95d0:	f7ff ffce 	bl	b9570 <__aeabi_cdrcmple>
   b95d4:	bf94      	ite	ls
   b95d6:	2001      	movls	r0, #1
   b95d8:	2000      	movhi	r0, #0
   b95da:	f85d fb08 	ldr.w	pc, [sp], #8
   b95de:	bf00      	nop

000b95e0 <__aeabi_dcmpgt>:
   b95e0:	f84d ed08 	str.w	lr, [sp, #-8]!
   b95e4:	f7ff ffc4 	bl	b9570 <__aeabi_cdrcmple>
   b95e8:	bf34      	ite	cc
   b95ea:	2001      	movcc	r0, #1
   b95ec:	2000      	movcs	r0, #0
   b95ee:	f85d fb08 	ldr.w	pc, [sp], #8
   b95f2:	bf00      	nop

000b95f4 <__aeabi_d2uiz>:
   b95f4:	004a      	lsls	r2, r1, #1
   b95f6:	d211      	bcs.n	b961c <__aeabi_d2uiz+0x28>
   b95f8:	f512 1200 	adds.w	r2, r2, #2097152	; 0x200000
   b95fc:	d211      	bcs.n	b9622 <__aeabi_d2uiz+0x2e>
   b95fe:	d50d      	bpl.n	b961c <__aeabi_d2uiz+0x28>
   b9600:	f46f 7378 	mvn.w	r3, #992	; 0x3e0
   b9604:	ebb3 5262 	subs.w	r2, r3, r2, asr #21
   b9608:	d40e      	bmi.n	b9628 <__aeabi_d2uiz+0x34>
   b960a:	ea4f 23c1 	mov.w	r3, r1, lsl #11
   b960e:	f043 4300 	orr.w	r3, r3, #2147483648	; 0x80000000
   b9612:	ea43 5350 	orr.w	r3, r3, r0, lsr #21
   b9616:	fa23 f002 	lsr.w	r0, r3, r2
   b961a:	4770      	bx	lr
   b961c:	f04f 0000 	mov.w	r0, #0
   b9620:	4770      	bx	lr
   b9622:	ea50 3001 	orrs.w	r0, r0, r1, lsl #12
   b9626:	d102      	bne.n	b962e <__aeabi_d2uiz+0x3a>
   b9628:	f04f 30ff 	mov.w	r0, #4294967295
   b962c:	4770      	bx	lr
   b962e:	f04f 0000 	mov.w	r0, #0
   b9632:	4770      	bx	lr

000b9634 <__aeabi_f2lz>:
   b9634:	ee07 0a90 	vmov	s15, r0
   b9638:	eef5 7ac0 	vcmpe.f32	s15, #0.0
   b963c:	eef1 fa10 	vmrs	APSR_nzcv, fpscr
   b9640:	d401      	bmi.n	b9646 <__aeabi_f2lz+0x12>
   b9642:	f000 b80b 	b.w	b965c <__aeabi_f2ulz>
   b9646:	eef1 7a67 	vneg.f32	s15, s15
   b964a:	b508      	push	{r3, lr}
   b964c:	ee17 0a90 	vmov	r0, s15
   b9650:	f000 f804 	bl	b965c <__aeabi_f2ulz>
   b9654:	4240      	negs	r0, r0
   b9656:	eb61 0141 	sbc.w	r1, r1, r1, lsl #1
   b965a:	bd08      	pop	{r3, pc}

000b965c <__aeabi_f2ulz>:
   b965c:	b5d0      	push	{r4, r6, r7, lr}
   b965e:	f7ff fcd7 	bl	b9010 <__aeabi_f2d>
   b9662:	4b0c      	ldr	r3, [pc, #48]	; (b9694 <__aeabi_f2ulz+0x38>)
   b9664:	2200      	movs	r2, #0
   b9666:	4606      	mov	r6, r0
   b9668:	460f      	mov	r7, r1
   b966a:	f7ff fd29 	bl	b90c0 <__aeabi_dmul>
   b966e:	f7ff ffc1 	bl	b95f4 <__aeabi_d2uiz>
   b9672:	4604      	mov	r4, r0
   b9674:	f7ff fcaa 	bl	b8fcc <__aeabi_ui2d>
   b9678:	4b07      	ldr	r3, [pc, #28]	; (b9698 <__aeabi_f2ulz+0x3c>)
   b967a:	2200      	movs	r2, #0
   b967c:	f7ff fd20 	bl	b90c0 <__aeabi_dmul>
   b9680:	4602      	mov	r2, r0
   b9682:	460b      	mov	r3, r1
   b9684:	4630      	mov	r0, r6
   b9686:	4639      	mov	r1, r7
   b9688:	f7ff fb62 	bl	b8d50 <__aeabi_dsub>
   b968c:	f7ff ffb2 	bl	b95f4 <__aeabi_d2uiz>
   b9690:	4621      	mov	r1, r4
   b9692:	bdd0      	pop	{r4, r6, r7, pc}
   b9694:	3df00000 	.word	0x3df00000
   b9698:	41f00000 	.word	0x41f00000

000b969c <__aeabi_d2ulz>:
   b969c:	b5d0      	push	{r4, r6, r7, lr}
   b969e:	4b0c      	ldr	r3, [pc, #48]	; (b96d0 <__aeabi_d2ulz+0x34>)
   b96a0:	2200      	movs	r2, #0
   b96a2:	4606      	mov	r6, r0
   b96a4:	460f      	mov	r7, r1
   b96a6:	f7ff fd0b 	bl	b90c0 <__aeabi_dmul>
   b96aa:	f7ff ffa3 	bl	b95f4 <__aeabi_d2uiz>
   b96ae:	4604      	mov	r4, r0
   b96b0:	f7ff fc8c 	bl	b8fcc <__aeabi_ui2d>
   b96b4:	4b07      	ldr	r3, [pc, #28]	; (b96d4 <__aeabi_d2ulz+0x38>)
   b96b6:	2200      	movs	r2, #0
   b96b8:	f7ff fd02 	bl	b90c0 <__aeabi_dmul>
   b96bc:	4602      	mov	r2, r0
   b96be:	460b      	mov	r3, r1
   b96c0:	4630      	mov	r0, r6
   b96c2:	4639      	mov	r1, r7
   b96c4:	f7ff fb44 	bl	b8d50 <__aeabi_dsub>
   b96c8:	f7ff ff94 	bl	b95f4 <__aeabi_d2uiz>
   b96cc:	4621      	mov	r1, r4
   b96ce:	bdd0      	pop	{r4, r6, r7, pc}
   b96d0:	3df00000 	.word	0x3df00000
   b96d4:	41f00000 	.word	0x41f00000

000b96d8 <atexit>:
   b96d8:	2300      	movs	r3, #0
   b96da:	4601      	mov	r1, r0
   b96dc:	461a      	mov	r2, r3
   b96de:	4618      	mov	r0, r3
   b96e0:	f000 bff4 	b.w	ba6cc <__register_exitproc>

000b96e4 <atof>:
   b96e4:	2100      	movs	r1, #0
   b96e6:	f000 befd 	b.w	ba4e4 <strtod>

000b96ea <atoi>:
   b96ea:	220a      	movs	r2, #10
   b96ec:	2100      	movs	r1, #0
   b96ee:	f000 bfe3 	b.w	ba6b8 <strtol>

000b96f2 <memcmp>:
   b96f2:	b510      	push	{r4, lr}
   b96f4:	3901      	subs	r1, #1
   b96f6:	4402      	add	r2, r0
   b96f8:	4290      	cmp	r0, r2
   b96fa:	d101      	bne.n	b9700 <memcmp+0xe>
   b96fc:	2000      	movs	r0, #0
   b96fe:	e005      	b.n	b970c <memcmp+0x1a>
   b9700:	7803      	ldrb	r3, [r0, #0]
   b9702:	f811 4f01 	ldrb.w	r4, [r1, #1]!
   b9706:	42a3      	cmp	r3, r4
   b9708:	d001      	beq.n	b970e <memcmp+0x1c>
   b970a:	1b18      	subs	r0, r3, r4
   b970c:	bd10      	pop	{r4, pc}
   b970e:	3001      	adds	r0, #1
   b9710:	e7f2      	b.n	b96f8 <memcmp+0x6>

000b9712 <memcpy>:
   b9712:	440a      	add	r2, r1
   b9714:	4291      	cmp	r1, r2
   b9716:	f100 33ff 	add.w	r3, r0, #4294967295
   b971a:	d100      	bne.n	b971e <memcpy+0xc>
   b971c:	4770      	bx	lr
   b971e:	b510      	push	{r4, lr}
   b9720:	f811 4b01 	ldrb.w	r4, [r1], #1
   b9724:	f803 4f01 	strb.w	r4, [r3, #1]!
   b9728:	4291      	cmp	r1, r2
   b972a:	d1f9      	bne.n	b9720 <memcpy+0xe>
   b972c:	bd10      	pop	{r4, pc}

000b972e <memmove>:
   b972e:	4288      	cmp	r0, r1
   b9730:	b510      	push	{r4, lr}
   b9732:	eb01 0402 	add.w	r4, r1, r2
   b9736:	d902      	bls.n	b973e <memmove+0x10>
   b9738:	4284      	cmp	r4, r0
   b973a:	4623      	mov	r3, r4
   b973c:	d807      	bhi.n	b974e <memmove+0x20>
   b973e:	1e43      	subs	r3, r0, #1
   b9740:	42a1      	cmp	r1, r4
   b9742:	d008      	beq.n	b9756 <memmove+0x28>
   b9744:	f811 2b01 	ldrb.w	r2, [r1], #1
   b9748:	f803 2f01 	strb.w	r2, [r3, #1]!
   b974c:	e7f8      	b.n	b9740 <memmove+0x12>
   b974e:	4402      	add	r2, r0
   b9750:	4601      	mov	r1, r0
   b9752:	428a      	cmp	r2, r1
   b9754:	d100      	bne.n	b9758 <memmove+0x2a>
   b9756:	bd10      	pop	{r4, pc}
   b9758:	f813 4d01 	ldrb.w	r4, [r3, #-1]!
   b975c:	f802 4d01 	strb.w	r4, [r2, #-1]!
   b9760:	e7f7      	b.n	b9752 <memmove+0x24>

000b9762 <memset>:
   b9762:	4402      	add	r2, r0
   b9764:	4603      	mov	r3, r0
   b9766:	4293      	cmp	r3, r2
   b9768:	d100      	bne.n	b976c <memset+0xa>
   b976a:	4770      	bx	lr
   b976c:	f803 1b01 	strb.w	r1, [r3], #1
   b9770:	e7f9      	b.n	b9766 <memset+0x4>
	...

000b9774 <srand>:
   b9774:	b538      	push	{r3, r4, r5, lr}
   b9776:	4b10      	ldr	r3, [pc, #64]	; (b97b8 <srand+0x44>)
   b9778:	681d      	ldr	r5, [r3, #0]
   b977a:	6bab      	ldr	r3, [r5, #56]	; 0x38
   b977c:	4604      	mov	r4, r0
   b977e:	b9b3      	cbnz	r3, b97ae <srand+0x3a>
   b9780:	2018      	movs	r0, #24
   b9782:	f7fc f98d 	bl	b5aa0 <malloc>
   b9786:	4602      	mov	r2, r0
   b9788:	63a8      	str	r0, [r5, #56]	; 0x38
   b978a:	b920      	cbnz	r0, b9796 <srand+0x22>
   b978c:	4b0b      	ldr	r3, [pc, #44]	; (b97bc <srand+0x48>)
   b978e:	480c      	ldr	r0, [pc, #48]	; (b97c0 <srand+0x4c>)
   b9790:	2142      	movs	r1, #66	; 0x42
   b9792:	f7fc f9c5 	bl	b5b20 <__assert_func>
   b9796:	490b      	ldr	r1, [pc, #44]	; (b97c4 <srand+0x50>)
   b9798:	4b0b      	ldr	r3, [pc, #44]	; (b97c8 <srand+0x54>)
   b979a:	e9c0 1300 	strd	r1, r3, [r0]
   b979e:	4b0b      	ldr	r3, [pc, #44]	; (b97cc <srand+0x58>)
   b97a0:	6083      	str	r3, [r0, #8]
   b97a2:	230b      	movs	r3, #11
   b97a4:	8183      	strh	r3, [r0, #12]
   b97a6:	2100      	movs	r1, #0
   b97a8:	2001      	movs	r0, #1
   b97aa:	e9c2 0104 	strd	r0, r1, [r2, #16]
   b97ae:	6bab      	ldr	r3, [r5, #56]	; 0x38
   b97b0:	2200      	movs	r2, #0
   b97b2:	611c      	str	r4, [r3, #16]
   b97b4:	615a      	str	r2, [r3, #20]
   b97b6:	bd38      	pop	{r3, r4, r5, pc}
   b97b8:	2003d984 	.word	0x2003d984
   b97bc:	000bc2e9 	.word	0x000bc2e9
   b97c0:	000bc300 	.word	0x000bc300
   b97c4:	abcd330e 	.word	0xabcd330e
   b97c8:	e66d1234 	.word	0xe66d1234
   b97cc:	0005deec 	.word	0x0005deec

000b97d0 <strcat>:
   b97d0:	b510      	push	{r4, lr}
   b97d2:	4602      	mov	r2, r0
   b97d4:	7814      	ldrb	r4, [r2, #0]
   b97d6:	4613      	mov	r3, r2
   b97d8:	3201      	adds	r2, #1
   b97da:	2c00      	cmp	r4, #0
   b97dc:	d1fa      	bne.n	b97d4 <strcat+0x4>
   b97de:	3b01      	subs	r3, #1
   b97e0:	f811 2b01 	ldrb.w	r2, [r1], #1
   b97e4:	f803 2f01 	strb.w	r2, [r3, #1]!
   b97e8:	2a00      	cmp	r2, #0
   b97ea:	d1f9      	bne.n	b97e0 <strcat+0x10>
   b97ec:	bd10      	pop	{r4, pc}

000b97ee <strcmp>:
   b97ee:	f810 2b01 	ldrb.w	r2, [r0], #1
   b97f2:	f811 3b01 	ldrb.w	r3, [r1], #1
   b97f6:	2a01      	cmp	r2, #1
   b97f8:	bf28      	it	cs
   b97fa:	429a      	cmpcs	r2, r3
   b97fc:	d0f7      	beq.n	b97ee <strcmp>
   b97fe:	1ad0      	subs	r0, r2, r3
   b9800:	4770      	bx	lr

000b9802 <strcpy>:
   b9802:	4603      	mov	r3, r0
   b9804:	f811 2b01 	ldrb.w	r2, [r1], #1
   b9808:	f803 2b01 	strb.w	r2, [r3], #1
   b980c:	2a00      	cmp	r2, #0
   b980e:	d1f9      	bne.n	b9804 <strcpy+0x2>
   b9810:	4770      	bx	lr
	...

000b9814 <strdup>:
   b9814:	4b02      	ldr	r3, [pc, #8]	; (b9820 <strdup+0xc>)
   b9816:	4601      	mov	r1, r0
   b9818:	6818      	ldr	r0, [r3, #0]
   b981a:	f000 b803 	b.w	b9824 <_strdup_r>
   b981e:	bf00      	nop
   b9820:	2003d984 	.word	0x2003d984

000b9824 <_strdup_r>:
   b9824:	b537      	push	{r0, r1, r2, r4, r5, lr}
   b9826:	4604      	mov	r4, r0
   b9828:	4608      	mov	r0, r1
   b982a:	460d      	mov	r5, r1
   b982c:	f000 f80f 	bl	b984e <strlen>
   b9830:	1c42      	adds	r2, r0, #1
   b9832:	4611      	mov	r1, r2
   b9834:	4620      	mov	r0, r4
   b9836:	9201      	str	r2, [sp, #4]
   b9838:	f7fc f962 	bl	b5b00 <_malloc_r>
   b983c:	4604      	mov	r4, r0
   b983e:	b118      	cbz	r0, b9848 <_strdup_r+0x24>
   b9840:	9a01      	ldr	r2, [sp, #4]
   b9842:	4629      	mov	r1, r5
   b9844:	f7ff ff65 	bl	b9712 <memcpy>
   b9848:	4620      	mov	r0, r4
   b984a:	b003      	add	sp, #12
   b984c:	bd30      	pop	{r4, r5, pc}

000b984e <strlen>:
   b984e:	4603      	mov	r3, r0
   b9850:	f813 2b01 	ldrb.w	r2, [r3], #1
   b9854:	2a00      	cmp	r2, #0
   b9856:	d1fb      	bne.n	b9850 <strlen+0x2>
   b9858:	1a18      	subs	r0, r3, r0
   b985a:	3801      	subs	r0, #1
   b985c:	4770      	bx	lr

000b985e <strncmp>:
   b985e:	b510      	push	{r4, lr}
   b9860:	b17a      	cbz	r2, b9882 <strncmp+0x24>
   b9862:	4603      	mov	r3, r0
   b9864:	3901      	subs	r1, #1
   b9866:	1884      	adds	r4, r0, r2
   b9868:	f813 0b01 	ldrb.w	r0, [r3], #1
   b986c:	f811 2f01 	ldrb.w	r2, [r1, #1]!
   b9870:	4290      	cmp	r0, r2
   b9872:	d101      	bne.n	b9878 <strncmp+0x1a>
   b9874:	42a3      	cmp	r3, r4
   b9876:	d101      	bne.n	b987c <strncmp+0x1e>
   b9878:	1a80      	subs	r0, r0, r2
   b987a:	bd10      	pop	{r4, pc}
   b987c:	2800      	cmp	r0, #0
   b987e:	d1f3      	bne.n	b9868 <strncmp+0xa>
   b9880:	e7fa      	b.n	b9878 <strncmp+0x1a>
   b9882:	4610      	mov	r0, r2
   b9884:	e7f9      	b.n	b987a <strncmp+0x1c>

000b9886 <strnlen>:
   b9886:	b510      	push	{r4, lr}
   b9888:	4602      	mov	r2, r0
   b988a:	4401      	add	r1, r0
   b988c:	428a      	cmp	r2, r1
   b988e:	4613      	mov	r3, r2
   b9890:	d003      	beq.n	b989a <strnlen+0x14>
   b9892:	781c      	ldrb	r4, [r3, #0]
   b9894:	3201      	adds	r2, #1
   b9896:	2c00      	cmp	r4, #0
   b9898:	d1f8      	bne.n	b988c <strnlen+0x6>
   b989a:	1a18      	subs	r0, r3, r0
   b989c:	bd10      	pop	{r4, pc}

000b989e <sulp>:
   b989e:	b570      	push	{r4, r5, r6, lr}
   b98a0:	4604      	mov	r4, r0
   b98a2:	460d      	mov	r5, r1
   b98a4:	ec45 4b10 	vmov	d0, r4, r5
   b98a8:	4616      	mov	r6, r2
   b98aa:	f001 fe69 	bl	bb580 <__ulp>
   b98ae:	ec51 0b10 	vmov	r0, r1, d0
   b98b2:	b17e      	cbz	r6, b98d4 <sulp+0x36>
   b98b4:	f3c5 530a 	ubfx	r3, r5, #20, #11
   b98b8:	f1c3 036b 	rsb	r3, r3, #107	; 0x6b
   b98bc:	2b00      	cmp	r3, #0
   b98be:	dd09      	ble.n	b98d4 <sulp+0x36>
   b98c0:	051b      	lsls	r3, r3, #20
   b98c2:	f103 557f 	add.w	r5, r3, #1069547520	; 0x3fc00000
   b98c6:	2400      	movs	r4, #0
   b98c8:	f505 1540 	add.w	r5, r5, #3145728	; 0x300000
   b98cc:	4622      	mov	r2, r4
   b98ce:	462b      	mov	r3, r5
   b98d0:	f7ff fbf6 	bl	b90c0 <__aeabi_dmul>
   b98d4:	bd70      	pop	{r4, r5, r6, pc}
	...

000b98d8 <_strtod_l>:
   b98d8:	e92d 4ff0 	stmdb	sp!, {r4, r5, r6, r7, r8, r9, sl, fp, lr}
   b98dc:	ed2d 8b02 	vpush	{d8}
   b98e0:	b09d      	sub	sp, #116	; 0x74
   b98e2:	461f      	mov	r7, r3
   b98e4:	2300      	movs	r3, #0
   b98e6:	9318      	str	r3, [sp, #96]	; 0x60
   b98e8:	4ba2      	ldr	r3, [pc, #648]	; (b9b74 <_strtod_l+0x29c>)
   b98ea:	9213      	str	r2, [sp, #76]	; 0x4c
   b98ec:	681b      	ldr	r3, [r3, #0]
   b98ee:	9305      	str	r3, [sp, #20]
   b98f0:	4604      	mov	r4, r0
   b98f2:	4618      	mov	r0, r3
   b98f4:	4688      	mov	r8, r1
   b98f6:	f7ff ffaa 	bl	b984e <strlen>
   b98fa:	f04f 0a00 	mov.w	sl, #0
   b98fe:	4605      	mov	r5, r0
   b9900:	f04f 0b00 	mov.w	fp, #0
   b9904:	f8cd 805c 	str.w	r8, [sp, #92]	; 0x5c
   b9908:	9b17      	ldr	r3, [sp, #92]	; 0x5c
   b990a:	781a      	ldrb	r2, [r3, #0]
   b990c:	2a2b      	cmp	r2, #43	; 0x2b
   b990e:	d04e      	beq.n	b99ae <_strtod_l+0xd6>
   b9910:	d83b      	bhi.n	b998a <_strtod_l+0xb2>
   b9912:	2a0d      	cmp	r2, #13
   b9914:	d834      	bhi.n	b9980 <_strtod_l+0xa8>
   b9916:	2a08      	cmp	r2, #8
   b9918:	d834      	bhi.n	b9984 <_strtod_l+0xac>
   b991a:	2a00      	cmp	r2, #0
   b991c:	d03e      	beq.n	b999c <_strtod_l+0xc4>
   b991e:	2300      	movs	r3, #0
   b9920:	930a      	str	r3, [sp, #40]	; 0x28
   b9922:	9e17      	ldr	r6, [sp, #92]	; 0x5c
   b9924:	7833      	ldrb	r3, [r6, #0]
   b9926:	2b30      	cmp	r3, #48	; 0x30
   b9928:	f040 80b0 	bne.w	b9a8c <_strtod_l+0x1b4>
   b992c:	7873      	ldrb	r3, [r6, #1]
   b992e:	f003 03df 	and.w	r3, r3, #223	; 0xdf
   b9932:	2b58      	cmp	r3, #88	; 0x58
   b9934:	d168      	bne.n	b9a08 <_strtod_l+0x130>
   b9936:	9b0a      	ldr	r3, [sp, #40]	; 0x28
   b9938:	9301      	str	r3, [sp, #4]
   b993a:	ab18      	add	r3, sp, #96	; 0x60
   b993c:	9702      	str	r7, [sp, #8]
   b993e:	9300      	str	r3, [sp, #0]
   b9940:	4a8d      	ldr	r2, [pc, #564]	; (b9b78 <_strtod_l+0x2a0>)
   b9942:	ab19      	add	r3, sp, #100	; 0x64
   b9944:	a917      	add	r1, sp, #92	; 0x5c
   b9946:	4620      	mov	r0, r4
   b9948:	f000 ff8a 	bl	ba860 <__gethex>
   b994c:	f010 0707 	ands.w	r7, r0, #7
   b9950:	4605      	mov	r5, r0
   b9952:	d005      	beq.n	b9960 <_strtod_l+0x88>
   b9954:	2f06      	cmp	r7, #6
   b9956:	d12c      	bne.n	b99b2 <_strtod_l+0xda>
   b9958:	3601      	adds	r6, #1
   b995a:	2300      	movs	r3, #0
   b995c:	9617      	str	r6, [sp, #92]	; 0x5c
   b995e:	930a      	str	r3, [sp, #40]	; 0x28
   b9960:	9b13      	ldr	r3, [sp, #76]	; 0x4c
   b9962:	2b00      	cmp	r3, #0
   b9964:	f040 8590 	bne.w	ba488 <_strtod_l+0xbb0>
   b9968:	9b0a      	ldr	r3, [sp, #40]	; 0x28
   b996a:	b1eb      	cbz	r3, b99a8 <_strtod_l+0xd0>
   b996c:	4652      	mov	r2, sl
   b996e:	f10b 4300 	add.w	r3, fp, #2147483648	; 0x80000000
   b9972:	ec43 2b10 	vmov	d0, r2, r3
   b9976:	b01d      	add	sp, #116	; 0x74
   b9978:	ecbd 8b02 	vpop	{d8}
   b997c:	e8bd 8ff0 	ldmia.w	sp!, {r4, r5, r6, r7, r8, r9, sl, fp, pc}
   b9980:	2a20      	cmp	r2, #32
   b9982:	d1cc      	bne.n	b991e <_strtod_l+0x46>
   b9984:	3301      	adds	r3, #1
   b9986:	9317      	str	r3, [sp, #92]	; 0x5c
   b9988:	e7be      	b.n	b9908 <_strtod_l+0x30>
   b998a:	2a2d      	cmp	r2, #45	; 0x2d
   b998c:	d1c7      	bne.n	b991e <_strtod_l+0x46>
   b998e:	2201      	movs	r2, #1
   b9990:	920a      	str	r2, [sp, #40]	; 0x28
   b9992:	1c5a      	adds	r2, r3, #1
   b9994:	9217      	str	r2, [sp, #92]	; 0x5c
   b9996:	785b      	ldrb	r3, [r3, #1]
   b9998:	2b00      	cmp	r3, #0
   b999a:	d1c2      	bne.n	b9922 <_strtod_l+0x4a>
   b999c:	9b13      	ldr	r3, [sp, #76]	; 0x4c
   b999e:	f8cd 805c 	str.w	r8, [sp, #92]	; 0x5c
   b99a2:	2b00      	cmp	r3, #0
   b99a4:	f040 856e 	bne.w	ba484 <_strtod_l+0xbac>
   b99a8:	4652      	mov	r2, sl
   b99aa:	465b      	mov	r3, fp
   b99ac:	e7e1      	b.n	b9972 <_strtod_l+0x9a>
   b99ae:	2200      	movs	r2, #0
   b99b0:	e7ee      	b.n	b9990 <_strtod_l+0xb8>
   b99b2:	9a18      	ldr	r2, [sp, #96]	; 0x60
   b99b4:	b13a      	cbz	r2, b99c6 <_strtod_l+0xee>
   b99b6:	2135      	movs	r1, #53	; 0x35
   b99b8:	a81a      	add	r0, sp, #104	; 0x68
   b99ba:	f001 feec 	bl	bb796 <__copybits>
   b99be:	9918      	ldr	r1, [sp, #96]	; 0x60
   b99c0:	4620      	mov	r0, r4
   b99c2:	f001 faab 	bl	baf1c <_Bfree>
   b99c6:	3f01      	subs	r7, #1
   b99c8:	2f04      	cmp	r7, #4
   b99ca:	d806      	bhi.n	b99da <_strtod_l+0x102>
   b99cc:	e8df f007 	tbb	[pc, r7]
   b99d0:	1714030a 	.word	0x1714030a
   b99d4:	0a          	.byte	0x0a
   b99d5:	00          	.byte	0x00
   b99d6:	e9dd ab1a 	ldrd	sl, fp, [sp, #104]	; 0x68
   b99da:	0728      	lsls	r0, r5, #28
   b99dc:	d5c0      	bpl.n	b9960 <_strtod_l+0x88>
   b99de:	f04b 4b00 	orr.w	fp, fp, #2147483648	; 0x80000000
   b99e2:	e7bd      	b.n	b9960 <_strtod_l+0x88>
   b99e4:	e9dd a31a 	ldrd	sl, r3, [sp, #104]	; 0x68
   b99e8:	9a19      	ldr	r2, [sp, #100]	; 0x64
   b99ea:	f423 1380 	bic.w	r3, r3, #1048576	; 0x100000
   b99ee:	f202 4233 	addw	r2, r2, #1075	; 0x433
   b99f2:	ea43 5b02 	orr.w	fp, r3, r2, lsl #20
   b99f6:	e7f0      	b.n	b99da <_strtod_l+0x102>
   b99f8:	f8df b180 	ldr.w	fp, [pc, #384]	; b9b7c <_strtod_l+0x2a4>
   b99fc:	e7ed      	b.n	b99da <_strtod_l+0x102>
   b99fe:	f06f 4b00 	mvn.w	fp, #2147483648	; 0x80000000
   b9a02:	f04f 3aff 	mov.w	sl, #4294967295
   b9a06:	e7e8      	b.n	b99da <_strtod_l+0x102>
   b9a08:	9b17      	ldr	r3, [sp, #92]	; 0x5c
   b9a0a:	1c5a      	adds	r2, r3, #1
   b9a0c:	9217      	str	r2, [sp, #92]	; 0x5c
   b9a0e:	785b      	ldrb	r3, [r3, #1]
   b9a10:	2b30      	cmp	r3, #48	; 0x30
   b9a12:	d0f9      	beq.n	b9a08 <_strtod_l+0x130>
   b9a14:	2b00      	cmp	r3, #0
   b9a16:	d0a3      	beq.n	b9960 <_strtod_l+0x88>
   b9a18:	2301      	movs	r3, #1
   b9a1a:	f04f 0900 	mov.w	r9, #0
   b9a1e:	9304      	str	r3, [sp, #16]
   b9a20:	9b17      	ldr	r3, [sp, #92]	; 0x5c
   b9a22:	9308      	str	r3, [sp, #32]
   b9a24:	f8cd 901c 	str.w	r9, [sp, #28]
   b9a28:	464f      	mov	r7, r9
   b9a2a:	220a      	movs	r2, #10
   b9a2c:	9817      	ldr	r0, [sp, #92]	; 0x5c
   b9a2e:	7806      	ldrb	r6, [r0, #0]
   b9a30:	f1a6 0330 	sub.w	r3, r6, #48	; 0x30
   b9a34:	b2d9      	uxtb	r1, r3
   b9a36:	2909      	cmp	r1, #9
   b9a38:	d92a      	bls.n	b9a90 <_strtod_l+0x1b8>
   b9a3a:	9905      	ldr	r1, [sp, #20]
   b9a3c:	462a      	mov	r2, r5
   b9a3e:	f7ff ff0e 	bl	b985e <strncmp>
   b9a42:	b398      	cbz	r0, b9aac <_strtod_l+0x1d4>
   b9a44:	2000      	movs	r0, #0
   b9a46:	4632      	mov	r2, r6
   b9a48:	463d      	mov	r5, r7
   b9a4a:	9005      	str	r0, [sp, #20]
   b9a4c:	4603      	mov	r3, r0
   b9a4e:	2a65      	cmp	r2, #101	; 0x65
   b9a50:	d001      	beq.n	b9a56 <_strtod_l+0x17e>
   b9a52:	2a45      	cmp	r2, #69	; 0x45
   b9a54:	d118      	bne.n	b9a88 <_strtod_l+0x1b0>
   b9a56:	b91d      	cbnz	r5, b9a60 <_strtod_l+0x188>
   b9a58:	9a04      	ldr	r2, [sp, #16]
   b9a5a:	4302      	orrs	r2, r0
   b9a5c:	d09e      	beq.n	b999c <_strtod_l+0xc4>
   b9a5e:	2500      	movs	r5, #0
   b9a60:	f8dd 805c 	ldr.w	r8, [sp, #92]	; 0x5c
   b9a64:	f108 0201 	add.w	r2, r8, #1
   b9a68:	9217      	str	r2, [sp, #92]	; 0x5c
   b9a6a:	f898 2001 	ldrb.w	r2, [r8, #1]
   b9a6e:	2a2b      	cmp	r2, #43	; 0x2b
   b9a70:	d075      	beq.n	b9b5e <_strtod_l+0x286>
   b9a72:	2a2d      	cmp	r2, #45	; 0x2d
   b9a74:	d07b      	beq.n	b9b6e <_strtod_l+0x296>
   b9a76:	f04f 0c00 	mov.w	ip, #0
   b9a7a:	f1a2 0130 	sub.w	r1, r2, #48	; 0x30
   b9a7e:	2909      	cmp	r1, #9
   b9a80:	f240 8082 	bls.w	b9b88 <_strtod_l+0x2b0>
   b9a84:	f8cd 805c 	str.w	r8, [sp, #92]	; 0x5c
   b9a88:	2600      	movs	r6, #0
   b9a8a:	e09d      	b.n	b9bc8 <_strtod_l+0x2f0>
   b9a8c:	2300      	movs	r3, #0
   b9a8e:	e7c4      	b.n	b9a1a <_strtod_l+0x142>
   b9a90:	2f08      	cmp	r7, #8
   b9a92:	bfd8      	it	le
   b9a94:	9907      	ldrle	r1, [sp, #28]
   b9a96:	f100 0001 	add.w	r0, r0, #1
   b9a9a:	bfda      	itte	le
   b9a9c:	fb02 3301 	mlale	r3, r2, r1, r3
   b9aa0:	9307      	strle	r3, [sp, #28]
   b9aa2:	fb02 3909 	mlagt	r9, r2, r9, r3
   b9aa6:	3701      	adds	r7, #1
   b9aa8:	9017      	str	r0, [sp, #92]	; 0x5c
   b9aaa:	e7bf      	b.n	b9a2c <_strtod_l+0x154>
   b9aac:	9b17      	ldr	r3, [sp, #92]	; 0x5c
   b9aae:	195a      	adds	r2, r3, r5
   b9ab0:	9217      	str	r2, [sp, #92]	; 0x5c
   b9ab2:	5d5a      	ldrb	r2, [r3, r5]
   b9ab4:	2f00      	cmp	r7, #0
   b9ab6:	d037      	beq.n	b9b28 <_strtod_l+0x250>
   b9ab8:	9005      	str	r0, [sp, #20]
   b9aba:	463d      	mov	r5, r7
   b9abc:	f1a2 0330 	sub.w	r3, r2, #48	; 0x30
   b9ac0:	2b09      	cmp	r3, #9
   b9ac2:	d912      	bls.n	b9aea <_strtod_l+0x212>
   b9ac4:	2301      	movs	r3, #1
   b9ac6:	e7c2      	b.n	b9a4e <_strtod_l+0x176>
   b9ac8:	9b17      	ldr	r3, [sp, #92]	; 0x5c
   b9aca:	1c5a      	adds	r2, r3, #1
   b9acc:	9217      	str	r2, [sp, #92]	; 0x5c
   b9ace:	785a      	ldrb	r2, [r3, #1]
   b9ad0:	3001      	adds	r0, #1
   b9ad2:	2a30      	cmp	r2, #48	; 0x30
   b9ad4:	d0f8      	beq.n	b9ac8 <_strtod_l+0x1f0>
   b9ad6:	f1a2 0331 	sub.w	r3, r2, #49	; 0x31
   b9ada:	2b08      	cmp	r3, #8
   b9adc:	f200 84d9 	bhi.w	ba492 <_strtod_l+0xbba>
   b9ae0:	9b17      	ldr	r3, [sp, #92]	; 0x5c
   b9ae2:	9005      	str	r0, [sp, #20]
   b9ae4:	2000      	movs	r0, #0
   b9ae6:	9308      	str	r3, [sp, #32]
   b9ae8:	4605      	mov	r5, r0
   b9aea:	3a30      	subs	r2, #48	; 0x30
   b9aec:	f100 0301 	add.w	r3, r0, #1
   b9af0:	d014      	beq.n	b9b1c <_strtod_l+0x244>
   b9af2:	9905      	ldr	r1, [sp, #20]
   b9af4:	4419      	add	r1, r3
   b9af6:	9105      	str	r1, [sp, #20]
   b9af8:	462b      	mov	r3, r5
   b9afa:	eb00 0e05 	add.w	lr, r0, r5
   b9afe:	210a      	movs	r1, #10
   b9b00:	4573      	cmp	r3, lr
   b9b02:	d113      	bne.n	b9b2c <_strtod_l+0x254>
   b9b04:	182b      	adds	r3, r5, r0
   b9b06:	2b08      	cmp	r3, #8
   b9b08:	f105 0501 	add.w	r5, r5, #1
   b9b0c:	4405      	add	r5, r0
   b9b0e:	dc1c      	bgt.n	b9b4a <_strtod_l+0x272>
   b9b10:	9907      	ldr	r1, [sp, #28]
   b9b12:	230a      	movs	r3, #10
   b9b14:	fb03 2301 	mla	r3, r3, r1, r2
   b9b18:	9307      	str	r3, [sp, #28]
   b9b1a:	2300      	movs	r3, #0
   b9b1c:	9a17      	ldr	r2, [sp, #92]	; 0x5c
   b9b1e:	1c51      	adds	r1, r2, #1
   b9b20:	9117      	str	r1, [sp, #92]	; 0x5c
   b9b22:	7852      	ldrb	r2, [r2, #1]
   b9b24:	4618      	mov	r0, r3
   b9b26:	e7c9      	b.n	b9abc <_strtod_l+0x1e4>
   b9b28:	4638      	mov	r0, r7
   b9b2a:	e7d2      	b.n	b9ad2 <_strtod_l+0x1fa>
   b9b2c:	2b08      	cmp	r3, #8
   b9b2e:	dc04      	bgt.n	b9b3a <_strtod_l+0x262>
   b9b30:	9e07      	ldr	r6, [sp, #28]
   b9b32:	434e      	muls	r6, r1
   b9b34:	9607      	str	r6, [sp, #28]
   b9b36:	3301      	adds	r3, #1
   b9b38:	e7e2      	b.n	b9b00 <_strtod_l+0x228>
   b9b3a:	f103 0c01 	add.w	ip, r3, #1
   b9b3e:	f1bc 0f10 	cmp.w	ip, #16
   b9b42:	bfd8      	it	le
   b9b44:	fb01 f909 	mulle.w	r9, r1, r9
   b9b48:	e7f5      	b.n	b9b36 <_strtod_l+0x25e>
   b9b4a:	2d10      	cmp	r5, #16
   b9b4c:	bfdc      	itt	le
   b9b4e:	230a      	movle	r3, #10
   b9b50:	fb03 2909 	mlale	r9, r3, r9, r2
   b9b54:	e7e1      	b.n	b9b1a <_strtod_l+0x242>
   b9b56:	2300      	movs	r3, #0
   b9b58:	9305      	str	r3, [sp, #20]
   b9b5a:	2301      	movs	r3, #1
   b9b5c:	e77c      	b.n	b9a58 <_strtod_l+0x180>
   b9b5e:	f04f 0c00 	mov.w	ip, #0
   b9b62:	f108 0202 	add.w	r2, r8, #2
   b9b66:	9217      	str	r2, [sp, #92]	; 0x5c
   b9b68:	f898 2002 	ldrb.w	r2, [r8, #2]
   b9b6c:	e785      	b.n	b9a7a <_strtod_l+0x1a2>
   b9b6e:	f04f 0c01 	mov.w	ip, #1
   b9b72:	e7f6      	b.n	b9b62 <_strtod_l+0x28a>
   b9b74:	000bc5f8 	.word	0x000bc5f8
   b9b78:	000bc38c 	.word	0x000bc38c
   b9b7c:	7ff00000 	.word	0x7ff00000
   b9b80:	9a17      	ldr	r2, [sp, #92]	; 0x5c
   b9b82:	1c51      	adds	r1, r2, #1
   b9b84:	9117      	str	r1, [sp, #92]	; 0x5c
   b9b86:	7852      	ldrb	r2, [r2, #1]
   b9b88:	2a30      	cmp	r2, #48	; 0x30
   b9b8a:	d0f9      	beq.n	b9b80 <_strtod_l+0x2a8>
   b9b8c:	f1a2 0131 	sub.w	r1, r2, #49	; 0x31
   b9b90:	2908      	cmp	r1, #8
   b9b92:	f63f af79 	bhi.w	b9a88 <_strtod_l+0x1b0>
   b9b96:	f1a2 0e30 	sub.w	lr, r2, #48	; 0x30
   b9b9a:	9a17      	ldr	r2, [sp, #92]	; 0x5c
   b9b9c:	9206      	str	r2, [sp, #24]
   b9b9e:	9a17      	ldr	r2, [sp, #92]	; 0x5c
   b9ba0:	1c51      	adds	r1, r2, #1
   b9ba2:	9117      	str	r1, [sp, #92]	; 0x5c
   b9ba4:	7852      	ldrb	r2, [r2, #1]
   b9ba6:	f1a2 0630 	sub.w	r6, r2, #48	; 0x30
   b9baa:	2e09      	cmp	r6, #9
   b9bac:	d937      	bls.n	b9c1e <_strtod_l+0x346>
   b9bae:	9e06      	ldr	r6, [sp, #24]
   b9bb0:	1b89      	subs	r1, r1, r6
   b9bb2:	2908      	cmp	r1, #8
   b9bb4:	f644 661f 	movw	r6, #19999	; 0x4e1f
   b9bb8:	dc02      	bgt.n	b9bc0 <_strtod_l+0x2e8>
   b9bba:	4576      	cmp	r6, lr
   b9bbc:	bfa8      	it	ge
   b9bbe:	4676      	movge	r6, lr
   b9bc0:	f1bc 0f00 	cmp.w	ip, #0
   b9bc4:	d000      	beq.n	b9bc8 <_strtod_l+0x2f0>
   b9bc6:	4276      	negs	r6, r6
   b9bc8:	2d00      	cmp	r5, #0
   b9bca:	d14d      	bne.n	b9c68 <_strtod_l+0x390>
   b9bcc:	9904      	ldr	r1, [sp, #16]
   b9bce:	4301      	orrs	r1, r0
   b9bd0:	f47f aec6 	bne.w	b9960 <_strtod_l+0x88>
   b9bd4:	2b00      	cmp	r3, #0
   b9bd6:	f47f aee1 	bne.w	b999c <_strtod_l+0xc4>
   b9bda:	2a69      	cmp	r2, #105	; 0x69
   b9bdc:	d027      	beq.n	b9c2e <_strtod_l+0x356>
   b9bde:	dc24      	bgt.n	b9c2a <_strtod_l+0x352>
   b9be0:	2a49      	cmp	r2, #73	; 0x49
   b9be2:	d024      	beq.n	b9c2e <_strtod_l+0x356>
   b9be4:	2a4e      	cmp	r2, #78	; 0x4e
   b9be6:	f47f aed9 	bne.w	b999c <_strtod_l+0xc4>
   b9bea:	499f      	ldr	r1, [pc, #636]	; (b9e68 <_strtod_l+0x590>)
   b9bec:	a817      	add	r0, sp, #92	; 0x5c
   b9bee:	f001 f88f 	bl	bad10 <__match>
   b9bf2:	2800      	cmp	r0, #0
   b9bf4:	f43f aed2 	beq.w	b999c <_strtod_l+0xc4>
   b9bf8:	9b17      	ldr	r3, [sp, #92]	; 0x5c
   b9bfa:	781b      	ldrb	r3, [r3, #0]
   b9bfc:	2b28      	cmp	r3, #40	; 0x28
   b9bfe:	d12d      	bne.n	b9c5c <_strtod_l+0x384>
   b9c00:	499a      	ldr	r1, [pc, #616]	; (b9e6c <_strtod_l+0x594>)
   b9c02:	aa1a      	add	r2, sp, #104	; 0x68
   b9c04:	a817      	add	r0, sp, #92	; 0x5c
   b9c06:	f001 f897 	bl	bad38 <__hexnan>
   b9c0a:	2805      	cmp	r0, #5
   b9c0c:	d126      	bne.n	b9c5c <_strtod_l+0x384>
   b9c0e:	9b1b      	ldr	r3, [sp, #108]	; 0x6c
   b9c10:	f8dd a068 	ldr.w	sl, [sp, #104]	; 0x68
   b9c14:	f043 4bff 	orr.w	fp, r3, #2139095040	; 0x7f800000
   b9c18:	f44b 0be0 	orr.w	fp, fp, #7340032	; 0x700000
   b9c1c:	e6a0      	b.n	b9960 <_strtod_l+0x88>
   b9c1e:	210a      	movs	r1, #10
   b9c20:	fb01 2e0e 	mla	lr, r1, lr, r2
   b9c24:	f1ae 0e30 	sub.w	lr, lr, #48	; 0x30
   b9c28:	e7b9      	b.n	b9b9e <_strtod_l+0x2c6>
   b9c2a:	2a6e      	cmp	r2, #110	; 0x6e
   b9c2c:	e7db      	b.n	b9be6 <_strtod_l+0x30e>
   b9c2e:	4990      	ldr	r1, [pc, #576]	; (b9e70 <_strtod_l+0x598>)
   b9c30:	a817      	add	r0, sp, #92	; 0x5c
   b9c32:	f001 f86d 	bl	bad10 <__match>
   b9c36:	2800      	cmp	r0, #0
   b9c38:	f43f aeb0 	beq.w	b999c <_strtod_l+0xc4>
   b9c3c:	9b17      	ldr	r3, [sp, #92]	; 0x5c
   b9c3e:	498d      	ldr	r1, [pc, #564]	; (b9e74 <_strtod_l+0x59c>)
   b9c40:	3b01      	subs	r3, #1
   b9c42:	a817      	add	r0, sp, #92	; 0x5c
   b9c44:	9317      	str	r3, [sp, #92]	; 0x5c
   b9c46:	f001 f863 	bl	bad10 <__match>
   b9c4a:	b910      	cbnz	r0, b9c52 <_strtod_l+0x37a>
   b9c4c:	9b17      	ldr	r3, [sp, #92]	; 0x5c
   b9c4e:	3301      	adds	r3, #1
   b9c50:	9317      	str	r3, [sp, #92]	; 0x5c
   b9c52:	f8df b230 	ldr.w	fp, [pc, #560]	; b9e84 <_strtod_l+0x5ac>
   b9c56:	f04f 0a00 	mov.w	sl, #0
   b9c5a:	e681      	b.n	b9960 <_strtod_l+0x88>
   b9c5c:	4886      	ldr	r0, [pc, #536]	; (b9e78 <_strtod_l+0x5a0>)
   b9c5e:	f001 fdef 	bl	bb840 <nan>
   b9c62:	ec5b ab10 	vmov	sl, fp, d0
   b9c66:	e67b      	b.n	b9960 <_strtod_l+0x88>
   b9c68:	9b05      	ldr	r3, [sp, #20]
   b9c6a:	9807      	ldr	r0, [sp, #28]
   b9c6c:	1af3      	subs	r3, r6, r3
   b9c6e:	2f00      	cmp	r7, #0
   b9c70:	bf08      	it	eq
   b9c72:	462f      	moveq	r7, r5
   b9c74:	2d10      	cmp	r5, #16
   b9c76:	9306      	str	r3, [sp, #24]
   b9c78:	46a8      	mov	r8, r5
   b9c7a:	bfa8      	it	ge
   b9c7c:	f04f 0810 	movge.w	r8, #16
   b9c80:	f7ff f9a4 	bl	b8fcc <__aeabi_ui2d>
   b9c84:	2d09      	cmp	r5, #9
   b9c86:	4682      	mov	sl, r0
   b9c88:	468b      	mov	fp, r1
   b9c8a:	dd13      	ble.n	b9cb4 <_strtod_l+0x3dc>
   b9c8c:	4b7b      	ldr	r3, [pc, #492]	; (b9e7c <_strtod_l+0x5a4>)
   b9c8e:	eb03 03c8 	add.w	r3, r3, r8, lsl #3
   b9c92:	e953 2312 	ldrd	r2, r3, [r3, #-72]	; 0x48
   b9c96:	f7ff fa13 	bl	b90c0 <__aeabi_dmul>
   b9c9a:	4682      	mov	sl, r0
   b9c9c:	4648      	mov	r0, r9
   b9c9e:	468b      	mov	fp, r1
   b9ca0:	f7ff f994 	bl	b8fcc <__aeabi_ui2d>
   b9ca4:	4602      	mov	r2, r0
   b9ca6:	460b      	mov	r3, r1
   b9ca8:	4650      	mov	r0, sl
   b9caa:	4659      	mov	r1, fp
   b9cac:	f7ff f852 	bl	b8d54 <__adddf3>
   b9cb0:	4682      	mov	sl, r0
   b9cb2:	468b      	mov	fp, r1
   b9cb4:	2d0f      	cmp	r5, #15
   b9cb6:	dc38      	bgt.n	b9d2a <_strtod_l+0x452>
   b9cb8:	9b06      	ldr	r3, [sp, #24]
   b9cba:	2b00      	cmp	r3, #0
   b9cbc:	f43f ae50 	beq.w	b9960 <_strtod_l+0x88>
   b9cc0:	dd24      	ble.n	b9d0c <_strtod_l+0x434>
   b9cc2:	2b16      	cmp	r3, #22
   b9cc4:	dc0b      	bgt.n	b9cde <_strtod_l+0x406>
   b9cc6:	496d      	ldr	r1, [pc, #436]	; (b9e7c <_strtod_l+0x5a4>)
   b9cc8:	eb01 01c3 	add.w	r1, r1, r3, lsl #3
   b9ccc:	e9d1 0100 	ldrd	r0, r1, [r1]
   b9cd0:	4652      	mov	r2, sl
   b9cd2:	465b      	mov	r3, fp
   b9cd4:	f7ff f9f4 	bl	b90c0 <__aeabi_dmul>
   b9cd8:	4682      	mov	sl, r0
   b9cda:	468b      	mov	fp, r1
   b9cdc:	e640      	b.n	b9960 <_strtod_l+0x88>
   b9cde:	9a06      	ldr	r2, [sp, #24]
   b9ce0:	f1c5 0325 	rsb	r3, r5, #37	; 0x25
   b9ce4:	4293      	cmp	r3, r2
   b9ce6:	db20      	blt.n	b9d2a <_strtod_l+0x452>
   b9ce8:	4c64      	ldr	r4, [pc, #400]	; (b9e7c <_strtod_l+0x5a4>)
   b9cea:	f1c5 050f 	rsb	r5, r5, #15
   b9cee:	eb04 01c5 	add.w	r1, r4, r5, lsl #3
   b9cf2:	4652      	mov	r2, sl
   b9cf4:	465b      	mov	r3, fp
   b9cf6:	e9d1 0100 	ldrd	r0, r1, [r1]
   b9cfa:	f7ff f9e1 	bl	b90c0 <__aeabi_dmul>
   b9cfe:	9b06      	ldr	r3, [sp, #24]
   b9d00:	1b5d      	subs	r5, r3, r5
   b9d02:	eb04 04c5 	add.w	r4, r4, r5, lsl #3
   b9d06:	e9d4 2300 	ldrd	r2, r3, [r4]
   b9d0a:	e7e3      	b.n	b9cd4 <_strtod_l+0x3fc>
   b9d0c:	9b06      	ldr	r3, [sp, #24]
   b9d0e:	3316      	adds	r3, #22
   b9d10:	db0b      	blt.n	b9d2a <_strtod_l+0x452>
   b9d12:	9b05      	ldr	r3, [sp, #20]
   b9d14:	1b9e      	subs	r6, r3, r6
   b9d16:	4b59      	ldr	r3, [pc, #356]	; (b9e7c <_strtod_l+0x5a4>)
   b9d18:	eb03 06c6 	add.w	r6, r3, r6, lsl #3
   b9d1c:	e9d6 2300 	ldrd	r2, r3, [r6]
   b9d20:	4650      	mov	r0, sl
   b9d22:	4659      	mov	r1, fp
   b9d24:	f7ff faf6 	bl	b9314 <__aeabi_ddiv>
   b9d28:	e7d6      	b.n	b9cd8 <_strtod_l+0x400>
   b9d2a:	9b06      	ldr	r3, [sp, #24]
   b9d2c:	eba5 0808 	sub.w	r8, r5, r8
   b9d30:	4498      	add	r8, r3
   b9d32:	f1b8 0f00 	cmp.w	r8, #0
   b9d36:	dd74      	ble.n	b9e22 <_strtod_l+0x54a>
   b9d38:	f018 030f 	ands.w	r3, r8, #15
   b9d3c:	d00a      	beq.n	b9d54 <_strtod_l+0x47c>
   b9d3e:	494f      	ldr	r1, [pc, #316]	; (b9e7c <_strtod_l+0x5a4>)
   b9d40:	eb01 01c3 	add.w	r1, r1, r3, lsl #3
   b9d44:	4652      	mov	r2, sl
   b9d46:	465b      	mov	r3, fp
   b9d48:	e9d1 0100 	ldrd	r0, r1, [r1]
   b9d4c:	f7ff f9b8 	bl	b90c0 <__aeabi_dmul>
   b9d50:	4682      	mov	sl, r0
   b9d52:	468b      	mov	fp, r1
   b9d54:	f038 080f 	bics.w	r8, r8, #15
   b9d58:	d04f      	beq.n	b9dfa <_strtod_l+0x522>
   b9d5a:	f5b8 7f9a 	cmp.w	r8, #308	; 0x134
   b9d5e:	dd22      	ble.n	b9da6 <_strtod_l+0x4ce>
   b9d60:	2500      	movs	r5, #0
   b9d62:	462e      	mov	r6, r5
   b9d64:	9507      	str	r5, [sp, #28]
   b9d66:	9505      	str	r5, [sp, #20]
   b9d68:	2322      	movs	r3, #34	; 0x22
   b9d6a:	f8df b118 	ldr.w	fp, [pc, #280]	; b9e84 <_strtod_l+0x5ac>
   b9d6e:	6023      	str	r3, [r4, #0]
   b9d70:	f04f 0a00 	mov.w	sl, #0
   b9d74:	9b07      	ldr	r3, [sp, #28]
   b9d76:	2b00      	cmp	r3, #0
   b9d78:	f43f adf2 	beq.w	b9960 <_strtod_l+0x88>
   b9d7c:	9918      	ldr	r1, [sp, #96]	; 0x60
   b9d7e:	4620      	mov	r0, r4
   b9d80:	f001 f8cc 	bl	baf1c <_Bfree>
   b9d84:	9905      	ldr	r1, [sp, #20]
   b9d86:	4620      	mov	r0, r4
   b9d88:	f001 f8c8 	bl	baf1c <_Bfree>
   b9d8c:	4631      	mov	r1, r6
   b9d8e:	4620      	mov	r0, r4
   b9d90:	f001 f8c4 	bl	baf1c <_Bfree>
   b9d94:	9907      	ldr	r1, [sp, #28]
   b9d96:	4620      	mov	r0, r4
   b9d98:	f001 f8c0 	bl	baf1c <_Bfree>
   b9d9c:	4629      	mov	r1, r5
   b9d9e:	4620      	mov	r0, r4
   b9da0:	f001 f8bc 	bl	baf1c <_Bfree>
   b9da4:	e5dc      	b.n	b9960 <_strtod_l+0x88>
   b9da6:	4b36      	ldr	r3, [pc, #216]	; (b9e80 <_strtod_l+0x5a8>)
   b9da8:	9304      	str	r3, [sp, #16]
   b9daa:	2300      	movs	r3, #0
   b9dac:	ea4f 1828 	mov.w	r8, r8, asr #4
   b9db0:	4650      	mov	r0, sl
   b9db2:	4659      	mov	r1, fp
   b9db4:	4699      	mov	r9, r3
   b9db6:	f1b8 0f01 	cmp.w	r8, #1
   b9dba:	dc21      	bgt.n	b9e00 <_strtod_l+0x528>
   b9dbc:	b10b      	cbz	r3, b9dc2 <_strtod_l+0x4ea>
   b9dbe:	4682      	mov	sl, r0
   b9dc0:	468b      	mov	fp, r1
   b9dc2:	4b2f      	ldr	r3, [pc, #188]	; (b9e80 <_strtod_l+0x5a8>)
   b9dc4:	f1ab 7b54 	sub.w	fp, fp, #55574528	; 0x3500000
   b9dc8:	eb03 09c9 	add.w	r9, r3, r9, lsl #3
   b9dcc:	4652      	mov	r2, sl
   b9dce:	465b      	mov	r3, fp
   b9dd0:	e9d9 0100 	ldrd	r0, r1, [r9]
   b9dd4:	f7ff f974 	bl	b90c0 <__aeabi_dmul>
   b9dd8:	4b2a      	ldr	r3, [pc, #168]	; (b9e84 <_strtod_l+0x5ac>)
   b9dda:	460a      	mov	r2, r1
   b9ddc:	400b      	ands	r3, r1
   b9dde:	492a      	ldr	r1, [pc, #168]	; (b9e88 <_strtod_l+0x5b0>)
   b9de0:	428b      	cmp	r3, r1
   b9de2:	4682      	mov	sl, r0
   b9de4:	d8bc      	bhi.n	b9d60 <_strtod_l+0x488>
   b9de6:	f5a1 1180 	sub.w	r1, r1, #1048576	; 0x100000
   b9dea:	428b      	cmp	r3, r1
   b9dec:	bf86      	itte	hi
   b9dee:	f8df b09c 	ldrhi.w	fp, [pc, #156]	; b9e8c <_strtod_l+0x5b4>
   b9df2:	f04f 3aff 	movhi.w	sl, #4294967295
   b9df6:	f102 7b54 	addls.w	fp, r2, #55574528	; 0x3500000
   b9dfa:	2300      	movs	r3, #0
   b9dfc:	9304      	str	r3, [sp, #16]
   b9dfe:	e084      	b.n	b9f0a <_strtod_l+0x632>
   b9e00:	f018 0f01 	tst.w	r8, #1
   b9e04:	d005      	beq.n	b9e12 <_strtod_l+0x53a>
   b9e06:	9b04      	ldr	r3, [sp, #16]
   b9e08:	e9d3 2300 	ldrd	r2, r3, [r3]
   b9e0c:	f7ff f958 	bl	b90c0 <__aeabi_dmul>
   b9e10:	2301      	movs	r3, #1
   b9e12:	9a04      	ldr	r2, [sp, #16]
   b9e14:	3208      	adds	r2, #8
   b9e16:	f109 0901 	add.w	r9, r9, #1
   b9e1a:	ea4f 0868 	mov.w	r8, r8, asr #1
   b9e1e:	9204      	str	r2, [sp, #16]
   b9e20:	e7c9      	b.n	b9db6 <_strtod_l+0x4de>
   b9e22:	d0ea      	beq.n	b9dfa <_strtod_l+0x522>
   b9e24:	f1c8 0800 	rsb	r8, r8, #0
   b9e28:	f018 020f 	ands.w	r2, r8, #15
   b9e2c:	d00a      	beq.n	b9e44 <_strtod_l+0x56c>
   b9e2e:	4b13      	ldr	r3, [pc, #76]	; (b9e7c <_strtod_l+0x5a4>)
   b9e30:	eb03 03c2 	add.w	r3, r3, r2, lsl #3
   b9e34:	4650      	mov	r0, sl
   b9e36:	4659      	mov	r1, fp
   b9e38:	e9d3 2300 	ldrd	r2, r3, [r3]
   b9e3c:	f7ff fa6a 	bl	b9314 <__aeabi_ddiv>
   b9e40:	4682      	mov	sl, r0
   b9e42:	468b      	mov	fp, r1
   b9e44:	ea5f 1828 	movs.w	r8, r8, asr #4
   b9e48:	d0d7      	beq.n	b9dfa <_strtod_l+0x522>
   b9e4a:	f1b8 0f1f 	cmp.w	r8, #31
   b9e4e:	dd1f      	ble.n	b9e90 <_strtod_l+0x5b8>
   b9e50:	2500      	movs	r5, #0
   b9e52:	462e      	mov	r6, r5
   b9e54:	9507      	str	r5, [sp, #28]
   b9e56:	9505      	str	r5, [sp, #20]
   b9e58:	2322      	movs	r3, #34	; 0x22
   b9e5a:	f04f 0a00 	mov.w	sl, #0
   b9e5e:	f04f 0b00 	mov.w	fp, #0
   b9e62:	6023      	str	r3, [r4, #0]
   b9e64:	e786      	b.n	b9d74 <_strtod_l+0x49c>
   b9e66:	bf00      	nop
   b9e68:	000bc386 	.word	0x000bc386
   b9e6c:	000bc3a0 	.word	0x000bc3a0
   b9e70:	000bc37d 	.word	0x000bc37d
   b9e74:	000bc380 	.word	0x000bc380
   b9e78:	000bbc5e 	.word	0x000bbc5e
   b9e7c:	000bc6b8 	.word	0x000bc6b8
   b9e80:	000bc690 	.word	0x000bc690
   b9e84:	7ff00000 	.word	0x7ff00000
   b9e88:	7ca00000 	.word	0x7ca00000
   b9e8c:	7fefffff 	.word	0x7fefffff
   b9e90:	f018 0310 	ands.w	r3, r8, #16
   b9e94:	bf18      	it	ne
   b9e96:	236a      	movne	r3, #106	; 0x6a
   b9e98:	f8df 93ac 	ldr.w	r9, [pc, #940]	; ba248 <_strtod_l+0x970>
   b9e9c:	9304      	str	r3, [sp, #16]
   b9e9e:	4650      	mov	r0, sl
   b9ea0:	4659      	mov	r1, fp
   b9ea2:	2300      	movs	r3, #0
   b9ea4:	f018 0f01 	tst.w	r8, #1
   b9ea8:	d004      	beq.n	b9eb4 <_strtod_l+0x5dc>
   b9eaa:	e9d9 2300 	ldrd	r2, r3, [r9]
   b9eae:	f7ff f907 	bl	b90c0 <__aeabi_dmul>
   b9eb2:	2301      	movs	r3, #1
   b9eb4:	ea5f 0868 	movs.w	r8, r8, asr #1
   b9eb8:	f109 0908 	add.w	r9, r9, #8
   b9ebc:	d1f2      	bne.n	b9ea4 <_strtod_l+0x5cc>
   b9ebe:	b10b      	cbz	r3, b9ec4 <_strtod_l+0x5ec>
   b9ec0:	4682      	mov	sl, r0
   b9ec2:	468b      	mov	fp, r1
   b9ec4:	9b04      	ldr	r3, [sp, #16]
   b9ec6:	b1c3      	cbz	r3, b9efa <_strtod_l+0x622>
   b9ec8:	f3cb 520a 	ubfx	r2, fp, #20, #11
   b9ecc:	f1c2 036b 	rsb	r3, r2, #107	; 0x6b
   b9ed0:	2b00      	cmp	r3, #0
   b9ed2:	4659      	mov	r1, fp
   b9ed4:	dd11      	ble.n	b9efa <_strtod_l+0x622>
   b9ed6:	2b1f      	cmp	r3, #31
   b9ed8:	f340 8124 	ble.w	ba124 <_strtod_l+0x84c>
   b9edc:	2b34      	cmp	r3, #52	; 0x34
   b9ede:	bfde      	ittt	le
   b9ee0:	f1c2 024b 	rsble	r2, r2, #75	; 0x4b
   b9ee4:	f04f 33ff 	movle.w	r3, #4294967295
   b9ee8:	fa03 f202 	lslle.w	r2, r3, r2
   b9eec:	f04f 0a00 	mov.w	sl, #0
   b9ef0:	bfcc      	ite	gt
   b9ef2:	f04f 7b5c 	movgt.w	fp, #57671680	; 0x3700000
   b9ef6:	ea02 0b01 	andle.w	fp, r2, r1
   b9efa:	2200      	movs	r2, #0
   b9efc:	2300      	movs	r3, #0
   b9efe:	4650      	mov	r0, sl
   b9f00:	4659      	mov	r1, fp
   b9f02:	f7ff fb45 	bl	b9590 <__aeabi_dcmpeq>
   b9f06:	2800      	cmp	r0, #0
   b9f08:	d1a2      	bne.n	b9e50 <_strtod_l+0x578>
   b9f0a:	9b07      	ldr	r3, [sp, #28]
   b9f0c:	9300      	str	r3, [sp, #0]
   b9f0e:	9908      	ldr	r1, [sp, #32]
   b9f10:	462b      	mov	r3, r5
   b9f12:	463a      	mov	r2, r7
   b9f14:	4620      	mov	r0, r4
   b9f16:	f001 f869 	bl	bafec <__s2b>
   b9f1a:	9007      	str	r0, [sp, #28]
   b9f1c:	2800      	cmp	r0, #0
   b9f1e:	f43f af1f 	beq.w	b9d60 <_strtod_l+0x488>
   b9f22:	9b05      	ldr	r3, [sp, #20]
   b9f24:	1b9e      	subs	r6, r3, r6
   b9f26:	9b06      	ldr	r3, [sp, #24]
   b9f28:	2b00      	cmp	r3, #0
   b9f2a:	bfb4      	ite	lt
   b9f2c:	4633      	movlt	r3, r6
   b9f2e:	2300      	movge	r3, #0
   b9f30:	930c      	str	r3, [sp, #48]	; 0x30
   b9f32:	9b06      	ldr	r3, [sp, #24]
   b9f34:	2500      	movs	r5, #0
   b9f36:	ea23 73e3 	bic.w	r3, r3, r3, asr #31
   b9f3a:	9312      	str	r3, [sp, #72]	; 0x48
   b9f3c:	462e      	mov	r6, r5
   b9f3e:	9b07      	ldr	r3, [sp, #28]
   b9f40:	4620      	mov	r0, r4
   b9f42:	6859      	ldr	r1, [r3, #4]
   b9f44:	f000 ffaa 	bl	bae9c <_Balloc>
   b9f48:	9005      	str	r0, [sp, #20]
   b9f4a:	2800      	cmp	r0, #0
   b9f4c:	f43f af0c 	beq.w	b9d68 <_strtod_l+0x490>
   b9f50:	9b07      	ldr	r3, [sp, #28]
   b9f52:	691a      	ldr	r2, [r3, #16]
   b9f54:	3202      	adds	r2, #2
   b9f56:	f103 010c 	add.w	r1, r3, #12
   b9f5a:	0092      	lsls	r2, r2, #2
   b9f5c:	300c      	adds	r0, #12
   b9f5e:	f7ff fbd8 	bl	b9712 <memcpy>
   b9f62:	ec4b ab10 	vmov	d0, sl, fp
   b9f66:	aa1a      	add	r2, sp, #104	; 0x68
   b9f68:	a919      	add	r1, sp, #100	; 0x64
   b9f6a:	4620      	mov	r0, r4
   b9f6c:	f001 fb84 	bl	bb678 <__d2b>
   b9f70:	ec4b ab18 	vmov	d8, sl, fp
   b9f74:	9018      	str	r0, [sp, #96]	; 0x60
   b9f76:	2800      	cmp	r0, #0
   b9f78:	f43f aef6 	beq.w	b9d68 <_strtod_l+0x490>
   b9f7c:	2101      	movs	r1, #1
   b9f7e:	4620      	mov	r0, r4
   b9f80:	f001 f8ce 	bl	bb120 <__i2b>
   b9f84:	4606      	mov	r6, r0
   b9f86:	2800      	cmp	r0, #0
   b9f88:	f43f aeee 	beq.w	b9d68 <_strtod_l+0x490>
   b9f8c:	9b19      	ldr	r3, [sp, #100]	; 0x64
   b9f8e:	9904      	ldr	r1, [sp, #16]
   b9f90:	2b00      	cmp	r3, #0
   b9f92:	bfab      	itete	ge
   b9f94:	9a0c      	ldrge	r2, [sp, #48]	; 0x30
   b9f96:	9a12      	ldrlt	r2, [sp, #72]	; 0x48
   b9f98:	9f12      	ldrge	r7, [sp, #72]	; 0x48
   b9f9a:	f8dd 9030 	ldrlt.w	r9, [sp, #48]	; 0x30
   b9f9e:	bfac      	ite	ge
   b9fa0:	eb03 0902 	addge.w	r9, r3, r2
   b9fa4:	1ad7      	sublt	r7, r2, r3
   b9fa6:	9a1a      	ldr	r2, [sp, #104]	; 0x68
   b9fa8:	eba3 0801 	sub.w	r8, r3, r1
   b9fac:	4490      	add	r8, r2
   b9fae:	4ba1      	ldr	r3, [pc, #644]	; (ba234 <_strtod_l+0x95c>)
   b9fb0:	f108 38ff 	add.w	r8, r8, #4294967295
   b9fb4:	4598      	cmp	r8, r3
   b9fb6:	f1c2 0236 	rsb	r2, r2, #54	; 0x36
   b9fba:	f280 80c7 	bge.w	ba14c <_strtod_l+0x874>
   b9fbe:	eba3 0308 	sub.w	r3, r3, r8
   b9fc2:	2b1f      	cmp	r3, #31
   b9fc4:	eba2 0203 	sub.w	r2, r2, r3
   b9fc8:	f04f 0101 	mov.w	r1, #1
   b9fcc:	f300 80b1 	bgt.w	ba132 <_strtod_l+0x85a>
   b9fd0:	fa01 f303 	lsl.w	r3, r1, r3
   b9fd4:	930d      	str	r3, [sp, #52]	; 0x34
   b9fd6:	2300      	movs	r3, #0
   b9fd8:	9308      	str	r3, [sp, #32]
   b9fda:	eb09 0802 	add.w	r8, r9, r2
   b9fde:	9b04      	ldr	r3, [sp, #16]
   b9fe0:	45c1      	cmp	r9, r8
   b9fe2:	4417      	add	r7, r2
   b9fe4:	441f      	add	r7, r3
   b9fe6:	464b      	mov	r3, r9
   b9fe8:	bfa8      	it	ge
   b9fea:	4643      	movge	r3, r8
   b9fec:	42bb      	cmp	r3, r7
   b9fee:	bfa8      	it	ge
   b9ff0:	463b      	movge	r3, r7
   b9ff2:	2b00      	cmp	r3, #0
   b9ff4:	bfc2      	ittt	gt
   b9ff6:	eba8 0803 	subgt.w	r8, r8, r3
   b9ffa:	1aff      	subgt	r7, r7, r3
   b9ffc:	eba9 0903 	subgt.w	r9, r9, r3
   ba000:	9b0c      	ldr	r3, [sp, #48]	; 0x30
   ba002:	2b00      	cmp	r3, #0
   ba004:	dd17      	ble.n	ba036 <_strtod_l+0x75e>
   ba006:	4631      	mov	r1, r6
   ba008:	461a      	mov	r2, r3
   ba00a:	4620      	mov	r0, r4
   ba00c:	f001 f948 	bl	bb2a0 <__pow5mult>
   ba010:	4606      	mov	r6, r0
   ba012:	2800      	cmp	r0, #0
   ba014:	f43f aea8 	beq.w	b9d68 <_strtod_l+0x490>
   ba018:	4601      	mov	r1, r0
   ba01a:	9a18      	ldr	r2, [sp, #96]	; 0x60
   ba01c:	4620      	mov	r0, r4
   ba01e:	f001 f895 	bl	bb14c <__multiply>
   ba022:	900b      	str	r0, [sp, #44]	; 0x2c
   ba024:	2800      	cmp	r0, #0
   ba026:	f43f ae9f 	beq.w	b9d68 <_strtod_l+0x490>
   ba02a:	9918      	ldr	r1, [sp, #96]	; 0x60
   ba02c:	4620      	mov	r0, r4
   ba02e:	f000 ff75 	bl	baf1c <_Bfree>
   ba032:	9b0b      	ldr	r3, [sp, #44]	; 0x2c
   ba034:	9318      	str	r3, [sp, #96]	; 0x60
   ba036:	f1b8 0f00 	cmp.w	r8, #0
   ba03a:	f300 808c 	bgt.w	ba156 <_strtod_l+0x87e>
   ba03e:	9b06      	ldr	r3, [sp, #24]
   ba040:	2b00      	cmp	r3, #0
   ba042:	dd08      	ble.n	ba056 <_strtod_l+0x77e>
   ba044:	9a12      	ldr	r2, [sp, #72]	; 0x48
   ba046:	9905      	ldr	r1, [sp, #20]
   ba048:	4620      	mov	r0, r4
   ba04a:	f001 f929 	bl	bb2a0 <__pow5mult>
   ba04e:	9005      	str	r0, [sp, #20]
   ba050:	2800      	cmp	r0, #0
   ba052:	f43f ae89 	beq.w	b9d68 <_strtod_l+0x490>
   ba056:	2f00      	cmp	r7, #0
   ba058:	dd08      	ble.n	ba06c <_strtod_l+0x794>
   ba05a:	9905      	ldr	r1, [sp, #20]
   ba05c:	463a      	mov	r2, r7
   ba05e:	4620      	mov	r0, r4
   ba060:	f001 f978 	bl	bb354 <__lshift>
   ba064:	9005      	str	r0, [sp, #20]
   ba066:	2800      	cmp	r0, #0
   ba068:	f43f ae7e 	beq.w	b9d68 <_strtod_l+0x490>
   ba06c:	f1b9 0f00 	cmp.w	r9, #0
   ba070:	dd08      	ble.n	ba084 <_strtod_l+0x7ac>
   ba072:	4631      	mov	r1, r6
   ba074:	464a      	mov	r2, r9
   ba076:	4620      	mov	r0, r4
   ba078:	f001 f96c 	bl	bb354 <__lshift>
   ba07c:	4606      	mov	r6, r0
   ba07e:	2800      	cmp	r0, #0
   ba080:	f43f ae72 	beq.w	b9d68 <_strtod_l+0x490>
   ba084:	9a05      	ldr	r2, [sp, #20]
   ba086:	9918      	ldr	r1, [sp, #96]	; 0x60
   ba088:	4620      	mov	r0, r4
   ba08a:	f001 f9ef 	bl	bb46c <__mdiff>
   ba08e:	4605      	mov	r5, r0
   ba090:	2800      	cmp	r0, #0
   ba092:	f43f ae69 	beq.w	b9d68 <_strtod_l+0x490>
   ba096:	68c3      	ldr	r3, [r0, #12]
   ba098:	930b      	str	r3, [sp, #44]	; 0x2c
   ba09a:	2300      	movs	r3, #0
   ba09c:	60c3      	str	r3, [r0, #12]
   ba09e:	4631      	mov	r1, r6
   ba0a0:	f001 f9c8 	bl	bb434 <__mcmp>
   ba0a4:	2800      	cmp	r0, #0
   ba0a6:	da60      	bge.n	ba16a <_strtod_l+0x892>
   ba0a8:	9b0b      	ldr	r3, [sp, #44]	; 0x2c
   ba0aa:	ea53 030a 	orrs.w	r3, r3, sl
   ba0ae:	f040 8082 	bne.w	ba1b6 <_strtod_l+0x8de>
   ba0b2:	f3cb 0313 	ubfx	r3, fp, #0, #20
   ba0b6:	2b00      	cmp	r3, #0
   ba0b8:	d17d      	bne.n	ba1b6 <_strtod_l+0x8de>
   ba0ba:	f02b 4300 	bic.w	r3, fp, #2147483648	; 0x80000000
   ba0be:	0d1b      	lsrs	r3, r3, #20
   ba0c0:	051b      	lsls	r3, r3, #20
   ba0c2:	f1b3 6fd6 	cmp.w	r3, #112197632	; 0x6b00000
   ba0c6:	d976      	bls.n	ba1b6 <_strtod_l+0x8de>
   ba0c8:	696b      	ldr	r3, [r5, #20]
   ba0ca:	b913      	cbnz	r3, ba0d2 <_strtod_l+0x7fa>
   ba0cc:	692b      	ldr	r3, [r5, #16]
   ba0ce:	2b01      	cmp	r3, #1
   ba0d0:	dd71      	ble.n	ba1b6 <_strtod_l+0x8de>
   ba0d2:	4629      	mov	r1, r5
   ba0d4:	2201      	movs	r2, #1
   ba0d6:	4620      	mov	r0, r4
   ba0d8:	f001 f93c 	bl	bb354 <__lshift>
   ba0dc:	4631      	mov	r1, r6
   ba0de:	4605      	mov	r5, r0
   ba0e0:	f001 f9a8 	bl	bb434 <__mcmp>
   ba0e4:	2800      	cmp	r0, #0
   ba0e6:	dd66      	ble.n	ba1b6 <_strtod_l+0x8de>
   ba0e8:	9904      	ldr	r1, [sp, #16]
   ba0ea:	4a53      	ldr	r2, [pc, #332]	; (ba238 <_strtod_l+0x960>)
   ba0ec:	465b      	mov	r3, fp
   ba0ee:	2900      	cmp	r1, #0
   ba0f0:	f000 8081 	beq.w	ba1f6 <_strtod_l+0x91e>
   ba0f4:	ea02 010b 	and.w	r1, r2, fp
   ba0f8:	f1b1 6fd6 	cmp.w	r1, #112197632	; 0x6b00000
   ba0fc:	dc7b      	bgt.n	ba1f6 <_strtod_l+0x91e>
   ba0fe:	f1b1 7f5c 	cmp.w	r1, #57671680	; 0x3700000
   ba102:	f77f aea9 	ble.w	b9e58 <_strtod_l+0x580>
   ba106:	4b4d      	ldr	r3, [pc, #308]	; (ba23c <_strtod_l+0x964>)
   ba108:	4650      	mov	r0, sl
   ba10a:	4659      	mov	r1, fp
   ba10c:	2200      	movs	r2, #0
   ba10e:	f7fe ffd7 	bl	b90c0 <__aeabi_dmul>
   ba112:	460b      	mov	r3, r1
   ba114:	4303      	orrs	r3, r0
   ba116:	bf08      	it	eq
   ba118:	2322      	moveq	r3, #34	; 0x22
   ba11a:	4682      	mov	sl, r0
   ba11c:	468b      	mov	fp, r1
   ba11e:	bf08      	it	eq
   ba120:	6023      	streq	r3, [r4, #0]
   ba122:	e62b      	b.n	b9d7c <_strtod_l+0x4a4>
   ba124:	f04f 32ff 	mov.w	r2, #4294967295
   ba128:	fa02 f303 	lsl.w	r3, r2, r3
   ba12c:	ea03 0a0a 	and.w	sl, r3, sl
   ba130:	e6e3      	b.n	b9efa <_strtod_l+0x622>
   ba132:	f1c8 487f 	rsb	r8, r8, #4278190080	; 0xff000000
   ba136:	f508 087f 	add.w	r8, r8, #16711680	; 0xff0000
   ba13a:	f508 487b 	add.w	r8, r8, #64256	; 0xfb00
   ba13e:	f108 08e2 	add.w	r8, r8, #226	; 0xe2
   ba142:	fa01 f308 	lsl.w	r3, r1, r8
   ba146:	9308      	str	r3, [sp, #32]
   ba148:	910d      	str	r1, [sp, #52]	; 0x34
   ba14a:	e746      	b.n	b9fda <_strtod_l+0x702>
   ba14c:	2300      	movs	r3, #0
   ba14e:	9308      	str	r3, [sp, #32]
   ba150:	2301      	movs	r3, #1
   ba152:	930d      	str	r3, [sp, #52]	; 0x34
   ba154:	e741      	b.n	b9fda <_strtod_l+0x702>
   ba156:	9918      	ldr	r1, [sp, #96]	; 0x60
   ba158:	4642      	mov	r2, r8
   ba15a:	4620      	mov	r0, r4
   ba15c:	f001 f8fa 	bl	bb354 <__lshift>
   ba160:	9018      	str	r0, [sp, #96]	; 0x60
   ba162:	2800      	cmp	r0, #0
   ba164:	f47f af6b 	bne.w	ba03e <_strtod_l+0x766>
   ba168:	e5fe      	b.n	b9d68 <_strtod_l+0x490>
   ba16a:	465f      	mov	r7, fp
   ba16c:	d16e      	bne.n	ba24c <_strtod_l+0x974>
   ba16e:	9a0b      	ldr	r2, [sp, #44]	; 0x2c
   ba170:	f3cb 0313 	ubfx	r3, fp, #0, #20
   ba174:	b342      	cbz	r2, ba1c8 <_strtod_l+0x8f0>
   ba176:	4a32      	ldr	r2, [pc, #200]	; (ba240 <_strtod_l+0x968>)
   ba178:	4293      	cmp	r3, r2
   ba17a:	d128      	bne.n	ba1ce <_strtod_l+0x8f6>
   ba17c:	9b04      	ldr	r3, [sp, #16]
   ba17e:	4651      	mov	r1, sl
   ba180:	b1eb      	cbz	r3, ba1be <_strtod_l+0x8e6>
   ba182:	4b2d      	ldr	r3, [pc, #180]	; (ba238 <_strtod_l+0x960>)
   ba184:	403b      	ands	r3, r7
   ba186:	f1b3 6fd4 	cmp.w	r3, #111149056	; 0x6a00000
   ba18a:	f04f 32ff 	mov.w	r2, #4294967295
   ba18e:	d819      	bhi.n	ba1c4 <_strtod_l+0x8ec>
   ba190:	0d1b      	lsrs	r3, r3, #20
   ba192:	f1c3 036b 	rsb	r3, r3, #107	; 0x6b
   ba196:	fa02 f303 	lsl.w	r3, r2, r3
   ba19a:	4299      	cmp	r1, r3
   ba19c:	d117      	bne.n	ba1ce <_strtod_l+0x8f6>
   ba19e:	4b29      	ldr	r3, [pc, #164]	; (ba244 <_strtod_l+0x96c>)
   ba1a0:	429f      	cmp	r7, r3
   ba1a2:	d102      	bne.n	ba1aa <_strtod_l+0x8d2>
   ba1a4:	3101      	adds	r1, #1
   ba1a6:	f43f addf 	beq.w	b9d68 <_strtod_l+0x490>
   ba1aa:	4b23      	ldr	r3, [pc, #140]	; (ba238 <_strtod_l+0x960>)
   ba1ac:	403b      	ands	r3, r7
   ba1ae:	f503 1b80 	add.w	fp, r3, #1048576	; 0x100000
   ba1b2:	f04f 0a00 	mov.w	sl, #0
   ba1b6:	9b04      	ldr	r3, [sp, #16]
   ba1b8:	2b00      	cmp	r3, #0
   ba1ba:	d1a4      	bne.n	ba106 <_strtod_l+0x82e>
   ba1bc:	e5de      	b.n	b9d7c <_strtod_l+0x4a4>
   ba1be:	f04f 33ff 	mov.w	r3, #4294967295
   ba1c2:	e7ea      	b.n	ba19a <_strtod_l+0x8c2>
   ba1c4:	4613      	mov	r3, r2
   ba1c6:	e7e8      	b.n	ba19a <_strtod_l+0x8c2>
   ba1c8:	ea53 030a 	orrs.w	r3, r3, sl
   ba1cc:	d08c      	beq.n	ba0e8 <_strtod_l+0x810>
   ba1ce:	9b08      	ldr	r3, [sp, #32]
   ba1d0:	b1db      	cbz	r3, ba20a <_strtod_l+0x932>
   ba1d2:	423b      	tst	r3, r7
   ba1d4:	d0ef      	beq.n	ba1b6 <_strtod_l+0x8de>
   ba1d6:	9b0b      	ldr	r3, [sp, #44]	; 0x2c
   ba1d8:	9a04      	ldr	r2, [sp, #16]
   ba1da:	4650      	mov	r0, sl
   ba1dc:	4659      	mov	r1, fp
   ba1de:	b1c3      	cbz	r3, ba212 <_strtod_l+0x93a>
   ba1e0:	f7ff fb5d 	bl	b989e <sulp>
   ba1e4:	4602      	mov	r2, r0
   ba1e6:	460b      	mov	r3, r1
   ba1e8:	ec51 0b18 	vmov	r0, r1, d8
   ba1ec:	f7fe fdb2 	bl	b8d54 <__adddf3>
   ba1f0:	4682      	mov	sl, r0
   ba1f2:	468b      	mov	fp, r1
   ba1f4:	e7df      	b.n	ba1b6 <_strtod_l+0x8de>
   ba1f6:	4013      	ands	r3, r2
   ba1f8:	f5a3 1380 	sub.w	r3, r3, #1048576	; 0x100000
   ba1fc:	ea6f 5b13 	mvn.w	fp, r3, lsr #20
   ba200:	ea6f 5b0b 	mvn.w	fp, fp, lsl #20
   ba204:	f04f 3aff 	mov.w	sl, #4294967295
   ba208:	e7d5      	b.n	ba1b6 <_strtod_l+0x8de>
   ba20a:	9b0d      	ldr	r3, [sp, #52]	; 0x34
   ba20c:	ea13 0f0a 	tst.w	r3, sl
   ba210:	e7e0      	b.n	ba1d4 <_strtod_l+0x8fc>
   ba212:	f7ff fb44 	bl	b989e <sulp>
   ba216:	4602      	mov	r2, r0
   ba218:	460b      	mov	r3, r1
   ba21a:	ec51 0b18 	vmov	r0, r1, d8
   ba21e:	f7fe fd97 	bl	b8d50 <__aeabi_dsub>
   ba222:	2200      	movs	r2, #0
   ba224:	2300      	movs	r3, #0
   ba226:	4682      	mov	sl, r0
   ba228:	468b      	mov	fp, r1
   ba22a:	f7ff f9b1 	bl	b9590 <__aeabi_dcmpeq>
   ba22e:	2800      	cmp	r0, #0
   ba230:	d0c1      	beq.n	ba1b6 <_strtod_l+0x8de>
   ba232:	e611      	b.n	b9e58 <_strtod_l+0x580>
   ba234:	fffffc02 	.word	0xfffffc02
   ba238:	7ff00000 	.word	0x7ff00000
   ba23c:	39500000 	.word	0x39500000
   ba240:	000fffff 	.word	0x000fffff
   ba244:	7fefffff 	.word	0x7fefffff
   ba248:	000bc3b8 	.word	0x000bc3b8
   ba24c:	4631      	mov	r1, r6
   ba24e:	4628      	mov	r0, r5
   ba250:	f001 fa6e 	bl	bb730 <__ratio>
   ba254:	ec59 8b10 	vmov	r8, r9, d0
   ba258:	ee10 0a10 	vmov	r0, s0
   ba25c:	2200      	movs	r2, #0
   ba25e:	f04f 4380 	mov.w	r3, #1073741824	; 0x40000000
   ba262:	4649      	mov	r1, r9
   ba264:	f7ff f9a8 	bl	b95b8 <__aeabi_dcmple>
   ba268:	2800      	cmp	r0, #0
   ba26a:	d07a      	beq.n	ba362 <_strtod_l+0xa8a>
   ba26c:	9b0b      	ldr	r3, [sp, #44]	; 0x2c
   ba26e:	2b00      	cmp	r3, #0
   ba270:	d04a      	beq.n	ba308 <_strtod_l+0xa30>
   ba272:	4b95      	ldr	r3, [pc, #596]	; (ba4c8 <_strtod_l+0xbf0>)
   ba274:	2200      	movs	r2, #0
   ba276:	e9cd 2308 	strd	r2, r3, [sp, #32]
   ba27a:	f8df 924c 	ldr.w	r9, [pc, #588]	; ba4c8 <_strtod_l+0xbf0>
   ba27e:	f04f 0800 	mov.w	r8, #0
   ba282:	4b92      	ldr	r3, [pc, #584]	; (ba4cc <_strtod_l+0xbf4>)
   ba284:	403b      	ands	r3, r7
   ba286:	930d      	str	r3, [sp, #52]	; 0x34
   ba288:	9a0d      	ldr	r2, [sp, #52]	; 0x34
   ba28a:	4b91      	ldr	r3, [pc, #580]	; (ba4d0 <_strtod_l+0xbf8>)
   ba28c:	429a      	cmp	r2, r3
   ba28e:	f040 80b0 	bne.w	ba3f2 <_strtod_l+0xb1a>
   ba292:	e9dd 0108 	ldrd	r0, r1, [sp, #32]
   ba296:	f1a7 7b54 	sub.w	fp, r7, #55574528	; 0x3500000
   ba29a:	ec4b ab10 	vmov	d0, sl, fp
   ba29e:	e9cd 0108 	strd	r0, r1, [sp, #32]
   ba2a2:	f001 f96d 	bl	bb580 <__ulp>
   ba2a6:	e9dd 0108 	ldrd	r0, r1, [sp, #32]
   ba2aa:	ec53 2b10 	vmov	r2, r3, d0
   ba2ae:	f7fe ff07 	bl	b90c0 <__aeabi_dmul>
   ba2b2:	4652      	mov	r2, sl
   ba2b4:	465b      	mov	r3, fp
   ba2b6:	f7fe fd4d 	bl	b8d54 <__adddf3>
   ba2ba:	460b      	mov	r3, r1
   ba2bc:	4983      	ldr	r1, [pc, #524]	; (ba4cc <_strtod_l+0xbf4>)
   ba2be:	4a85      	ldr	r2, [pc, #532]	; (ba4d4 <_strtod_l+0xbfc>)
   ba2c0:	4019      	ands	r1, r3
   ba2c2:	4291      	cmp	r1, r2
   ba2c4:	4682      	mov	sl, r0
   ba2c6:	d960      	bls.n	ba38a <_strtod_l+0xab2>
   ba2c8:	ee18 3a90 	vmov	r3, s17
   ba2cc:	f102 7254 	add.w	r2, r2, #55574528	; 0x3500000
   ba2d0:	4293      	cmp	r3, r2
   ba2d2:	d104      	bne.n	ba2de <_strtod_l+0xa06>
   ba2d4:	ee18 3a10 	vmov	r3, s16
   ba2d8:	3301      	adds	r3, #1
   ba2da:	f43f ad45 	beq.w	b9d68 <_strtod_l+0x490>
   ba2de:	f8df b200 	ldr.w	fp, [pc, #512]	; ba4e0 <_strtod_l+0xc08>
   ba2e2:	f04f 3aff 	mov.w	sl, #4294967295
   ba2e6:	9918      	ldr	r1, [sp, #96]	; 0x60
   ba2e8:	4620      	mov	r0, r4
   ba2ea:	f000 fe17 	bl	baf1c <_Bfree>
   ba2ee:	9905      	ldr	r1, [sp, #20]
   ba2f0:	4620      	mov	r0, r4
   ba2f2:	f000 fe13 	bl	baf1c <_Bfree>
   ba2f6:	4631      	mov	r1, r6
   ba2f8:	4620      	mov	r0, r4
   ba2fa:	f000 fe0f 	bl	baf1c <_Bfree>
   ba2fe:	4629      	mov	r1, r5
   ba300:	4620      	mov	r0, r4
   ba302:	f000 fe0b 	bl	baf1c <_Bfree>
   ba306:	e61a      	b.n	b9f3e <_strtod_l+0x666>
   ba308:	f1ba 0f00 	cmp.w	sl, #0
   ba30c:	d11b      	bne.n	ba346 <_strtod_l+0xa6e>
   ba30e:	f3cb 0313 	ubfx	r3, fp, #0, #20
   ba312:	b9f3      	cbnz	r3, ba352 <_strtod_l+0xa7a>
   ba314:	4b6c      	ldr	r3, [pc, #432]	; (ba4c8 <_strtod_l+0xbf0>)
   ba316:	2200      	movs	r2, #0
   ba318:	4640      	mov	r0, r8
   ba31a:	4649      	mov	r1, r9
   ba31c:	f7ff f942 	bl	b95a4 <__aeabi_dcmplt>
   ba320:	b9d0      	cbnz	r0, ba358 <_strtod_l+0xa80>
   ba322:	4640      	mov	r0, r8
   ba324:	4649      	mov	r1, r9
   ba326:	4b6c      	ldr	r3, [pc, #432]	; (ba4d8 <_strtod_l+0xc00>)
   ba328:	2200      	movs	r2, #0
   ba32a:	f7fe fec9 	bl	b90c0 <__aeabi_dmul>
   ba32e:	4680      	mov	r8, r0
   ba330:	4689      	mov	r9, r1
   ba332:	f109 4300 	add.w	r3, r9, #2147483648	; 0x80000000
   ba336:	f8cd 8050 	str.w	r8, [sp, #80]	; 0x50
   ba33a:	9315      	str	r3, [sp, #84]	; 0x54
   ba33c:	e9dd 2314 	ldrd	r2, r3, [sp, #80]	; 0x50
   ba340:	e9cd 2308 	strd	r2, r3, [sp, #32]
   ba344:	e79d      	b.n	ba282 <_strtod_l+0x9aa>
   ba346:	f1ba 0f01 	cmp.w	sl, #1
   ba34a:	d102      	bne.n	ba352 <_strtod_l+0xa7a>
   ba34c:	2f00      	cmp	r7, #0
   ba34e:	f43f ad83 	beq.w	b9e58 <_strtod_l+0x580>
   ba352:	4b62      	ldr	r3, [pc, #392]	; (ba4dc <_strtod_l+0xc04>)
   ba354:	2200      	movs	r2, #0
   ba356:	e78e      	b.n	ba276 <_strtod_l+0x99e>
   ba358:	f8df 917c 	ldr.w	r9, [pc, #380]	; ba4d8 <_strtod_l+0xc00>
   ba35c:	f04f 0800 	mov.w	r8, #0
   ba360:	e7e7      	b.n	ba332 <_strtod_l+0xa5a>
   ba362:	4b5d      	ldr	r3, [pc, #372]	; (ba4d8 <_strtod_l+0xc00>)
   ba364:	4640      	mov	r0, r8
   ba366:	4649      	mov	r1, r9
   ba368:	2200      	movs	r2, #0
   ba36a:	f7fe fea9 	bl	b90c0 <__aeabi_dmul>
   ba36e:	9b0b      	ldr	r3, [sp, #44]	; 0x2c
   ba370:	4680      	mov	r8, r0
   ba372:	4689      	mov	r9, r1
   ba374:	b933      	cbnz	r3, ba384 <_strtod_l+0xaac>
   ba376:	f101 4300 	add.w	r3, r1, #2147483648	; 0x80000000
   ba37a:	900e      	str	r0, [sp, #56]	; 0x38
   ba37c:	930f      	str	r3, [sp, #60]	; 0x3c
   ba37e:	e9dd 230e 	ldrd	r2, r3, [sp, #56]	; 0x38
   ba382:	e7dd      	b.n	ba340 <_strtod_l+0xa68>
   ba384:	e9cd 890e 	strd	r8, r9, [sp, #56]	; 0x38
   ba388:	e7f9      	b.n	ba37e <_strtod_l+0xaa6>
   ba38a:	f103 7b54 	add.w	fp, r3, #55574528	; 0x3500000
   ba38e:	9b04      	ldr	r3, [sp, #16]
   ba390:	2b00      	cmp	r3, #0
   ba392:	d1a8      	bne.n	ba2e6 <_strtod_l+0xa0e>
   ba394:	f02b 4300 	bic.w	r3, fp, #2147483648	; 0x80000000
   ba398:	9a0d      	ldr	r2, [sp, #52]	; 0x34
   ba39a:	0d1b      	lsrs	r3, r3, #20
   ba39c:	051b      	lsls	r3, r3, #20
   ba39e:	429a      	cmp	r2, r3
   ba3a0:	d1a1      	bne.n	ba2e6 <_strtod_l+0xa0e>
   ba3a2:	4640      	mov	r0, r8
   ba3a4:	4649      	mov	r1, r9
   ba3a6:	f001 fa61 	bl	bb86c <__aeabi_d2lz>
   ba3aa:	f7fe fe5b 	bl	b9064 <__aeabi_l2d>
   ba3ae:	4602      	mov	r2, r0
   ba3b0:	460b      	mov	r3, r1
   ba3b2:	4640      	mov	r0, r8
   ba3b4:	4649      	mov	r1, r9
   ba3b6:	f7fe fccb 	bl	b8d50 <__aeabi_dsub>
   ba3ba:	9a0b      	ldr	r2, [sp, #44]	; 0x2c
   ba3bc:	f3cb 0313 	ubfx	r3, fp, #0, #20
   ba3c0:	ea43 030a 	orr.w	r3, r3, sl
   ba3c4:	4313      	orrs	r3, r2
   ba3c6:	4680      	mov	r8, r0
   ba3c8:	4689      	mov	r9, r1
   ba3ca:	d055      	beq.n	ba478 <_strtod_l+0xba0>
   ba3cc:	a336      	add	r3, pc, #216	; (adr r3, ba4a8 <_strtod_l+0xbd0>)
   ba3ce:	e9d3 2300 	ldrd	r2, r3, [r3]
   ba3d2:	f7ff f8e7 	bl	b95a4 <__aeabi_dcmplt>
   ba3d6:	2800      	cmp	r0, #0
   ba3d8:	f47f acd0 	bne.w	b9d7c <_strtod_l+0x4a4>
   ba3dc:	a334      	add	r3, pc, #208	; (adr r3, ba4b0 <_strtod_l+0xbd8>)
   ba3de:	e9d3 2300 	ldrd	r2, r3, [r3]
   ba3e2:	4640      	mov	r0, r8
   ba3e4:	4649      	mov	r1, r9
   ba3e6:	f7ff f8fb 	bl	b95e0 <__aeabi_dcmpgt>
   ba3ea:	2800      	cmp	r0, #0
   ba3ec:	f43f af7b 	beq.w	ba2e6 <_strtod_l+0xa0e>
   ba3f0:	e4c4      	b.n	b9d7c <_strtod_l+0x4a4>
   ba3f2:	9b04      	ldr	r3, [sp, #16]
   ba3f4:	b333      	cbz	r3, ba444 <_strtod_l+0xb6c>
   ba3f6:	9b0d      	ldr	r3, [sp, #52]	; 0x34
   ba3f8:	f1b3 6fd4 	cmp.w	r3, #111149056	; 0x6a00000
   ba3fc:	d822      	bhi.n	ba444 <_strtod_l+0xb6c>
   ba3fe:	a32e      	add	r3, pc, #184	; (adr r3, ba4b8 <_strtod_l+0xbe0>)
   ba400:	e9d3 2300 	ldrd	r2, r3, [r3]
   ba404:	4640      	mov	r0, r8
   ba406:	4649      	mov	r1, r9
   ba408:	f7ff f8d6 	bl	b95b8 <__aeabi_dcmple>
   ba40c:	b1a0      	cbz	r0, ba438 <_strtod_l+0xb60>
   ba40e:	4649      	mov	r1, r9
   ba410:	4640      	mov	r0, r8
   ba412:	f7ff f8ef 	bl	b95f4 <__aeabi_d2uiz>
   ba416:	2801      	cmp	r0, #1
   ba418:	bf38      	it	cc
   ba41a:	2001      	movcc	r0, #1
   ba41c:	f7fe fdd6 	bl	b8fcc <__aeabi_ui2d>
   ba420:	9b0b      	ldr	r3, [sp, #44]	; 0x2c
   ba422:	4680      	mov	r8, r0
   ba424:	4689      	mov	r9, r1
   ba426:	bb23      	cbnz	r3, ba472 <_strtod_l+0xb9a>
   ba428:	f101 4300 	add.w	r3, r1, #2147483648	; 0x80000000
   ba42c:	9010      	str	r0, [sp, #64]	; 0x40
   ba42e:	9311      	str	r3, [sp, #68]	; 0x44
   ba430:	e9dd 2310 	ldrd	r2, r3, [sp, #64]	; 0x40
   ba434:	e9cd 2308 	strd	r2, r3, [sp, #32]
   ba438:	9b09      	ldr	r3, [sp, #36]	; 0x24
   ba43a:	9a0d      	ldr	r2, [sp, #52]	; 0x34
   ba43c:	f103 63d6 	add.w	r3, r3, #112197632	; 0x6b00000
   ba440:	1a9b      	subs	r3, r3, r2
   ba442:	9309      	str	r3, [sp, #36]	; 0x24
   ba444:	e9dd 0108 	ldrd	r0, r1, [sp, #32]
   ba448:	eeb0 0a48 	vmov.f32	s0, s16
   ba44c:	eef0 0a68 	vmov.f32	s1, s17
   ba450:	e9cd 0108 	strd	r0, r1, [sp, #32]
   ba454:	f001 f894 	bl	bb580 <__ulp>
   ba458:	e9dd 0108 	ldrd	r0, r1, [sp, #32]
   ba45c:	ec53 2b10 	vmov	r2, r3, d0
   ba460:	f7fe fe2e 	bl	b90c0 <__aeabi_dmul>
   ba464:	ec53 2b18 	vmov	r2, r3, d8
   ba468:	f7fe fc74 	bl	b8d54 <__adddf3>
   ba46c:	4682      	mov	sl, r0
   ba46e:	468b      	mov	fp, r1
   ba470:	e78d      	b.n	ba38e <_strtod_l+0xab6>
   ba472:	e9cd 8910 	strd	r8, r9, [sp, #64]	; 0x40
   ba476:	e7db      	b.n	ba430 <_strtod_l+0xb58>
   ba478:	a311      	add	r3, pc, #68	; (adr r3, ba4c0 <_strtod_l+0xbe8>)
   ba47a:	e9d3 2300 	ldrd	r2, r3, [r3]
   ba47e:	f7ff f891 	bl	b95a4 <__aeabi_dcmplt>
   ba482:	e7b2      	b.n	ba3ea <_strtod_l+0xb12>
   ba484:	2300      	movs	r3, #0
   ba486:	930a      	str	r3, [sp, #40]	; 0x28
   ba488:	9a13      	ldr	r2, [sp, #76]	; 0x4c
   ba48a:	9b17      	ldr	r3, [sp, #92]	; 0x5c
   ba48c:	6013      	str	r3, [r2, #0]
   ba48e:	f7ff ba6b 	b.w	b9968 <_strtod_l+0x90>
   ba492:	2a65      	cmp	r2, #101	; 0x65
   ba494:	f43f ab5f 	beq.w	b9b56 <_strtod_l+0x27e>
   ba498:	2a45      	cmp	r2, #69	; 0x45
   ba49a:	f43f ab5c 	beq.w	b9b56 <_strtod_l+0x27e>
   ba49e:	2301      	movs	r3, #1
   ba4a0:	f7ff bb94 	b.w	b9bcc <_strtod_l+0x2f4>
   ba4a4:	f3af 8000 	nop.w
   ba4a8:	94a03595 	.word	0x94a03595
   ba4ac:	3fdfffff 	.word	0x3fdfffff
   ba4b0:	35afe535 	.word	0x35afe535
   ba4b4:	3fe00000 	.word	0x3fe00000
   ba4b8:	ffc00000 	.word	0xffc00000
   ba4bc:	41dfffff 	.word	0x41dfffff
   ba4c0:	94a03595 	.word	0x94a03595
   ba4c4:	3fcfffff 	.word	0x3fcfffff
   ba4c8:	3ff00000 	.word	0x3ff00000
   ba4cc:	7ff00000 	.word	0x7ff00000
   ba4d0:	7fe00000 	.word	0x7fe00000
   ba4d4:	7c9fffff 	.word	0x7c9fffff
   ba4d8:	3fe00000 	.word	0x3fe00000
   ba4dc:	bff00000 	.word	0xbff00000
   ba4e0:	7fefffff 	.word	0x7fefffff

000ba4e4 <strtod>:
   ba4e4:	460a      	mov	r2, r1
   ba4e6:	4601      	mov	r1, r0
   ba4e8:	4802      	ldr	r0, [pc, #8]	; (ba4f4 <strtod+0x10>)
   ba4ea:	4b03      	ldr	r3, [pc, #12]	; (ba4f8 <strtod+0x14>)
   ba4ec:	6800      	ldr	r0, [r0, #0]
   ba4ee:	f7ff b9f3 	b.w	b98d8 <_strtod_l>
   ba4f2:	bf00      	nop
   ba4f4:	2003d984 	.word	0x2003d984
   ba4f8:	2003d9f0 	.word	0x2003d9f0

000ba4fc <strtok>:
   ba4fc:	4b16      	ldr	r3, [pc, #88]	; (ba558 <strtok+0x5c>)
   ba4fe:	b573      	push	{r0, r1, r4, r5, r6, lr}
   ba500:	681e      	ldr	r6, [r3, #0]
   ba502:	6db4      	ldr	r4, [r6, #88]	; 0x58
   ba504:	4605      	mov	r5, r0
   ba506:	b9fc      	cbnz	r4, ba548 <strtok+0x4c>
   ba508:	2050      	movs	r0, #80	; 0x50
   ba50a:	9101      	str	r1, [sp, #4]
   ba50c:	f7fb fac8 	bl	b5aa0 <malloc>
   ba510:	9901      	ldr	r1, [sp, #4]
   ba512:	65b0      	str	r0, [r6, #88]	; 0x58
   ba514:	4602      	mov	r2, r0
   ba516:	b920      	cbnz	r0, ba522 <strtok+0x26>
   ba518:	4b10      	ldr	r3, [pc, #64]	; (ba55c <strtok+0x60>)
   ba51a:	4811      	ldr	r0, [pc, #68]	; (ba560 <strtok+0x64>)
   ba51c:	2157      	movs	r1, #87	; 0x57
   ba51e:	f7fb faff 	bl	b5b20 <__assert_func>
   ba522:	e9c0 4400 	strd	r4, r4, [r0]
   ba526:	e9c0 4402 	strd	r4, r4, [r0, #8]
   ba52a:	e9c0 4404 	strd	r4, r4, [r0, #16]
   ba52e:	e9c0 440a 	strd	r4, r4, [r0, #40]	; 0x28
   ba532:	e9c0 440c 	strd	r4, r4, [r0, #48]	; 0x30
   ba536:	e9c0 440e 	strd	r4, r4, [r0, #56]	; 0x38
   ba53a:	e9c0 4410 	strd	r4, r4, [r0, #64]	; 0x40
   ba53e:	e9c0 4412 	strd	r4, r4, [r0, #72]	; 0x48
   ba542:	6184      	str	r4, [r0, #24]
   ba544:	7704      	strb	r4, [r0, #28]
   ba546:	6244      	str	r4, [r0, #36]	; 0x24
   ba548:	6db2      	ldr	r2, [r6, #88]	; 0x58
   ba54a:	2301      	movs	r3, #1
   ba54c:	4628      	mov	r0, r5
   ba54e:	b002      	add	sp, #8
   ba550:	e8bd 4070 	ldmia.w	sp!, {r4, r5, r6, lr}
   ba554:	f000 b806 	b.w	ba564 <__strtok_r>
   ba558:	2003d984 	.word	0x2003d984
   ba55c:	000bc2e9 	.word	0x000bc2e9
   ba560:	000bc3e0 	.word	0x000bc3e0

000ba564 <__strtok_r>:
   ba564:	b5f0      	push	{r4, r5, r6, r7, lr}
   ba566:	b908      	cbnz	r0, ba56c <__strtok_r+0x8>
   ba568:	6810      	ldr	r0, [r2, #0]
   ba56a:	b188      	cbz	r0, ba590 <__strtok_r+0x2c>
   ba56c:	4604      	mov	r4, r0
   ba56e:	4620      	mov	r0, r4
   ba570:	f814 5b01 	ldrb.w	r5, [r4], #1
   ba574:	460f      	mov	r7, r1
   ba576:	f817 6b01 	ldrb.w	r6, [r7], #1
   ba57a:	b91e      	cbnz	r6, ba584 <__strtok_r+0x20>
   ba57c:	b965      	cbnz	r5, ba598 <__strtok_r+0x34>
   ba57e:	6015      	str	r5, [r2, #0]
   ba580:	4628      	mov	r0, r5
   ba582:	e005      	b.n	ba590 <__strtok_r+0x2c>
   ba584:	42b5      	cmp	r5, r6
   ba586:	d1f6      	bne.n	ba576 <__strtok_r+0x12>
   ba588:	2b00      	cmp	r3, #0
   ba58a:	d1f0      	bne.n	ba56e <__strtok_r+0xa>
   ba58c:	6014      	str	r4, [r2, #0]
   ba58e:	7003      	strb	r3, [r0, #0]
   ba590:	bdf0      	pop	{r4, r5, r6, r7, pc}
   ba592:	461c      	mov	r4, r3
   ba594:	e00c      	b.n	ba5b0 <__strtok_r+0x4c>
   ba596:	b915      	cbnz	r5, ba59e <__strtok_r+0x3a>
   ba598:	f814 3b01 	ldrb.w	r3, [r4], #1
   ba59c:	460e      	mov	r6, r1
   ba59e:	f816 5b01 	ldrb.w	r5, [r6], #1
   ba5a2:	42ab      	cmp	r3, r5
   ba5a4:	d1f7      	bne.n	ba596 <__strtok_r+0x32>
   ba5a6:	2b00      	cmp	r3, #0
   ba5a8:	d0f3      	beq.n	ba592 <__strtok_r+0x2e>
   ba5aa:	2300      	movs	r3, #0
   ba5ac:	f804 3c01 	strb.w	r3, [r4, #-1]
   ba5b0:	6014      	str	r4, [r2, #0]
   ba5b2:	e7ed      	b.n	ba590 <__strtok_r+0x2c>

000ba5b4 <_strtol_l.constprop.0>:
   ba5b4:	2b01      	cmp	r3, #1
   ba5b6:	e92d 47f0 	stmdb	sp!, {r4, r5, r6, r7, r8, r9, sl, lr}
   ba5ba:	d001      	beq.n	ba5c0 <_strtol_l.constprop.0+0xc>
   ba5bc:	2b24      	cmp	r3, #36	; 0x24
   ba5be:	d906      	bls.n	ba5ce <_strtol_l.constprop.0+0x1a>
   ba5c0:	f7fb faa6 	bl	b5b10 <__errno>
   ba5c4:	2316      	movs	r3, #22
   ba5c6:	6003      	str	r3, [r0, #0]
   ba5c8:	2000      	movs	r0, #0
   ba5ca:	e8bd 87f0 	ldmia.w	sp!, {r4, r5, r6, r7, r8, r9, sl, pc}
   ba5ce:	f8df c0e4 	ldr.w	ip, [pc, #228]	; ba6b4 <_strtol_l.constprop.0+0x100>
   ba5d2:	460d      	mov	r5, r1
   ba5d4:	462e      	mov	r6, r5
   ba5d6:	f815 4b01 	ldrb.w	r4, [r5], #1
   ba5da:	f814 700c 	ldrb.w	r7, [r4, ip]
   ba5de:	f017 0708 	ands.w	r7, r7, #8
   ba5e2:	d1f7      	bne.n	ba5d4 <_strtol_l.constprop.0+0x20>
   ba5e4:	2c2d      	cmp	r4, #45	; 0x2d
   ba5e6:	d132      	bne.n	ba64e <_strtol_l.constprop.0+0x9a>
   ba5e8:	782c      	ldrb	r4, [r5, #0]
   ba5ea:	2701      	movs	r7, #1
   ba5ec:	1cb5      	adds	r5, r6, #2
   ba5ee:	2b00      	cmp	r3, #0
   ba5f0:	d05b      	beq.n	ba6aa <_strtol_l.constprop.0+0xf6>
   ba5f2:	2b10      	cmp	r3, #16
   ba5f4:	d109      	bne.n	ba60a <_strtol_l.constprop.0+0x56>
   ba5f6:	2c30      	cmp	r4, #48	; 0x30
   ba5f8:	d107      	bne.n	ba60a <_strtol_l.constprop.0+0x56>
   ba5fa:	782c      	ldrb	r4, [r5, #0]
   ba5fc:	f004 04df 	and.w	r4, r4, #223	; 0xdf
   ba600:	2c58      	cmp	r4, #88	; 0x58
   ba602:	d14d      	bne.n	ba6a0 <_strtol_l.constprop.0+0xec>
   ba604:	786c      	ldrb	r4, [r5, #1]
   ba606:	2310      	movs	r3, #16
   ba608:	3502      	adds	r5, #2
   ba60a:	f107 4800 	add.w	r8, r7, #2147483648	; 0x80000000
   ba60e:	f108 38ff 	add.w	r8, r8, #4294967295
   ba612:	f04f 0c00 	mov.w	ip, #0
   ba616:	fbb8 f9f3 	udiv	r9, r8, r3
   ba61a:	4666      	mov	r6, ip
   ba61c:	fb03 8a19 	mls	sl, r3, r9, r8
   ba620:	f1a4 0e30 	sub.w	lr, r4, #48	; 0x30
   ba624:	f1be 0f09 	cmp.w	lr, #9
   ba628:	d816      	bhi.n	ba658 <_strtol_l.constprop.0+0xa4>
   ba62a:	4674      	mov	r4, lr
   ba62c:	42a3      	cmp	r3, r4
   ba62e:	dd24      	ble.n	ba67a <_strtol_l.constprop.0+0xc6>
   ba630:	f1bc 0f00 	cmp.w	ip, #0
   ba634:	db1e      	blt.n	ba674 <_strtol_l.constprop.0+0xc0>
   ba636:	45b1      	cmp	r9, r6
   ba638:	d31c      	bcc.n	ba674 <_strtol_l.constprop.0+0xc0>
   ba63a:	d101      	bne.n	ba640 <_strtol_l.constprop.0+0x8c>
   ba63c:	45a2      	cmp	sl, r4
   ba63e:	db19      	blt.n	ba674 <_strtol_l.constprop.0+0xc0>
   ba640:	fb06 4603 	mla	r6, r6, r3, r4
   ba644:	f04f 0c01 	mov.w	ip, #1
   ba648:	f815 4b01 	ldrb.w	r4, [r5], #1
   ba64c:	e7e8      	b.n	ba620 <_strtol_l.constprop.0+0x6c>
   ba64e:	2c2b      	cmp	r4, #43	; 0x2b
   ba650:	bf04      	itt	eq
   ba652:	782c      	ldrbeq	r4, [r5, #0]
   ba654:	1cb5      	addeq	r5, r6, #2
   ba656:	e7ca      	b.n	ba5ee <_strtol_l.constprop.0+0x3a>
   ba658:	f1a4 0e41 	sub.w	lr, r4, #65	; 0x41
   ba65c:	f1be 0f19 	cmp.w	lr, #25
   ba660:	d801      	bhi.n	ba666 <_strtol_l.constprop.0+0xb2>
   ba662:	3c37      	subs	r4, #55	; 0x37
   ba664:	e7e2      	b.n	ba62c <_strtol_l.constprop.0+0x78>
   ba666:	f1a4 0e61 	sub.w	lr, r4, #97	; 0x61
   ba66a:	f1be 0f19 	cmp.w	lr, #25
   ba66e:	d804      	bhi.n	ba67a <_strtol_l.constprop.0+0xc6>
   ba670:	3c57      	subs	r4, #87	; 0x57
   ba672:	e7db      	b.n	ba62c <_strtol_l.constprop.0+0x78>
   ba674:	f04f 3cff 	mov.w	ip, #4294967295
   ba678:	e7e6      	b.n	ba648 <_strtol_l.constprop.0+0x94>
   ba67a:	f1bc 0f00 	cmp.w	ip, #0
   ba67e:	da05      	bge.n	ba68c <_strtol_l.constprop.0+0xd8>
   ba680:	2322      	movs	r3, #34	; 0x22
   ba682:	6003      	str	r3, [r0, #0]
   ba684:	4646      	mov	r6, r8
   ba686:	b942      	cbnz	r2, ba69a <_strtol_l.constprop.0+0xe6>
   ba688:	4630      	mov	r0, r6
   ba68a:	e79e      	b.n	ba5ca <_strtol_l.constprop.0+0x16>
   ba68c:	b107      	cbz	r7, ba690 <_strtol_l.constprop.0+0xdc>
   ba68e:	4276      	negs	r6, r6
   ba690:	2a00      	cmp	r2, #0
   ba692:	d0f9      	beq.n	ba688 <_strtol_l.constprop.0+0xd4>
   ba694:	f1bc 0f00 	cmp.w	ip, #0
   ba698:	d000      	beq.n	ba69c <_strtol_l.constprop.0+0xe8>
   ba69a:	1e69      	subs	r1, r5, #1
   ba69c:	6011      	str	r1, [r2, #0]
   ba69e:	e7f3      	b.n	ba688 <_strtol_l.constprop.0+0xd4>
   ba6a0:	2430      	movs	r4, #48	; 0x30
   ba6a2:	2b00      	cmp	r3, #0
   ba6a4:	d1b1      	bne.n	ba60a <_strtol_l.constprop.0+0x56>
   ba6a6:	2308      	movs	r3, #8
   ba6a8:	e7af      	b.n	ba60a <_strtol_l.constprop.0+0x56>
   ba6aa:	2c30      	cmp	r4, #48	; 0x30
   ba6ac:	d0a5      	beq.n	ba5fa <_strtol_l.constprop.0+0x46>
   ba6ae:	230a      	movs	r3, #10
   ba6b0:	e7ab      	b.n	ba60a <_strtol_l.constprop.0+0x56>
   ba6b2:	bf00      	nop
   ba6b4:	000bc460 	.word	0x000bc460

000ba6b8 <strtol>:
   ba6b8:	4613      	mov	r3, r2
   ba6ba:	460a      	mov	r2, r1
   ba6bc:	4601      	mov	r1, r0
   ba6be:	4802      	ldr	r0, [pc, #8]	; (ba6c8 <strtol+0x10>)
   ba6c0:	6800      	ldr	r0, [r0, #0]
   ba6c2:	f7ff bf77 	b.w	ba5b4 <_strtol_l.constprop.0>
   ba6c6:	bf00      	nop
   ba6c8:	2003d984 	.word	0x2003d984

000ba6cc <__register_exitproc>:
   ba6cc:	e92d 43f8 	stmdb	sp!, {r3, r4, r5, r6, r7, r8, r9, lr}
   ba6d0:	f8df 80b8 	ldr.w	r8, [pc, #184]	; ba78c <__register_exitproc+0xc0>
   ba6d4:	4606      	mov	r6, r0
   ba6d6:	f8d8 0000 	ldr.w	r0, [r8]
   ba6da:	461f      	mov	r7, r3
   ba6dc:	460d      	mov	r5, r1
   ba6de:	4691      	mov	r9, r2
   ba6e0:	f000 fbc6 	bl	bae70 <__retarget_lock_acquire_recursive>
   ba6e4:	4b25      	ldr	r3, [pc, #148]	; (ba77c <__register_exitproc+0xb0>)
   ba6e6:	681c      	ldr	r4, [r3, #0]
   ba6e8:	b934      	cbnz	r4, ba6f8 <__register_exitproc+0x2c>
   ba6ea:	4c25      	ldr	r4, [pc, #148]	; (ba780 <__register_exitproc+0xb4>)
   ba6ec:	601c      	str	r4, [r3, #0]
   ba6ee:	4b25      	ldr	r3, [pc, #148]	; (ba784 <__register_exitproc+0xb8>)
   ba6f0:	b113      	cbz	r3, ba6f8 <__register_exitproc+0x2c>
   ba6f2:	681b      	ldr	r3, [r3, #0]
   ba6f4:	f8c4 3088 	str.w	r3, [r4, #136]	; 0x88
   ba6f8:	6863      	ldr	r3, [r4, #4]
   ba6fa:	2b1f      	cmp	r3, #31
   ba6fc:	dd07      	ble.n	ba70e <__register_exitproc+0x42>
   ba6fe:	f8d8 0000 	ldr.w	r0, [r8]
   ba702:	f000 fbb7 	bl	bae74 <__retarget_lock_release_recursive>
   ba706:	f04f 30ff 	mov.w	r0, #4294967295
   ba70a:	e8bd 83f8 	ldmia.w	sp!, {r3, r4, r5, r6, r7, r8, r9, pc}
   ba70e:	b34e      	cbz	r6, ba764 <__register_exitproc+0x98>
   ba710:	f8d4 0088 	ldr.w	r0, [r4, #136]	; 0x88
   ba714:	b988      	cbnz	r0, ba73a <__register_exitproc+0x6e>
   ba716:	4b1c      	ldr	r3, [pc, #112]	; (ba788 <__register_exitproc+0xbc>)
   ba718:	b923      	cbnz	r3, ba724 <__register_exitproc+0x58>
   ba71a:	f8d8 0000 	ldr.w	r0, [r8]
   ba71e:	f000 fba8 	bl	bae72 <__retarget_lock_release>
   ba722:	e7f0      	b.n	ba706 <__register_exitproc+0x3a>
   ba724:	f44f 7084 	mov.w	r0, #264	; 0x108
   ba728:	f7fb f9ba 	bl	b5aa0 <malloc>
   ba72c:	2800      	cmp	r0, #0
   ba72e:	d0f4      	beq.n	ba71a <__register_exitproc+0x4e>
   ba730:	2300      	movs	r3, #0
   ba732:	e9c0 3340 	strd	r3, r3, [r0, #256]	; 0x100
   ba736:	f8c4 0088 	str.w	r0, [r4, #136]	; 0x88
   ba73a:	6863      	ldr	r3, [r4, #4]
   ba73c:	f840 9023 	str.w	r9, [r0, r3, lsl #2]
   ba740:	2201      	movs	r2, #1
   ba742:	409a      	lsls	r2, r3
   ba744:	eb00 0183 	add.w	r1, r0, r3, lsl #2
   ba748:	f8d0 3100 	ldr.w	r3, [r0, #256]	; 0x100
   ba74c:	4313      	orrs	r3, r2
   ba74e:	f8c0 3100 	str.w	r3, [r0, #256]	; 0x100
   ba752:	2e02      	cmp	r6, #2
   ba754:	f8c1 7080 	str.w	r7, [r1, #128]	; 0x80
   ba758:	bf02      	ittt	eq
   ba75a:	f8d0 3104 	ldreq.w	r3, [r0, #260]	; 0x104
   ba75e:	4313      	orreq	r3, r2
   ba760:	f8c0 3104 	streq.w	r3, [r0, #260]	; 0x104
   ba764:	6863      	ldr	r3, [r4, #4]
   ba766:	f8d8 0000 	ldr.w	r0, [r8]
   ba76a:	1c5a      	adds	r2, r3, #1
   ba76c:	3302      	adds	r3, #2
   ba76e:	6062      	str	r2, [r4, #4]
   ba770:	f844 5023 	str.w	r5, [r4, r3, lsl #2]
   ba774:	f000 fb7e 	bl	bae74 <__retarget_lock_release_recursive>
   ba778:	2000      	movs	r0, #0
   ba77a:	e7c6      	b.n	ba70a <__register_exitproc+0x3e>
   ba77c:	2003e7ec 	.word	0x2003e7ec
   ba780:	2003e760 	.word	0x2003e760
   ba784:	00000000 	.word	0x00000000
   ba788:	000b5aa1 	.word	0x000b5aa1
   ba78c:	2003d9e8 	.word	0x2003d9e8

000ba790 <rshift>:
   ba790:	6903      	ldr	r3, [r0, #16]
   ba792:	ebb3 1f61 	cmp.w	r3, r1, asr #5
   ba796:	e92d 43f0 	stmdb	sp!, {r4, r5, r6, r7, r8, r9, lr}
   ba79a:	ea4f 1261 	mov.w	r2, r1, asr #5
   ba79e:	f100 0414 	add.w	r4, r0, #20
   ba7a2:	dd45      	ble.n	ba830 <rshift+0xa0>
   ba7a4:	f011 011f 	ands.w	r1, r1, #31
   ba7a8:	eb04 0683 	add.w	r6, r4, r3, lsl #2
   ba7ac:	eb04 0582 	add.w	r5, r4, r2, lsl #2
   ba7b0:	d10c      	bne.n	ba7cc <rshift+0x3c>
   ba7b2:	f100 0710 	add.w	r7, r0, #16
   ba7b6:	4629      	mov	r1, r5
   ba7b8:	42b1      	cmp	r1, r6
   ba7ba:	d334      	bcc.n	ba826 <rshift+0x96>
   ba7bc:	1a9b      	subs	r3, r3, r2
   ba7be:	009b      	lsls	r3, r3, #2
   ba7c0:	1eea      	subs	r2, r5, #3
   ba7c2:	4296      	cmp	r6, r2
   ba7c4:	bf38      	it	cc
   ba7c6:	2300      	movcc	r3, #0
   ba7c8:	4423      	add	r3, r4
   ba7ca:	e015      	b.n	ba7f8 <rshift+0x68>
   ba7cc:	f854 7022 	ldr.w	r7, [r4, r2, lsl #2]
   ba7d0:	f1c1 0820 	rsb	r8, r1, #32
   ba7d4:	40cf      	lsrs	r7, r1
   ba7d6:	f105 0e04 	add.w	lr, r5, #4
   ba7da:	46a1      	mov	r9, r4
   ba7dc:	4576      	cmp	r6, lr
   ba7de:	46f4      	mov	ip, lr
   ba7e0:	d815      	bhi.n	ba80e <rshift+0x7e>
   ba7e2:	1a9a      	subs	r2, r3, r2
   ba7e4:	0092      	lsls	r2, r2, #2
   ba7e6:	3a04      	subs	r2, #4
   ba7e8:	3501      	adds	r5, #1
   ba7ea:	42ae      	cmp	r6, r5
   ba7ec:	bf38      	it	cc
   ba7ee:	2200      	movcc	r2, #0
   ba7f0:	18a3      	adds	r3, r4, r2
   ba7f2:	50a7      	str	r7, [r4, r2]
   ba7f4:	b107      	cbz	r7, ba7f8 <rshift+0x68>
   ba7f6:	3304      	adds	r3, #4
   ba7f8:	1b1a      	subs	r2, r3, r4
   ba7fa:	42a3      	cmp	r3, r4
   ba7fc:	ea4f 02a2 	mov.w	r2, r2, asr #2
   ba800:	bf08      	it	eq
   ba802:	2300      	moveq	r3, #0
   ba804:	6102      	str	r2, [r0, #16]
   ba806:	bf08      	it	eq
   ba808:	6143      	streq	r3, [r0, #20]
   ba80a:	e8bd 83f0 	ldmia.w	sp!, {r4, r5, r6, r7, r8, r9, pc}
   ba80e:	f8dc c000 	ldr.w	ip, [ip]
   ba812:	fa0c fc08 	lsl.w	ip, ip, r8
   ba816:	ea4c 0707 	orr.w	r7, ip, r7
   ba81a:	f849 7b04 	str.w	r7, [r9], #4
   ba81e:	f85e 7b04 	ldr.w	r7, [lr], #4
   ba822:	40cf      	lsrs	r7, r1
   ba824:	e7da      	b.n	ba7dc <rshift+0x4c>
   ba826:	f851 cb04 	ldr.w	ip, [r1], #4
   ba82a:	f847 cf04 	str.w	ip, [r7, #4]!
   ba82e:	e7c3      	b.n	ba7b8 <rshift+0x28>
   ba830:	4623      	mov	r3, r4
   ba832:	e7e1      	b.n	ba7f8 <rshift+0x68>

000ba834 <__hexdig_fun>:
   ba834:	f1a0 0330 	sub.w	r3, r0, #48	; 0x30
   ba838:	2b09      	cmp	r3, #9
   ba83a:	d802      	bhi.n	ba842 <__hexdig_fun+0xe>
   ba83c:	3820      	subs	r0, #32
   ba83e:	b2c0      	uxtb	r0, r0
   ba840:	4770      	bx	lr
   ba842:	f1a0 0361 	sub.w	r3, r0, #97	; 0x61
   ba846:	2b05      	cmp	r3, #5
   ba848:	d801      	bhi.n	ba84e <__hexdig_fun+0x1a>
   ba84a:	3847      	subs	r0, #71	; 0x47
   ba84c:	e7f7      	b.n	ba83e <__hexdig_fun+0xa>
   ba84e:	f1a0 0341 	sub.w	r3, r0, #65	; 0x41
   ba852:	2b05      	cmp	r3, #5
   ba854:	d801      	bhi.n	ba85a <__hexdig_fun+0x26>
   ba856:	3827      	subs	r0, #39	; 0x27
   ba858:	e7f1      	b.n	ba83e <__hexdig_fun+0xa>
   ba85a:	2000      	movs	r0, #0
   ba85c:	4770      	bx	lr
	...

000ba860 <__gethex>:
   ba860:	e92d 4ff0 	stmdb	sp!, {r4, r5, r6, r7, r8, r9, sl, fp, lr}
   ba864:	ed2d 8b02 	vpush	{d8}
   ba868:	b089      	sub	sp, #36	; 0x24
   ba86a:	ee08 0a10 	vmov	s16, r0
   ba86e:	9304      	str	r3, [sp, #16]
   ba870:	4bb4      	ldr	r3, [pc, #720]	; (bab44 <__gethex+0x2e4>)
   ba872:	681b      	ldr	r3, [r3, #0]
   ba874:	9301      	str	r3, [sp, #4]
   ba876:	4618      	mov	r0, r3
   ba878:	468b      	mov	fp, r1
   ba87a:	4690      	mov	r8, r2
   ba87c:	f7fe ffe7 	bl	b984e <strlen>
   ba880:	9b01      	ldr	r3, [sp, #4]
   ba882:	f8db 2000 	ldr.w	r2, [fp]
   ba886:	4403      	add	r3, r0
   ba888:	4682      	mov	sl, r0
   ba88a:	f813 3c01 	ldrb.w	r3, [r3, #-1]
   ba88e:	9305      	str	r3, [sp, #20]
   ba890:	1c93      	adds	r3, r2, #2
   ba892:	f1c2 22ff 	rsb	r2, r2, #4278255360	; 0xff00ff00
   ba896:	f502 027f 	add.w	r2, r2, #16711680	; 0xff0000
   ba89a:	32fe      	adds	r2, #254	; 0xfe
   ba89c:	18d1      	adds	r1, r2, r3
   ba89e:	461f      	mov	r7, r3
   ba8a0:	f813 0b01 	ldrb.w	r0, [r3], #1
   ba8a4:	9100      	str	r1, [sp, #0]
   ba8a6:	2830      	cmp	r0, #48	; 0x30
   ba8a8:	d0f8      	beq.n	ba89c <__gethex+0x3c>
   ba8aa:	f7ff ffc3 	bl	ba834 <__hexdig_fun>
   ba8ae:	4604      	mov	r4, r0
   ba8b0:	2800      	cmp	r0, #0
   ba8b2:	d13a      	bne.n	ba92a <__gethex+0xca>
   ba8b4:	9901      	ldr	r1, [sp, #4]
   ba8b6:	4652      	mov	r2, sl
   ba8b8:	4638      	mov	r0, r7
   ba8ba:	f7fe ffd0 	bl	b985e <strncmp>
   ba8be:	4605      	mov	r5, r0
   ba8c0:	2800      	cmp	r0, #0
   ba8c2:	d168      	bne.n	ba996 <__gethex+0x136>
   ba8c4:	f817 000a 	ldrb.w	r0, [r7, sl]
   ba8c8:	eb07 060a 	add.w	r6, r7, sl
   ba8cc:	f7ff ffb2 	bl	ba834 <__hexdig_fun>
   ba8d0:	2800      	cmp	r0, #0
   ba8d2:	d062      	beq.n	ba99a <__gethex+0x13a>
   ba8d4:	4633      	mov	r3, r6
   ba8d6:	7818      	ldrb	r0, [r3, #0]
   ba8d8:	2830      	cmp	r0, #48	; 0x30
   ba8da:	461f      	mov	r7, r3
   ba8dc:	f103 0301 	add.w	r3, r3, #1
   ba8e0:	d0f9      	beq.n	ba8d6 <__gethex+0x76>
   ba8e2:	f7ff ffa7 	bl	ba834 <__hexdig_fun>
   ba8e6:	2301      	movs	r3, #1
   ba8e8:	fab0 f480 	clz	r4, r0
   ba8ec:	0964      	lsrs	r4, r4, #5
   ba8ee:	4635      	mov	r5, r6
   ba8f0:	9300      	str	r3, [sp, #0]
   ba8f2:	463a      	mov	r2, r7
   ba8f4:	4616      	mov	r6, r2
   ba8f6:	3201      	adds	r2, #1
   ba8f8:	7830      	ldrb	r0, [r6, #0]
   ba8fa:	f7ff ff9b 	bl	ba834 <__hexdig_fun>
   ba8fe:	2800      	cmp	r0, #0
   ba900:	d1f8      	bne.n	ba8f4 <__gethex+0x94>
   ba902:	9901      	ldr	r1, [sp, #4]
   ba904:	4652      	mov	r2, sl
   ba906:	4630      	mov	r0, r6
   ba908:	f7fe ffa9 	bl	b985e <strncmp>
   ba90c:	b980      	cbnz	r0, ba930 <__gethex+0xd0>
   ba90e:	b94d      	cbnz	r5, ba924 <__gethex+0xc4>
   ba910:	eb06 050a 	add.w	r5, r6, sl
   ba914:	462a      	mov	r2, r5
   ba916:	4616      	mov	r6, r2
   ba918:	3201      	adds	r2, #1
   ba91a:	7830      	ldrb	r0, [r6, #0]
   ba91c:	f7ff ff8a 	bl	ba834 <__hexdig_fun>
   ba920:	2800      	cmp	r0, #0
   ba922:	d1f8      	bne.n	ba916 <__gethex+0xb6>
   ba924:	1bad      	subs	r5, r5, r6
   ba926:	00ad      	lsls	r5, r5, #2
   ba928:	e004      	b.n	ba934 <__gethex+0xd4>
   ba92a:	2400      	movs	r4, #0
   ba92c:	4625      	mov	r5, r4
   ba92e:	e7e0      	b.n	ba8f2 <__gethex+0x92>
   ba930:	2d00      	cmp	r5, #0
   ba932:	d1f7      	bne.n	ba924 <__gethex+0xc4>
   ba934:	7833      	ldrb	r3, [r6, #0]
   ba936:	f003 03df 	and.w	r3, r3, #223	; 0xdf
   ba93a:	2b50      	cmp	r3, #80	; 0x50
   ba93c:	d13b      	bne.n	ba9b6 <__gethex+0x156>
   ba93e:	7873      	ldrb	r3, [r6, #1]
   ba940:	2b2b      	cmp	r3, #43	; 0x2b
   ba942:	d02c      	beq.n	ba99e <__gethex+0x13e>
   ba944:	2b2d      	cmp	r3, #45	; 0x2d
   ba946:	d02e      	beq.n	ba9a6 <__gethex+0x146>
   ba948:	1c71      	adds	r1, r6, #1
   ba94a:	f04f 0900 	mov.w	r9, #0
   ba94e:	7808      	ldrb	r0, [r1, #0]
   ba950:	f7ff ff70 	bl	ba834 <__hexdig_fun>
   ba954:	1e43      	subs	r3, r0, #1
   ba956:	b2db      	uxtb	r3, r3
   ba958:	2b18      	cmp	r3, #24
   ba95a:	d82c      	bhi.n	ba9b6 <__gethex+0x156>
   ba95c:	f1a0 0210 	sub.w	r2, r0, #16
   ba960:	f811 0f01 	ldrb.w	r0, [r1, #1]!
   ba964:	f7ff ff66 	bl	ba834 <__hexdig_fun>
   ba968:	1e43      	subs	r3, r0, #1
   ba96a:	b2db      	uxtb	r3, r3
   ba96c:	2b18      	cmp	r3, #24
   ba96e:	d91d      	bls.n	ba9ac <__gethex+0x14c>
   ba970:	f1b9 0f00 	cmp.w	r9, #0
   ba974:	d000      	beq.n	ba978 <__gethex+0x118>
   ba976:	4252      	negs	r2, r2
   ba978:	4415      	add	r5, r2
   ba97a:	f8cb 1000 	str.w	r1, [fp]
   ba97e:	b1e4      	cbz	r4, ba9ba <__gethex+0x15a>
   ba980:	9b00      	ldr	r3, [sp, #0]
   ba982:	2b00      	cmp	r3, #0
   ba984:	bf14      	ite	ne
   ba986:	2700      	movne	r7, #0
   ba988:	2706      	moveq	r7, #6
   ba98a:	4638      	mov	r0, r7
   ba98c:	b009      	add	sp, #36	; 0x24
   ba98e:	ecbd 8b02 	vpop	{d8}
   ba992:	e8bd 8ff0 	ldmia.w	sp!, {r4, r5, r6, r7, r8, r9, sl, fp, pc}
   ba996:	463e      	mov	r6, r7
   ba998:	4625      	mov	r5, r4
   ba99a:	2401      	movs	r4, #1
   ba99c:	e7ca      	b.n	ba934 <__gethex+0xd4>
   ba99e:	f04f 0900 	mov.w	r9, #0
   ba9a2:	1cb1      	adds	r1, r6, #2
   ba9a4:	e7d3      	b.n	ba94e <__gethex+0xee>
   ba9a6:	f04f 0901 	mov.w	r9, #1
   ba9aa:	e7fa      	b.n	ba9a2 <__gethex+0x142>
   ba9ac:	230a      	movs	r3, #10
   ba9ae:	fb03 0202 	mla	r2, r3, r2, r0
   ba9b2:	3a10      	subs	r2, #16
   ba9b4:	e7d4      	b.n	ba960 <__gethex+0x100>
   ba9b6:	4631      	mov	r1, r6
   ba9b8:	e7df      	b.n	ba97a <__gethex+0x11a>
   ba9ba:	1bf3      	subs	r3, r6, r7
   ba9bc:	3b01      	subs	r3, #1
   ba9be:	4621      	mov	r1, r4
   ba9c0:	2b07      	cmp	r3, #7
   ba9c2:	dc0b      	bgt.n	ba9dc <__gethex+0x17c>
   ba9c4:	ee18 0a10 	vmov	r0, s16
   ba9c8:	f000 fa68 	bl	bae9c <_Balloc>
   ba9cc:	4604      	mov	r4, r0
   ba9ce:	b940      	cbnz	r0, ba9e2 <__gethex+0x182>
   ba9d0:	4b5d      	ldr	r3, [pc, #372]	; (bab48 <__gethex+0x2e8>)
   ba9d2:	4602      	mov	r2, r0
   ba9d4:	21de      	movs	r1, #222	; 0xde
   ba9d6:	485d      	ldr	r0, [pc, #372]	; (bab4c <__gethex+0x2ec>)
   ba9d8:	f7fb f8a2 	bl	b5b20 <__assert_func>
   ba9dc:	3101      	adds	r1, #1
   ba9de:	105b      	asrs	r3, r3, #1
   ba9e0:	e7ee      	b.n	ba9c0 <__gethex+0x160>
   ba9e2:	f100 0914 	add.w	r9, r0, #20
   ba9e6:	f04f 0b00 	mov.w	fp, #0
   ba9ea:	f1ca 0301 	rsb	r3, sl, #1
   ba9ee:	f8cd 9008 	str.w	r9, [sp, #8]
   ba9f2:	f8cd b000 	str.w	fp, [sp]
   ba9f6:	9306      	str	r3, [sp, #24]
   ba9f8:	42b7      	cmp	r7, r6
   ba9fa:	d340      	bcc.n	baa7e <__gethex+0x21e>
   ba9fc:	9802      	ldr	r0, [sp, #8]
   ba9fe:	9b00      	ldr	r3, [sp, #0]
   baa00:	f840 3b04 	str.w	r3, [r0], #4
   baa04:	eba0 0009 	sub.w	r0, r0, r9
   baa08:	1080      	asrs	r0, r0, #2
   baa0a:	0146      	lsls	r6, r0, #5
   baa0c:	6120      	str	r0, [r4, #16]
   baa0e:	4618      	mov	r0, r3
   baa10:	f000 fb36 	bl	bb080 <__hi0bits>
   baa14:	1a30      	subs	r0, r6, r0
   baa16:	f8d8 6000 	ldr.w	r6, [r8]
   baa1a:	42b0      	cmp	r0, r6
   baa1c:	dd63      	ble.n	baae6 <__gethex+0x286>
   baa1e:	1b87      	subs	r7, r0, r6
   baa20:	4639      	mov	r1, r7
   baa22:	4620      	mov	r0, r4
   baa24:	f000 feda 	bl	bb7dc <__any_on>
   baa28:	4682      	mov	sl, r0
   baa2a:	b1a8      	cbz	r0, baa58 <__gethex+0x1f8>
   baa2c:	1e7b      	subs	r3, r7, #1
   baa2e:	1159      	asrs	r1, r3, #5
   baa30:	f003 021f 	and.w	r2, r3, #31
   baa34:	f859 1021 	ldr.w	r1, [r9, r1, lsl #2]
   baa38:	f04f 0a01 	mov.w	sl, #1
   baa3c:	fa0a f202 	lsl.w	r2, sl, r2
   baa40:	420a      	tst	r2, r1
   baa42:	d009      	beq.n	baa58 <__gethex+0x1f8>
   baa44:	4553      	cmp	r3, sl
   baa46:	dd05      	ble.n	baa54 <__gethex+0x1f4>
   baa48:	1eb9      	subs	r1, r7, #2
   baa4a:	4620      	mov	r0, r4
   baa4c:	f000 fec6 	bl	bb7dc <__any_on>
   baa50:	2800      	cmp	r0, #0
   baa52:	d145      	bne.n	baae0 <__gethex+0x280>
   baa54:	f04f 0a02 	mov.w	sl, #2
   baa58:	4639      	mov	r1, r7
   baa5a:	4620      	mov	r0, r4
   baa5c:	f7ff fe98 	bl	ba790 <rshift>
   baa60:	443d      	add	r5, r7
   baa62:	f8d8 3008 	ldr.w	r3, [r8, #8]
   baa66:	42ab      	cmp	r3, r5
   baa68:	da4c      	bge.n	bab04 <__gethex+0x2a4>
   baa6a:	ee18 0a10 	vmov	r0, s16
   baa6e:	4621      	mov	r1, r4
   baa70:	f000 fa54 	bl	baf1c <_Bfree>
   baa74:	9a14      	ldr	r2, [sp, #80]	; 0x50
   baa76:	2300      	movs	r3, #0
   baa78:	6013      	str	r3, [r2, #0]
   baa7a:	27a3      	movs	r7, #163	; 0xa3
   baa7c:	e785      	b.n	ba98a <__gethex+0x12a>
   baa7e:	1e73      	subs	r3, r6, #1
   baa80:	9a05      	ldr	r2, [sp, #20]
   baa82:	9303      	str	r3, [sp, #12]
   baa84:	f816 3c01 	ldrb.w	r3, [r6, #-1]
   baa88:	4293      	cmp	r3, r2
   baa8a:	d019      	beq.n	baac0 <__gethex+0x260>
   baa8c:	f1bb 0f20 	cmp.w	fp, #32
   baa90:	d107      	bne.n	baaa2 <__gethex+0x242>
   baa92:	9b02      	ldr	r3, [sp, #8]
   baa94:	9a00      	ldr	r2, [sp, #0]
   baa96:	f843 2b04 	str.w	r2, [r3], #4
   baa9a:	9302      	str	r3, [sp, #8]
   baa9c:	2300      	movs	r3, #0
   baa9e:	9300      	str	r3, [sp, #0]
   baaa0:	469b      	mov	fp, r3
   baaa2:	f816 0c01 	ldrb.w	r0, [r6, #-1]
   baaa6:	f7ff fec5 	bl	ba834 <__hexdig_fun>
   baaaa:	9b00      	ldr	r3, [sp, #0]
   baaac:	f000 000f 	and.w	r0, r0, #15
   baab0:	fa00 f00b 	lsl.w	r0, r0, fp
   baab4:	4303      	orrs	r3, r0
   baab6:	9300      	str	r3, [sp, #0]
   baab8:	f10b 0b04 	add.w	fp, fp, #4
   baabc:	9b03      	ldr	r3, [sp, #12]
   baabe:	e00d      	b.n	baadc <__gethex+0x27c>
   baac0:	9b03      	ldr	r3, [sp, #12]
   baac2:	9a06      	ldr	r2, [sp, #24]
   baac4:	4413      	add	r3, r2
   baac6:	42bb      	cmp	r3, r7
   baac8:	d3e0      	bcc.n	baa8c <__gethex+0x22c>
   baaca:	4618      	mov	r0, r3
   baacc:	9901      	ldr	r1, [sp, #4]
   baace:	9307      	str	r3, [sp, #28]
   baad0:	4652      	mov	r2, sl
   baad2:	f7fe fec4 	bl	b985e <strncmp>
   baad6:	9b07      	ldr	r3, [sp, #28]
   baad8:	2800      	cmp	r0, #0
   baada:	d1d7      	bne.n	baa8c <__gethex+0x22c>
   baadc:	461e      	mov	r6, r3
   baade:	e78b      	b.n	ba9f8 <__gethex+0x198>
   baae0:	f04f 0a03 	mov.w	sl, #3
   baae4:	e7b8      	b.n	baa58 <__gethex+0x1f8>
   baae6:	da0a      	bge.n	baafe <__gethex+0x29e>
   baae8:	1a37      	subs	r7, r6, r0
   baaea:	4621      	mov	r1, r4
   baaec:	ee18 0a10 	vmov	r0, s16
   baaf0:	463a      	mov	r2, r7
   baaf2:	f000 fc2f 	bl	bb354 <__lshift>
   baaf6:	1bed      	subs	r5, r5, r7
   baaf8:	4604      	mov	r4, r0
   baafa:	f100 0914 	add.w	r9, r0, #20
   baafe:	f04f 0a00 	mov.w	sl, #0
   bab02:	e7ae      	b.n	baa62 <__gethex+0x202>
   bab04:	f8d8 0004 	ldr.w	r0, [r8, #4]
   bab08:	42a8      	cmp	r0, r5
   bab0a:	dd72      	ble.n	babf2 <__gethex+0x392>
   bab0c:	1b45      	subs	r5, r0, r5
   bab0e:	42ae      	cmp	r6, r5
   bab10:	dc36      	bgt.n	bab80 <__gethex+0x320>
   bab12:	f8d8 300c 	ldr.w	r3, [r8, #12]
   bab16:	2b02      	cmp	r3, #2
   bab18:	d02a      	beq.n	bab70 <__gethex+0x310>
   bab1a:	2b03      	cmp	r3, #3
   bab1c:	d02c      	beq.n	bab78 <__gethex+0x318>
   bab1e:	2b01      	cmp	r3, #1
   bab20:	d11c      	bne.n	bab5c <__gethex+0x2fc>
   bab22:	42ae      	cmp	r6, r5
   bab24:	d11a      	bne.n	bab5c <__gethex+0x2fc>
   bab26:	2e01      	cmp	r6, #1
   bab28:	d112      	bne.n	bab50 <__gethex+0x2f0>
   bab2a:	9a04      	ldr	r2, [sp, #16]
   bab2c:	f8d8 3004 	ldr.w	r3, [r8, #4]
   bab30:	6013      	str	r3, [r2, #0]
   bab32:	2301      	movs	r3, #1
   bab34:	6123      	str	r3, [r4, #16]
   bab36:	f8c9 3000 	str.w	r3, [r9]
   bab3a:	9b14      	ldr	r3, [sp, #80]	; 0x50
   bab3c:	2762      	movs	r7, #98	; 0x62
   bab3e:	601c      	str	r4, [r3, #0]
   bab40:	e723      	b.n	ba98a <__gethex+0x12a>
   bab42:	bf00      	nop
   bab44:	000bc5f8 	.word	0x000bc5f8
   bab48:	000bc560 	.word	0x000bc560
   bab4c:	000bc571 	.word	0x000bc571
   bab50:	1e71      	subs	r1, r6, #1
   bab52:	4620      	mov	r0, r4
   bab54:	f000 fe42 	bl	bb7dc <__any_on>
   bab58:	2800      	cmp	r0, #0
   bab5a:	d1e6      	bne.n	bab2a <__gethex+0x2ca>
   bab5c:	ee18 0a10 	vmov	r0, s16
   bab60:	4621      	mov	r1, r4
   bab62:	f000 f9db 	bl	baf1c <_Bfree>
   bab66:	9a14      	ldr	r2, [sp, #80]	; 0x50
   bab68:	2300      	movs	r3, #0
   bab6a:	6013      	str	r3, [r2, #0]
   bab6c:	2750      	movs	r7, #80	; 0x50
   bab6e:	e70c      	b.n	ba98a <__gethex+0x12a>
   bab70:	9b15      	ldr	r3, [sp, #84]	; 0x54
   bab72:	2b00      	cmp	r3, #0
   bab74:	d1f2      	bne.n	bab5c <__gethex+0x2fc>
   bab76:	e7d8      	b.n	bab2a <__gethex+0x2ca>
   bab78:	9b15      	ldr	r3, [sp, #84]	; 0x54
   bab7a:	2b00      	cmp	r3, #0
   bab7c:	d1d5      	bne.n	bab2a <__gethex+0x2ca>
   bab7e:	e7ed      	b.n	bab5c <__gethex+0x2fc>
   bab80:	1e6f      	subs	r7, r5, #1
   bab82:	f1ba 0f00 	cmp.w	sl, #0
   bab86:	d131      	bne.n	babec <__gethex+0x38c>
   bab88:	b127      	cbz	r7, bab94 <__gethex+0x334>
   bab8a:	4639      	mov	r1, r7
   bab8c:	4620      	mov	r0, r4
   bab8e:	f000 fe25 	bl	bb7dc <__any_on>
   bab92:	4682      	mov	sl, r0
   bab94:	117b      	asrs	r3, r7, #5
   bab96:	2101      	movs	r1, #1
   bab98:	f859 3023 	ldr.w	r3, [r9, r3, lsl #2]
   bab9c:	f007 071f 	and.w	r7, r7, #31
   baba0:	fa01 f707 	lsl.w	r7, r1, r7
   baba4:	421f      	tst	r7, r3
   baba6:	4629      	mov	r1, r5
   baba8:	4620      	mov	r0, r4
   babaa:	bf18      	it	ne
   babac:	f04a 0a02 	orrne.w	sl, sl, #2
   babb0:	1b76      	subs	r6, r6, r5
   babb2:	f7ff fded 	bl	ba790 <rshift>
   babb6:	f8d8 5004 	ldr.w	r5, [r8, #4]
   babba:	2702      	movs	r7, #2
   babbc:	f1ba 0f00 	cmp.w	sl, #0
   babc0:	d048      	beq.n	bac54 <__gethex+0x3f4>
   babc2:	f8d8 300c 	ldr.w	r3, [r8, #12]
   babc6:	2b02      	cmp	r3, #2
   babc8:	d015      	beq.n	babf6 <__gethex+0x396>
   babca:	2b03      	cmp	r3, #3
   babcc:	d017      	beq.n	babfe <__gethex+0x39e>
   babce:	2b01      	cmp	r3, #1
   babd0:	d109      	bne.n	babe6 <__gethex+0x386>
   babd2:	f01a 0f02 	tst.w	sl, #2
   babd6:	d006      	beq.n	babe6 <__gethex+0x386>
   babd8:	f8d9 0000 	ldr.w	r0, [r9]
   babdc:	ea4a 0a00 	orr.w	sl, sl, r0
   babe0:	f01a 0f01 	tst.w	sl, #1
   babe4:	d10e      	bne.n	bac04 <__gethex+0x3a4>
   babe6:	f047 0710 	orr.w	r7, r7, #16
   babea:	e033      	b.n	bac54 <__gethex+0x3f4>
   babec:	f04f 0a01 	mov.w	sl, #1
   babf0:	e7d0      	b.n	bab94 <__gethex+0x334>
   babf2:	2701      	movs	r7, #1
   babf4:	e7e2      	b.n	babbc <__gethex+0x35c>
   babf6:	9b15      	ldr	r3, [sp, #84]	; 0x54
   babf8:	f1c3 0301 	rsb	r3, r3, #1
   babfc:	9315      	str	r3, [sp, #84]	; 0x54
   babfe:	9b15      	ldr	r3, [sp, #84]	; 0x54
   bac00:	2b00      	cmp	r3, #0
   bac02:	d0f0      	beq.n	babe6 <__gethex+0x386>
   bac04:	f8d4 b010 	ldr.w	fp, [r4, #16]
   bac08:	f104 0314 	add.w	r3, r4, #20
   bac0c:	ea4f 0a8b 	mov.w	sl, fp, lsl #2
   bac10:	eb03 018b 	add.w	r1, r3, fp, lsl #2
   bac14:	f04f 0c00 	mov.w	ip, #0
   bac18:	4618      	mov	r0, r3
   bac1a:	f853 2b04 	ldr.w	r2, [r3], #4
   bac1e:	f1b2 3fff 	cmp.w	r2, #4294967295
   bac22:	d01c      	beq.n	bac5e <__gethex+0x3fe>
   bac24:	3201      	adds	r2, #1
   bac26:	6002      	str	r2, [r0, #0]
   bac28:	2f02      	cmp	r7, #2
   bac2a:	f104 0314 	add.w	r3, r4, #20
   bac2e:	d13f      	bne.n	bacb0 <__gethex+0x450>
   bac30:	f8d8 2000 	ldr.w	r2, [r8]
   bac34:	3a01      	subs	r2, #1
   bac36:	42b2      	cmp	r2, r6
   bac38:	d10a      	bne.n	bac50 <__gethex+0x3f0>
   bac3a:	1171      	asrs	r1, r6, #5
   bac3c:	2201      	movs	r2, #1
   bac3e:	f853 3021 	ldr.w	r3, [r3, r1, lsl #2]
   bac42:	f006 061f 	and.w	r6, r6, #31
   bac46:	fa02 f606 	lsl.w	r6, r2, r6
   bac4a:	421e      	tst	r6, r3
   bac4c:	bf18      	it	ne
   bac4e:	4617      	movne	r7, r2
   bac50:	f047 0720 	orr.w	r7, r7, #32
   bac54:	9b14      	ldr	r3, [sp, #80]	; 0x50
   bac56:	601c      	str	r4, [r3, #0]
   bac58:	9b04      	ldr	r3, [sp, #16]
   bac5a:	601d      	str	r5, [r3, #0]
   bac5c:	e695      	b.n	ba98a <__gethex+0x12a>
   bac5e:	4299      	cmp	r1, r3
   bac60:	f843 cc04 	str.w	ip, [r3, #-4]
   bac64:	d8d8      	bhi.n	bac18 <__gethex+0x3b8>
   bac66:	68a3      	ldr	r3, [r4, #8]
   bac68:	459b      	cmp	fp, r3
   bac6a:	db19      	blt.n	baca0 <__gethex+0x440>
   bac6c:	6861      	ldr	r1, [r4, #4]
   bac6e:	ee18 0a10 	vmov	r0, s16
   bac72:	3101      	adds	r1, #1
   bac74:	f000 f912 	bl	bae9c <_Balloc>
   bac78:	4681      	mov	r9, r0
   bac7a:	b918      	cbnz	r0, bac84 <__gethex+0x424>
   bac7c:	4b1a      	ldr	r3, [pc, #104]	; (bace8 <__gethex+0x488>)
   bac7e:	4602      	mov	r2, r0
   bac80:	2184      	movs	r1, #132	; 0x84
   bac82:	e6a8      	b.n	ba9d6 <__gethex+0x176>
   bac84:	6922      	ldr	r2, [r4, #16]
   bac86:	3202      	adds	r2, #2
   bac88:	f104 010c 	add.w	r1, r4, #12
   bac8c:	0092      	lsls	r2, r2, #2
   bac8e:	300c      	adds	r0, #12
   bac90:	f7fe fd3f 	bl	b9712 <memcpy>
   bac94:	4621      	mov	r1, r4
   bac96:	ee18 0a10 	vmov	r0, s16
   bac9a:	f000 f93f 	bl	baf1c <_Bfree>
   bac9e:	464c      	mov	r4, r9
   baca0:	6923      	ldr	r3, [r4, #16]
   baca2:	1c5a      	adds	r2, r3, #1
   baca4:	eb04 0383 	add.w	r3, r4, r3, lsl #2
   baca8:	6122      	str	r2, [r4, #16]
   bacaa:	2201      	movs	r2, #1
   bacac:	615a      	str	r2, [r3, #20]
   bacae:	e7bb      	b.n	bac28 <__gethex+0x3c8>
   bacb0:	6922      	ldr	r2, [r4, #16]
   bacb2:	455a      	cmp	r2, fp
   bacb4:	dd0b      	ble.n	bacce <__gethex+0x46e>
   bacb6:	2101      	movs	r1, #1
   bacb8:	4620      	mov	r0, r4
   bacba:	f7ff fd69 	bl	ba790 <rshift>
   bacbe:	f8d8 3008 	ldr.w	r3, [r8, #8]
   bacc2:	3501      	adds	r5, #1
   bacc4:	42ab      	cmp	r3, r5
   bacc6:	f6ff aed0 	blt.w	baa6a <__gethex+0x20a>
   bacca:	2701      	movs	r7, #1
   baccc:	e7c0      	b.n	bac50 <__gethex+0x3f0>
   bacce:	f016 061f 	ands.w	r6, r6, #31
   bacd2:	d0fa      	beq.n	bacca <__gethex+0x46a>
   bacd4:	4453      	add	r3, sl
   bacd6:	f1c6 0620 	rsb	r6, r6, #32
   bacda:	f853 0c04 	ldr.w	r0, [r3, #-4]
   bacde:	f000 f9cf 	bl	bb080 <__hi0bits>
   bace2:	42b0      	cmp	r0, r6
   bace4:	dbe7      	blt.n	bacb6 <__gethex+0x456>
   bace6:	e7f0      	b.n	bacca <__gethex+0x46a>
   bace8:	000bc560 	.word	0x000bc560

000bacec <L_shift>:
   bacec:	f1c2 0208 	rsb	r2, r2, #8
   bacf0:	0092      	lsls	r2, r2, #2
   bacf2:	b570      	push	{r4, r5, r6, lr}
   bacf4:	f1c2 0620 	rsb	r6, r2, #32
   bacf8:	6843      	ldr	r3, [r0, #4]
   bacfa:	6804      	ldr	r4, [r0, #0]
   bacfc:	fa03 f506 	lsl.w	r5, r3, r6
   bad00:	432c      	orrs	r4, r5
   bad02:	40d3      	lsrs	r3, r2
   bad04:	6004      	str	r4, [r0, #0]
   bad06:	f840 3f04 	str.w	r3, [r0, #4]!
   bad0a:	4288      	cmp	r0, r1
   bad0c:	d3f4      	bcc.n	bacf8 <L_shift+0xc>
   bad0e:	bd70      	pop	{r4, r5, r6, pc}

000bad10 <__match>:
   bad10:	b530      	push	{r4, r5, lr}
   bad12:	6803      	ldr	r3, [r0, #0]
   bad14:	3301      	adds	r3, #1
   bad16:	f811 4b01 	ldrb.w	r4, [r1], #1
   bad1a:	b914      	cbnz	r4, bad22 <__match+0x12>
   bad1c:	6003      	str	r3, [r0, #0]
   bad1e:	2001      	movs	r0, #1
   bad20:	bd30      	pop	{r4, r5, pc}
   bad22:	f813 2b01 	ldrb.w	r2, [r3], #1
   bad26:	f1a2 0541 	sub.w	r5, r2, #65	; 0x41
   bad2a:	2d19      	cmp	r5, #25
   bad2c:	bf98      	it	ls
   bad2e:	3220      	addls	r2, #32
   bad30:	42a2      	cmp	r2, r4
   bad32:	d0f0      	beq.n	bad16 <__match+0x6>
   bad34:	2000      	movs	r0, #0
   bad36:	e7f3      	b.n	bad20 <__match+0x10>

000bad38 <__hexnan>:
   bad38:	e92d 4ff0 	stmdb	sp!, {r4, r5, r6, r7, r8, r9, sl, fp, lr}
   bad3c:	680b      	ldr	r3, [r1, #0]
   bad3e:	115e      	asrs	r6, r3, #5
   bad40:	eb02 0686 	add.w	r6, r2, r6, lsl #2
   bad44:	f013 031f 	ands.w	r3, r3, #31
   bad48:	b087      	sub	sp, #28
   bad4a:	bf18      	it	ne
   bad4c:	3604      	addne	r6, #4
   bad4e:	2500      	movs	r5, #0
   bad50:	1f37      	subs	r7, r6, #4
   bad52:	4690      	mov	r8, r2
   bad54:	6802      	ldr	r2, [r0, #0]
   bad56:	9301      	str	r3, [sp, #4]
   bad58:	4682      	mov	sl, r0
   bad5a:	f846 5c04 	str.w	r5, [r6, #-4]
   bad5e:	46b9      	mov	r9, r7
   bad60:	463c      	mov	r4, r7
   bad62:	9502      	str	r5, [sp, #8]
   bad64:	46ab      	mov	fp, r5
   bad66:	7851      	ldrb	r1, [r2, #1]
   bad68:	1c53      	adds	r3, r2, #1
   bad6a:	9303      	str	r3, [sp, #12]
   bad6c:	b341      	cbz	r1, badc0 <__hexnan+0x88>
   bad6e:	4608      	mov	r0, r1
   bad70:	9205      	str	r2, [sp, #20]
   bad72:	9104      	str	r1, [sp, #16]
   bad74:	f7ff fd5e 	bl	ba834 <__hexdig_fun>
   bad78:	2800      	cmp	r0, #0
   bad7a:	d14f      	bne.n	bae1c <__hexnan+0xe4>
   bad7c:	9904      	ldr	r1, [sp, #16]
   bad7e:	9a05      	ldr	r2, [sp, #20]
   bad80:	2920      	cmp	r1, #32
   bad82:	d818      	bhi.n	badb6 <__hexnan+0x7e>
   bad84:	9b02      	ldr	r3, [sp, #8]
   bad86:	459b      	cmp	fp, r3
   bad88:	dd13      	ble.n	badb2 <__hexnan+0x7a>
   bad8a:	454c      	cmp	r4, r9
   bad8c:	d206      	bcs.n	bad9c <__hexnan+0x64>
   bad8e:	2d07      	cmp	r5, #7
   bad90:	dc04      	bgt.n	bad9c <__hexnan+0x64>
   bad92:	462a      	mov	r2, r5
   bad94:	4649      	mov	r1, r9
   bad96:	4620      	mov	r0, r4
   bad98:	f7ff ffa8 	bl	bacec <L_shift>
   bad9c:	4544      	cmp	r4, r8
   bad9e:	d950      	bls.n	bae42 <__hexnan+0x10a>
   bada0:	2300      	movs	r3, #0
   bada2:	f1a4 0904 	sub.w	r9, r4, #4
   bada6:	f844 3c04 	str.w	r3, [r4, #-4]
   badaa:	f8cd b008 	str.w	fp, [sp, #8]
   badae:	464c      	mov	r4, r9
   badb0:	461d      	mov	r5, r3
   badb2:	9a03      	ldr	r2, [sp, #12]
   badb4:	e7d7      	b.n	bad66 <__hexnan+0x2e>
   badb6:	2929      	cmp	r1, #41	; 0x29
   badb8:	d156      	bne.n	bae68 <__hexnan+0x130>
   badba:	3202      	adds	r2, #2
   badbc:	f8ca 2000 	str.w	r2, [sl]
   badc0:	f1bb 0f00 	cmp.w	fp, #0
   badc4:	d050      	beq.n	bae68 <__hexnan+0x130>
   badc6:	454c      	cmp	r4, r9
   badc8:	d206      	bcs.n	badd8 <__hexnan+0xa0>
   badca:	2d07      	cmp	r5, #7
   badcc:	dc04      	bgt.n	badd8 <__hexnan+0xa0>
   badce:	462a      	mov	r2, r5
   badd0:	4649      	mov	r1, r9
   badd2:	4620      	mov	r0, r4
   badd4:	f7ff ff8a 	bl	bacec <L_shift>
   badd8:	4544      	cmp	r4, r8
   badda:	d934      	bls.n	bae46 <__hexnan+0x10e>
   baddc:	f1a8 0204 	sub.w	r2, r8, #4
   bade0:	4623      	mov	r3, r4
   bade2:	f853 1b04 	ldr.w	r1, [r3], #4
   bade6:	f842 1f04 	str.w	r1, [r2, #4]!
   badea:	429f      	cmp	r7, r3
   badec:	d2f9      	bcs.n	bade2 <__hexnan+0xaa>
   badee:	1b3b      	subs	r3, r7, r4
   badf0:	f023 0303 	bic.w	r3, r3, #3
   badf4:	3304      	adds	r3, #4
   badf6:	3401      	adds	r4, #1
   badf8:	3e03      	subs	r6, #3
   badfa:	42b4      	cmp	r4, r6
   badfc:	bf88      	it	hi
   badfe:	2304      	movhi	r3, #4
   bae00:	4443      	add	r3, r8
   bae02:	2200      	movs	r2, #0
   bae04:	f843 2b04 	str.w	r2, [r3], #4
   bae08:	429f      	cmp	r7, r3
   bae0a:	d2fb      	bcs.n	bae04 <__hexnan+0xcc>
   bae0c:	683b      	ldr	r3, [r7, #0]
   bae0e:	b91b      	cbnz	r3, bae18 <__hexnan+0xe0>
   bae10:	4547      	cmp	r7, r8
   bae12:	d127      	bne.n	bae64 <__hexnan+0x12c>
   bae14:	2301      	movs	r3, #1
   bae16:	603b      	str	r3, [r7, #0]
   bae18:	2005      	movs	r0, #5
   bae1a:	e026      	b.n	bae6a <__hexnan+0x132>
   bae1c:	3501      	adds	r5, #1
   bae1e:	2d08      	cmp	r5, #8
   bae20:	f10b 0b01 	add.w	fp, fp, #1
   bae24:	dd06      	ble.n	bae34 <__hexnan+0xfc>
   bae26:	4544      	cmp	r4, r8
   bae28:	d9c3      	bls.n	badb2 <__hexnan+0x7a>
   bae2a:	2300      	movs	r3, #0
   bae2c:	f844 3c04 	str.w	r3, [r4, #-4]
   bae30:	2501      	movs	r5, #1
   bae32:	3c04      	subs	r4, #4
   bae34:	6822      	ldr	r2, [r4, #0]
   bae36:	f000 000f 	and.w	r0, r0, #15
   bae3a:	ea40 1202 	orr.w	r2, r0, r2, lsl #4
   bae3e:	6022      	str	r2, [r4, #0]
   bae40:	e7b7      	b.n	badb2 <__hexnan+0x7a>
   bae42:	2508      	movs	r5, #8
   bae44:	e7b5      	b.n	badb2 <__hexnan+0x7a>
   bae46:	9b01      	ldr	r3, [sp, #4]
   bae48:	2b00      	cmp	r3, #0
   bae4a:	d0df      	beq.n	bae0c <__hexnan+0xd4>
   bae4c:	f04f 32ff 	mov.w	r2, #4294967295
   bae50:	f1c3 0320 	rsb	r3, r3, #32
   bae54:	fa22 f303 	lsr.w	r3, r2, r3
   bae58:	f856 2c04 	ldr.w	r2, [r6, #-4]
   bae5c:	401a      	ands	r2, r3
   bae5e:	f846 2c04 	str.w	r2, [r6, #-4]
   bae62:	e7d3      	b.n	bae0c <__hexnan+0xd4>
   bae64:	3f04      	subs	r7, #4
   bae66:	e7d1      	b.n	bae0c <__hexnan+0xd4>
   bae68:	2004      	movs	r0, #4
   bae6a:	b007      	add	sp, #28
   bae6c:	e8bd 8ff0 	ldmia.w	sp!, {r4, r5, r6, r7, r8, r9, sl, fp, pc}

000bae70 <__retarget_lock_acquire_recursive>:
   bae70:	4770      	bx	lr

000bae72 <__retarget_lock_release>:
   bae72:	4770      	bx	lr

000bae74 <__retarget_lock_release_recursive>:
   bae74:	4770      	bx	lr

000bae76 <__ascii_mbtowc>:
   bae76:	b082      	sub	sp, #8
   bae78:	b901      	cbnz	r1, bae7c <__ascii_mbtowc+0x6>
   bae7a:	a901      	add	r1, sp, #4
   bae7c:	b142      	cbz	r2, bae90 <__ascii_mbtowc+0x1a>
   bae7e:	b14b      	cbz	r3, bae94 <__ascii_mbtowc+0x1e>
   bae80:	7813      	ldrb	r3, [r2, #0]
   bae82:	600b      	str	r3, [r1, #0]
   bae84:	7812      	ldrb	r2, [r2, #0]
   bae86:	1e10      	subs	r0, r2, #0
   bae88:	bf18      	it	ne
   bae8a:	2001      	movne	r0, #1
   bae8c:	b002      	add	sp, #8
   bae8e:	4770      	bx	lr
   bae90:	4610      	mov	r0, r2
   bae92:	e7fb      	b.n	bae8c <__ascii_mbtowc+0x16>
   bae94:	f06f 0001 	mvn.w	r0, #1
   bae98:	e7f8      	b.n	bae8c <__ascii_mbtowc+0x16>
	...

000bae9c <_Balloc>:
   bae9c:	b570      	push	{r4, r5, r6, lr}
   bae9e:	6a46      	ldr	r6, [r0, #36]	; 0x24
   baea0:	4604      	mov	r4, r0
   baea2:	460d      	mov	r5, r1
   baea4:	b976      	cbnz	r6, baec4 <_Balloc+0x28>
   baea6:	2010      	movs	r0, #16
   baea8:	f7fa fdfa 	bl	b5aa0 <malloc>
   baeac:	4602      	mov	r2, r0
   baeae:	6260      	str	r0, [r4, #36]	; 0x24
   baeb0:	b920      	cbnz	r0, baebc <_Balloc+0x20>
   baeb2:	4b18      	ldr	r3, [pc, #96]	; (baf14 <_Balloc+0x78>)
   baeb4:	4818      	ldr	r0, [pc, #96]	; (baf18 <_Balloc+0x7c>)
   baeb6:	2166      	movs	r1, #102	; 0x66
   baeb8:	f7fa fe32 	bl	b5b20 <__assert_func>
   baebc:	e9c0 6601 	strd	r6, r6, [r0, #4]
   baec0:	6006      	str	r6, [r0, #0]
   baec2:	60c6      	str	r6, [r0, #12]
   baec4:	6a66      	ldr	r6, [r4, #36]	; 0x24
   baec6:	68f3      	ldr	r3, [r6, #12]
   baec8:	b183      	cbz	r3, baeec <_Balloc+0x50>
   baeca:	6a63      	ldr	r3, [r4, #36]	; 0x24
   baecc:	68db      	ldr	r3, [r3, #12]
   baece:	f853 0025 	ldr.w	r0, [r3, r5, lsl #2]
   baed2:	b9b8      	cbnz	r0, baf04 <_Balloc+0x68>
   baed4:	2101      	movs	r1, #1
   baed6:	fa01 f605 	lsl.w	r6, r1, r5
   baeda:	1d72      	adds	r2, r6, #5
   baedc:	0092      	lsls	r2, r2, #2
   baede:	4620      	mov	r0, r4
   baee0:	f000 fc9d 	bl	bb81e <_calloc_r>
   baee4:	b160      	cbz	r0, baf00 <_Balloc+0x64>
   baee6:	e9c0 5601 	strd	r5, r6, [r0, #4]
   baeea:	e00e      	b.n	baf0a <_Balloc+0x6e>
   baeec:	2221      	movs	r2, #33	; 0x21
   baeee:	2104      	movs	r1, #4
   baef0:	4620      	mov	r0, r4
   baef2:	f000 fc94 	bl	bb81e <_calloc_r>
   baef6:	6a63      	ldr	r3, [r4, #36]	; 0x24
   baef8:	60f0      	str	r0, [r6, #12]
   baefa:	68db      	ldr	r3, [r3, #12]
   baefc:	2b00      	cmp	r3, #0
   baefe:	d1e4      	bne.n	baeca <_Balloc+0x2e>
   baf00:	2000      	movs	r0, #0
   baf02:	bd70      	pop	{r4, r5, r6, pc}
   baf04:	6802      	ldr	r2, [r0, #0]
   baf06:	f843 2025 	str.w	r2, [r3, r5, lsl #2]
   baf0a:	2300      	movs	r3, #0
   baf0c:	e9c0 3303 	strd	r3, r3, [r0, #12]
   baf10:	e7f7      	b.n	baf02 <_Balloc+0x66>
   baf12:	bf00      	nop
   baf14:	000bc2e9 	.word	0x000bc2e9
   baf18:	000bc60c 	.word	0x000bc60c

000baf1c <_Bfree>:
   baf1c:	b570      	push	{r4, r5, r6, lr}
   baf1e:	6a46      	ldr	r6, [r0, #36]	; 0x24
   baf20:	4605      	mov	r5, r0
   baf22:	460c      	mov	r4, r1
   baf24:	b976      	cbnz	r6, baf44 <_Bfree+0x28>
   baf26:	2010      	movs	r0, #16
   baf28:	f7fa fdba 	bl	b5aa0 <malloc>
   baf2c:	4602      	mov	r2, r0
   baf2e:	6268      	str	r0, [r5, #36]	; 0x24
   baf30:	b920      	cbnz	r0, baf3c <_Bfree+0x20>
   baf32:	4b09      	ldr	r3, [pc, #36]	; (baf58 <_Bfree+0x3c>)
   baf34:	4809      	ldr	r0, [pc, #36]	; (baf5c <_Bfree+0x40>)
   baf36:	218a      	movs	r1, #138	; 0x8a
   baf38:	f7fa fdf2 	bl	b5b20 <__assert_func>
   baf3c:	e9c0 6601 	strd	r6, r6, [r0, #4]
   baf40:	6006      	str	r6, [r0, #0]
   baf42:	60c6      	str	r6, [r0, #12]
   baf44:	b13c      	cbz	r4, baf56 <_Bfree+0x3a>
   baf46:	6a6b      	ldr	r3, [r5, #36]	; 0x24
   baf48:	6862      	ldr	r2, [r4, #4]
   baf4a:	68db      	ldr	r3, [r3, #12]
   baf4c:	f853 1022 	ldr.w	r1, [r3, r2, lsl #2]
   baf50:	6021      	str	r1, [r4, #0]
   baf52:	f843 4022 	str.w	r4, [r3, r2, lsl #2]
   baf56:	bd70      	pop	{r4, r5, r6, pc}
   baf58:	000bc2e9 	.word	0x000bc2e9
   baf5c:	000bc60c 	.word	0x000bc60c

000baf60 <__multadd>:
   baf60:	e92d 41f0 	stmdb	sp!, {r4, r5, r6, r7, r8, lr}
   baf64:	690d      	ldr	r5, [r1, #16]
   baf66:	4607      	mov	r7, r0
   baf68:	460c      	mov	r4, r1
   baf6a:	461e      	mov	r6, r3
   baf6c:	f101 0c14 	add.w	ip, r1, #20
   baf70:	2000      	movs	r0, #0
   baf72:	f8dc 3000 	ldr.w	r3, [ip]
   baf76:	b299      	uxth	r1, r3
   baf78:	fb02 6101 	mla	r1, r2, r1, r6
   baf7c:	0c1e      	lsrs	r6, r3, #16
   baf7e:	0c0b      	lsrs	r3, r1, #16
   baf80:	fb02 3306 	mla	r3, r2, r6, r3
   baf84:	b289      	uxth	r1, r1
   baf86:	3001      	adds	r0, #1
   baf88:	eb01 4103 	add.w	r1, r1, r3, lsl #16
   baf8c:	4285      	cmp	r5, r0
   baf8e:	f84c 1b04 	str.w	r1, [ip], #4
   baf92:	ea4f 4613 	mov.w	r6, r3, lsr #16
   baf96:	dcec      	bgt.n	baf72 <__multadd+0x12>
   baf98:	b30e      	cbz	r6, bafde <__multadd+0x7e>
   baf9a:	68a3      	ldr	r3, [r4, #8]
   baf9c:	42ab      	cmp	r3, r5
   baf9e:	dc19      	bgt.n	bafd4 <__multadd+0x74>
   bafa0:	6861      	ldr	r1, [r4, #4]
   bafa2:	4638      	mov	r0, r7
   bafa4:	3101      	adds	r1, #1
   bafa6:	f7ff ff79 	bl	bae9c <_Balloc>
   bafaa:	4680      	mov	r8, r0
   bafac:	b928      	cbnz	r0, bafba <__multadd+0x5a>
   bafae:	4602      	mov	r2, r0
   bafb0:	4b0c      	ldr	r3, [pc, #48]	; (bafe4 <__multadd+0x84>)
   bafb2:	480d      	ldr	r0, [pc, #52]	; (bafe8 <__multadd+0x88>)
   bafb4:	21b5      	movs	r1, #181	; 0xb5
   bafb6:	f7fa fdb3 	bl	b5b20 <__assert_func>
   bafba:	6922      	ldr	r2, [r4, #16]
   bafbc:	3202      	adds	r2, #2
   bafbe:	f104 010c 	add.w	r1, r4, #12
   bafc2:	0092      	lsls	r2, r2, #2
   bafc4:	300c      	adds	r0, #12
   bafc6:	f7fe fba4 	bl	b9712 <memcpy>
   bafca:	4621      	mov	r1, r4
   bafcc:	4638      	mov	r0, r7
   bafce:	f7ff ffa5 	bl	baf1c <_Bfree>
   bafd2:	4644      	mov	r4, r8
   bafd4:	eb04 0385 	add.w	r3, r4, r5, lsl #2
   bafd8:	3501      	adds	r5, #1
   bafda:	615e      	str	r6, [r3, #20]
   bafdc:	6125      	str	r5, [r4, #16]
   bafde:	4620      	mov	r0, r4
   bafe0:	e8bd 81f0 	ldmia.w	sp!, {r4, r5, r6, r7, r8, pc}
   bafe4:	000bc560 	.word	0x000bc560
   bafe8:	000bc60c 	.word	0x000bc60c

000bafec <__s2b>:
   bafec:	e92d 43f8 	stmdb	sp!, {r3, r4, r5, r6, r7, r8, r9, lr}
   baff0:	460c      	mov	r4, r1
   baff2:	4615      	mov	r5, r2
   baff4:	461f      	mov	r7, r3
   baff6:	2209      	movs	r2, #9
   baff8:	3308      	adds	r3, #8
   baffa:	4606      	mov	r6, r0
   baffc:	fb93 f3f2 	sdiv	r3, r3, r2
   bb000:	2100      	movs	r1, #0
   bb002:	2201      	movs	r2, #1
   bb004:	429a      	cmp	r2, r3
   bb006:	db09      	blt.n	bb01c <__s2b+0x30>
   bb008:	4630      	mov	r0, r6
   bb00a:	f7ff ff47 	bl	bae9c <_Balloc>
   bb00e:	b940      	cbnz	r0, bb022 <__s2b+0x36>
   bb010:	4602      	mov	r2, r0
   bb012:	4b19      	ldr	r3, [pc, #100]	; (bb078 <__s2b+0x8c>)
   bb014:	4819      	ldr	r0, [pc, #100]	; (bb07c <__s2b+0x90>)
   bb016:	21ce      	movs	r1, #206	; 0xce
   bb018:	f7fa fd82 	bl	b5b20 <__assert_func>
   bb01c:	0052      	lsls	r2, r2, #1
   bb01e:	3101      	adds	r1, #1
   bb020:	e7f0      	b.n	bb004 <__s2b+0x18>
   bb022:	9b08      	ldr	r3, [sp, #32]
   bb024:	6143      	str	r3, [r0, #20]
   bb026:	2d09      	cmp	r5, #9
   bb028:	f04f 0301 	mov.w	r3, #1
   bb02c:	6103      	str	r3, [r0, #16]
   bb02e:	dd16      	ble.n	bb05e <__s2b+0x72>
   bb030:	f104 0909 	add.w	r9, r4, #9
   bb034:	46c8      	mov	r8, r9
   bb036:	442c      	add	r4, r5
   bb038:	f818 3b01 	ldrb.w	r3, [r8], #1
   bb03c:	4601      	mov	r1, r0
   bb03e:	3b30      	subs	r3, #48	; 0x30
   bb040:	220a      	movs	r2, #10
   bb042:	4630      	mov	r0, r6
   bb044:	f7ff ff8c 	bl	baf60 <__multadd>
   bb048:	45a0      	cmp	r8, r4
   bb04a:	d1f5      	bne.n	bb038 <__s2b+0x4c>
   bb04c:	f1a5 0408 	sub.w	r4, r5, #8
   bb050:	444c      	add	r4, r9
   bb052:	1b2d      	subs	r5, r5, r4
   bb054:	1963      	adds	r3, r4, r5
   bb056:	42bb      	cmp	r3, r7
   bb058:	db04      	blt.n	bb064 <__s2b+0x78>
   bb05a:	e8bd 83f8 	ldmia.w	sp!, {r3, r4, r5, r6, r7, r8, r9, pc}
   bb05e:	340a      	adds	r4, #10
   bb060:	2509      	movs	r5, #9
   bb062:	e7f6      	b.n	bb052 <__s2b+0x66>
   bb064:	f814 3b01 	ldrb.w	r3, [r4], #1
   bb068:	4601      	mov	r1, r0
   bb06a:	3b30      	subs	r3, #48	; 0x30
   bb06c:	220a      	movs	r2, #10
   bb06e:	4630      	mov	r0, r6
   bb070:	f7ff ff76 	bl	baf60 <__multadd>
   bb074:	e7ee      	b.n	bb054 <__s2b+0x68>
   bb076:	bf00      	nop
   bb078:	000bc560 	.word	0x000bc560
   bb07c:	000bc60c 	.word	0x000bc60c

000bb080 <__hi0bits>:
   bb080:	0c03      	lsrs	r3, r0, #16
   bb082:	041b      	lsls	r3, r3, #16
   bb084:	b9d3      	cbnz	r3, bb0bc <__hi0bits+0x3c>
   bb086:	0400      	lsls	r0, r0, #16
   bb088:	2310      	movs	r3, #16
   bb08a:	f010 4f7f 	tst.w	r0, #4278190080	; 0xff000000
   bb08e:	bf04      	itt	eq
   bb090:	0200      	lsleq	r0, r0, #8
   bb092:	3308      	addeq	r3, #8
   bb094:	f010 4f70 	tst.w	r0, #4026531840	; 0xf0000000
   bb098:	bf04      	itt	eq
   bb09a:	0100      	lsleq	r0, r0, #4
   bb09c:	3304      	addeq	r3, #4
   bb09e:	f010 4f40 	tst.w	r0, #3221225472	; 0xc0000000
   bb0a2:	bf04      	itt	eq
   bb0a4:	0080      	lsleq	r0, r0, #2
   bb0a6:	3302      	addeq	r3, #2
   bb0a8:	2800      	cmp	r0, #0
   bb0aa:	db05      	blt.n	bb0b8 <__hi0bits+0x38>
   bb0ac:	f010 4f80 	tst.w	r0, #1073741824	; 0x40000000
   bb0b0:	f103 0301 	add.w	r3, r3, #1
   bb0b4:	bf08      	it	eq
   bb0b6:	2320      	moveq	r3, #32
   bb0b8:	4618      	mov	r0, r3
   bb0ba:	4770      	bx	lr
   bb0bc:	2300      	movs	r3, #0
   bb0be:	e7e4      	b.n	bb08a <__hi0bits+0xa>

000bb0c0 <__lo0bits>:
   bb0c0:	6803      	ldr	r3, [r0, #0]
   bb0c2:	f013 0207 	ands.w	r2, r3, #7
   bb0c6:	4601      	mov	r1, r0
   bb0c8:	d00b      	beq.n	bb0e2 <__lo0bits+0x22>
   bb0ca:	07da      	lsls	r2, r3, #31
   bb0cc:	d423      	bmi.n	bb116 <__lo0bits+0x56>
   bb0ce:	0798      	lsls	r0, r3, #30
   bb0d0:	bf49      	itett	mi
   bb0d2:	085b      	lsrmi	r3, r3, #1
   bb0d4:	089b      	lsrpl	r3, r3, #2
   bb0d6:	2001      	movmi	r0, #1
   bb0d8:	600b      	strmi	r3, [r1, #0]
   bb0da:	bf5c      	itt	pl
   bb0dc:	600b      	strpl	r3, [r1, #0]
   bb0de:	2002      	movpl	r0, #2
   bb0e0:	4770      	bx	lr
   bb0e2:	b298      	uxth	r0, r3
   bb0e4:	b9a8      	cbnz	r0, bb112 <__lo0bits+0x52>
   bb0e6:	0c1b      	lsrs	r3, r3, #16
   bb0e8:	2010      	movs	r0, #16
   bb0ea:	b2da      	uxtb	r2, r3
   bb0ec:	b90a      	cbnz	r2, bb0f2 <__lo0bits+0x32>
   bb0ee:	3008      	adds	r0, #8
   bb0f0:	0a1b      	lsrs	r3, r3, #8
   bb0f2:	071a      	lsls	r2, r3, #28
   bb0f4:	bf04      	itt	eq
   bb0f6:	091b      	lsreq	r3, r3, #4
   bb0f8:	3004      	addeq	r0, #4
   bb0fa:	079a      	lsls	r2, r3, #30
   bb0fc:	bf04      	itt	eq
   bb0fe:	089b      	lsreq	r3, r3, #2
   bb100:	3002      	addeq	r0, #2
   bb102:	07da      	lsls	r2, r3, #31
   bb104:	d403      	bmi.n	bb10e <__lo0bits+0x4e>
   bb106:	085b      	lsrs	r3, r3, #1
   bb108:	f100 0001 	add.w	r0, r0, #1
   bb10c:	d005      	beq.n	bb11a <__lo0bits+0x5a>
   bb10e:	600b      	str	r3, [r1, #0]
   bb110:	4770      	bx	lr
   bb112:	4610      	mov	r0, r2
   bb114:	e7e9      	b.n	bb0ea <__lo0bits+0x2a>
   bb116:	2000      	movs	r0, #0
   bb118:	4770      	bx	lr
   bb11a:	2020      	movs	r0, #32
   bb11c:	4770      	bx	lr
	...

000bb120 <__i2b>:
   bb120:	b510      	push	{r4, lr}
   bb122:	460c      	mov	r4, r1
   bb124:	2101      	movs	r1, #1
   bb126:	f7ff feb9 	bl	bae9c <_Balloc>
   bb12a:	4602      	mov	r2, r0
   bb12c:	b928      	cbnz	r0, bb13a <__i2b+0x1a>
   bb12e:	4b05      	ldr	r3, [pc, #20]	; (bb144 <__i2b+0x24>)
   bb130:	4805      	ldr	r0, [pc, #20]	; (bb148 <__i2b+0x28>)
   bb132:	f44f 71a0 	mov.w	r1, #320	; 0x140
   bb136:	f7fa fcf3 	bl	b5b20 <__assert_func>
   bb13a:	2301      	movs	r3, #1
   bb13c:	6144      	str	r4, [r0, #20]
   bb13e:	6103      	str	r3, [r0, #16]
   bb140:	bd10      	pop	{r4, pc}
   bb142:	bf00      	nop
   bb144:	000bc560 	.word	0x000bc560
   bb148:	000bc60c 	.word	0x000bc60c

000bb14c <__multiply>:
   bb14c:	e92d 4ff0 	stmdb	sp!, {r4, r5, r6, r7, r8, r9, sl, fp, lr}
   bb150:	4691      	mov	r9, r2
   bb152:	690a      	ldr	r2, [r1, #16]
   bb154:	f8d9 3010 	ldr.w	r3, [r9, #16]
   bb158:	429a      	cmp	r2, r3
   bb15a:	bfb8      	it	lt
   bb15c:	460b      	movlt	r3, r1
   bb15e:	460c      	mov	r4, r1
   bb160:	bfbc      	itt	lt
   bb162:	464c      	movlt	r4, r9
   bb164:	4699      	movlt	r9, r3
   bb166:	6927      	ldr	r7, [r4, #16]
   bb168:	f8d9 a010 	ldr.w	sl, [r9, #16]
   bb16c:	68a3      	ldr	r3, [r4, #8]
   bb16e:	6861      	ldr	r1, [r4, #4]
   bb170:	eb07 060a 	add.w	r6, r7, sl
   bb174:	42b3      	cmp	r3, r6
   bb176:	b085      	sub	sp, #20
   bb178:	bfb8      	it	lt
   bb17a:	3101      	addlt	r1, #1
   bb17c:	f7ff fe8e 	bl	bae9c <_Balloc>
   bb180:	b930      	cbnz	r0, bb190 <__multiply+0x44>
   bb182:	4602      	mov	r2, r0
   bb184:	4b44      	ldr	r3, [pc, #272]	; (bb298 <__multiply+0x14c>)
   bb186:	4845      	ldr	r0, [pc, #276]	; (bb29c <__multiply+0x150>)
   bb188:	f240 115d 	movw	r1, #349	; 0x15d
   bb18c:	f7fa fcc8 	bl	b5b20 <__assert_func>
   bb190:	f100 0514 	add.w	r5, r0, #20
   bb194:	eb05 0886 	add.w	r8, r5, r6, lsl #2
   bb198:	462b      	mov	r3, r5
   bb19a:	2200      	movs	r2, #0
   bb19c:	4543      	cmp	r3, r8
   bb19e:	d321      	bcc.n	bb1e4 <__multiply+0x98>
   bb1a0:	f104 0314 	add.w	r3, r4, #20
   bb1a4:	eb03 0787 	add.w	r7, r3, r7, lsl #2
   bb1a8:	f109 0314 	add.w	r3, r9, #20
   bb1ac:	eb03 028a 	add.w	r2, r3, sl, lsl #2
   bb1b0:	9202      	str	r2, [sp, #8]
   bb1b2:	1b3a      	subs	r2, r7, r4
   bb1b4:	3a15      	subs	r2, #21
   bb1b6:	f022 0203 	bic.w	r2, r2, #3
   bb1ba:	3204      	adds	r2, #4
   bb1bc:	f104 0115 	add.w	r1, r4, #21
   bb1c0:	428f      	cmp	r7, r1
   bb1c2:	bf38      	it	cc
   bb1c4:	2204      	movcc	r2, #4
   bb1c6:	9201      	str	r2, [sp, #4]
   bb1c8:	9a02      	ldr	r2, [sp, #8]
   bb1ca:	9303      	str	r3, [sp, #12]
   bb1cc:	429a      	cmp	r2, r3
   bb1ce:	d80c      	bhi.n	bb1ea <__multiply+0x9e>
   bb1d0:	2e00      	cmp	r6, #0
   bb1d2:	dd03      	ble.n	bb1dc <__multiply+0x90>
   bb1d4:	f858 3d04 	ldr.w	r3, [r8, #-4]!
   bb1d8:	2b00      	cmp	r3, #0
   bb1da:	d05a      	beq.n	bb292 <__multiply+0x146>
   bb1dc:	6106      	str	r6, [r0, #16]
   bb1de:	b005      	add	sp, #20
   bb1e0:	e8bd 8ff0 	ldmia.w	sp!, {r4, r5, r6, r7, r8, r9, sl, fp, pc}
   bb1e4:	f843 2b04 	str.w	r2, [r3], #4
   bb1e8:	e7d8      	b.n	bb19c <__multiply+0x50>
   bb1ea:	f8b3 a000 	ldrh.w	sl, [r3]
   bb1ee:	f1ba 0f00 	cmp.w	sl, #0
   bb1f2:	d024      	beq.n	bb23e <__multiply+0xf2>
   bb1f4:	f104 0e14 	add.w	lr, r4, #20
   bb1f8:	46a9      	mov	r9, r5
   bb1fa:	f04f 0c00 	mov.w	ip, #0
   bb1fe:	f85e 2b04 	ldr.w	r2, [lr], #4
   bb202:	f8d9 1000 	ldr.w	r1, [r9]
   bb206:	fa1f fb82 	uxth.w	fp, r2
   bb20a:	b289      	uxth	r1, r1
   bb20c:	fb0a 110b 	mla	r1, sl, fp, r1
   bb210:	ea4f 4b12 	mov.w	fp, r2, lsr #16
   bb214:	f8d9 2000 	ldr.w	r2, [r9]
   bb218:	4461      	add	r1, ip
   bb21a:	ea4f 4c12 	mov.w	ip, r2, lsr #16
   bb21e:	fb0a c20b 	mla	r2, sl, fp, ip
   bb222:	eb02 4211 	add.w	r2, r2, r1, lsr #16
   bb226:	b289      	uxth	r1, r1
   bb228:	ea41 4102 	orr.w	r1, r1, r2, lsl #16
   bb22c:	4577      	cmp	r7, lr
   bb22e:	f849 1b04 	str.w	r1, [r9], #4
   bb232:	ea4f 4c12 	mov.w	ip, r2, lsr #16
   bb236:	d8e2      	bhi.n	bb1fe <__multiply+0xb2>
   bb238:	9a01      	ldr	r2, [sp, #4]
   bb23a:	f845 c002 	str.w	ip, [r5, r2]
   bb23e:	9a03      	ldr	r2, [sp, #12]
   bb240:	f8b2 9002 	ldrh.w	r9, [r2, #2]
   bb244:	3304      	adds	r3, #4
   bb246:	f1b9 0f00 	cmp.w	r9, #0
   bb24a:	d020      	beq.n	bb28e <__multiply+0x142>
   bb24c:	6829      	ldr	r1, [r5, #0]
   bb24e:	f104 0c14 	add.w	ip, r4, #20
   bb252:	46ae      	mov	lr, r5
   bb254:	f04f 0a00 	mov.w	sl, #0
   bb258:	f8bc b000 	ldrh.w	fp, [ip]
   bb25c:	f8be 2002 	ldrh.w	r2, [lr, #2]
   bb260:	fb09 220b 	mla	r2, r9, fp, r2
   bb264:	4492      	add	sl, r2
   bb266:	b289      	uxth	r1, r1
   bb268:	ea41 410a 	orr.w	r1, r1, sl, lsl #16
   bb26c:	f84e 1b04 	str.w	r1, [lr], #4
   bb270:	f85c 2b04 	ldr.w	r2, [ip], #4
   bb274:	f8be 1000 	ldrh.w	r1, [lr]
   bb278:	0c12      	lsrs	r2, r2, #16
   bb27a:	fb09 1102 	mla	r1, r9, r2, r1
   bb27e:	eb01 411a 	add.w	r1, r1, sl, lsr #16
   bb282:	4567      	cmp	r7, ip
   bb284:	ea4f 4a11 	mov.w	sl, r1, lsr #16
   bb288:	d8e6      	bhi.n	bb258 <__multiply+0x10c>
   bb28a:	9a01      	ldr	r2, [sp, #4]
   bb28c:	50a9      	str	r1, [r5, r2]
   bb28e:	3504      	adds	r5, #4
   bb290:	e79a      	b.n	bb1c8 <__multiply+0x7c>
   bb292:	3e01      	subs	r6, #1
   bb294:	e79c      	b.n	bb1d0 <__multiply+0x84>
   bb296:	bf00      	nop
   bb298:	000bc560 	.word	0x000bc560
   bb29c:	000bc60c 	.word	0x000bc60c

000bb2a0 <__pow5mult>:
   bb2a0:	e92d 43f8 	stmdb	sp!, {r3, r4, r5, r6, r7, r8, r9, lr}
   bb2a4:	4615      	mov	r5, r2
   bb2a6:	f012 0203 	ands.w	r2, r2, #3
   bb2aa:	4606      	mov	r6, r0
   bb2ac:	460f      	mov	r7, r1
   bb2ae:	d007      	beq.n	bb2c0 <__pow5mult+0x20>
   bb2b0:	4c25      	ldr	r4, [pc, #148]	; (bb348 <__pow5mult+0xa8>)
   bb2b2:	3a01      	subs	r2, #1
   bb2b4:	2300      	movs	r3, #0
   bb2b6:	f854 2022 	ldr.w	r2, [r4, r2, lsl #2]
   bb2ba:	f7ff fe51 	bl	baf60 <__multadd>
   bb2be:	4607      	mov	r7, r0
   bb2c0:	10ad      	asrs	r5, r5, #2
   bb2c2:	d03d      	beq.n	bb340 <__pow5mult+0xa0>
   bb2c4:	6a74      	ldr	r4, [r6, #36]	; 0x24
   bb2c6:	b97c      	cbnz	r4, bb2e8 <__pow5mult+0x48>
   bb2c8:	2010      	movs	r0, #16
   bb2ca:	f7fa fbe9 	bl	b5aa0 <malloc>
   bb2ce:	4602      	mov	r2, r0
   bb2d0:	6270      	str	r0, [r6, #36]	; 0x24
   bb2d2:	b928      	cbnz	r0, bb2e0 <__pow5mult+0x40>
   bb2d4:	4b1d      	ldr	r3, [pc, #116]	; (bb34c <__pow5mult+0xac>)
   bb2d6:	481e      	ldr	r0, [pc, #120]	; (bb350 <__pow5mult+0xb0>)
   bb2d8:	f44f 71d7 	mov.w	r1, #430	; 0x1ae
   bb2dc:	f7fa fc20 	bl	b5b20 <__assert_func>
   bb2e0:	e9c0 4401 	strd	r4, r4, [r0, #4]
   bb2e4:	6004      	str	r4, [r0, #0]
   bb2e6:	60c4      	str	r4, [r0, #12]
   bb2e8:	f8d6 8024 	ldr.w	r8, [r6, #36]	; 0x24
   bb2ec:	f8d8 4008 	ldr.w	r4, [r8, #8]
   bb2f0:	b94c      	cbnz	r4, bb306 <__pow5mult+0x66>
   bb2f2:	f240 2171 	movw	r1, #625	; 0x271
   bb2f6:	4630      	mov	r0, r6
   bb2f8:	f7ff ff12 	bl	bb120 <__i2b>
   bb2fc:	2300      	movs	r3, #0
   bb2fe:	f8c8 0008 	str.w	r0, [r8, #8]
   bb302:	4604      	mov	r4, r0
   bb304:	6003      	str	r3, [r0, #0]
   bb306:	f04f 0900 	mov.w	r9, #0
   bb30a:	07eb      	lsls	r3, r5, #31
   bb30c:	d50a      	bpl.n	bb324 <__pow5mult+0x84>
   bb30e:	4639      	mov	r1, r7
   bb310:	4622      	mov	r2, r4
   bb312:	4630      	mov	r0, r6
   bb314:	f7ff ff1a 	bl	bb14c <__multiply>
   bb318:	4639      	mov	r1, r7
   bb31a:	4680      	mov	r8, r0
   bb31c:	4630      	mov	r0, r6
   bb31e:	f7ff fdfd 	bl	baf1c <_Bfree>
   bb322:	4647      	mov	r7, r8
   bb324:	106d      	asrs	r5, r5, #1
   bb326:	d00b      	beq.n	bb340 <__pow5mult+0xa0>
   bb328:	6820      	ldr	r0, [r4, #0]
   bb32a:	b938      	cbnz	r0, bb33c <__pow5mult+0x9c>
   bb32c:	4622      	mov	r2, r4
   bb32e:	4621      	mov	r1, r4
   bb330:	4630      	mov	r0, r6
   bb332:	f7ff ff0b 	bl	bb14c <__multiply>
   bb336:	6020      	str	r0, [r4, #0]
   bb338:	f8c0 9000 	str.w	r9, [r0]
   bb33c:	4604      	mov	r4, r0
   bb33e:	e7e4      	b.n	bb30a <__pow5mult+0x6a>
   bb340:	4638      	mov	r0, r7
   bb342:	e8bd 83f8 	ldmia.w	sp!, {r3, r4, r5, r6, r7, r8, r9, pc}
   bb346:	bf00      	nop
   bb348:	000bc780 	.word	0x000bc780
   bb34c:	000bc2e9 	.word	0x000bc2e9
   bb350:	000bc60c 	.word	0x000bc60c

000bb354 <__lshift>:
   bb354:	e92d 47f0 	stmdb	sp!, {r4, r5, r6, r7, r8, r9, sl, lr}
   bb358:	460c      	mov	r4, r1
   bb35a:	6849      	ldr	r1, [r1, #4]
   bb35c:	6923      	ldr	r3, [r4, #16]
   bb35e:	eb03 1862 	add.w	r8, r3, r2, asr #5
   bb362:	68a3      	ldr	r3, [r4, #8]
   bb364:	4607      	mov	r7, r0
   bb366:	4691      	mov	r9, r2
   bb368:	ea4f 1a62 	mov.w	sl, r2, asr #5
   bb36c:	f108 0601 	add.w	r6, r8, #1
   bb370:	42b3      	cmp	r3, r6
   bb372:	db0b      	blt.n	bb38c <__lshift+0x38>
   bb374:	4638      	mov	r0, r7
   bb376:	f7ff fd91 	bl	bae9c <_Balloc>
   bb37a:	4605      	mov	r5, r0
   bb37c:	b948      	cbnz	r0, bb392 <__lshift+0x3e>
   bb37e:	4602      	mov	r2, r0
   bb380:	4b2a      	ldr	r3, [pc, #168]	; (bb42c <__lshift+0xd8>)
   bb382:	482b      	ldr	r0, [pc, #172]	; (bb430 <__lshift+0xdc>)
   bb384:	f240 11d9 	movw	r1, #473	; 0x1d9
   bb388:	f7fa fbca 	bl	b5b20 <__assert_func>
   bb38c:	3101      	adds	r1, #1
   bb38e:	005b      	lsls	r3, r3, #1
   bb390:	e7ee      	b.n	bb370 <__lshift+0x1c>
   bb392:	2300      	movs	r3, #0
   bb394:	f100 0114 	add.w	r1, r0, #20
   bb398:	f100 0210 	add.w	r2, r0, #16
   bb39c:	4618      	mov	r0, r3
   bb39e:	4553      	cmp	r3, sl
   bb3a0:	db37      	blt.n	bb412 <__lshift+0xbe>
   bb3a2:	6920      	ldr	r0, [r4, #16]
   bb3a4:	ea2a 7aea 	bic.w	sl, sl, sl, asr #31
   bb3a8:	f104 0314 	add.w	r3, r4, #20
   bb3ac:	f019 091f 	ands.w	r9, r9, #31
   bb3b0:	eb01 018a 	add.w	r1, r1, sl, lsl #2
   bb3b4:	eb03 0080 	add.w	r0, r3, r0, lsl #2
   bb3b8:	d02f      	beq.n	bb41a <__lshift+0xc6>
   bb3ba:	f1c9 0e20 	rsb	lr, r9, #32
   bb3be:	468a      	mov	sl, r1
   bb3c0:	f04f 0c00 	mov.w	ip, #0
   bb3c4:	681a      	ldr	r2, [r3, #0]
   bb3c6:	fa02 f209 	lsl.w	r2, r2, r9
   bb3ca:	ea42 020c 	orr.w	r2, r2, ip
   bb3ce:	f84a 2b04 	str.w	r2, [sl], #4
   bb3d2:	f853 2b04 	ldr.w	r2, [r3], #4
   bb3d6:	4298      	cmp	r0, r3
   bb3d8:	fa22 fc0e 	lsr.w	ip, r2, lr
   bb3dc:	d8f2      	bhi.n	bb3c4 <__lshift+0x70>
   bb3de:	1b03      	subs	r3, r0, r4
   bb3e0:	3b15      	subs	r3, #21
   bb3e2:	f023 0303 	bic.w	r3, r3, #3
   bb3e6:	3304      	adds	r3, #4
   bb3e8:	f104 0215 	add.w	r2, r4, #21
   bb3ec:	4290      	cmp	r0, r2
   bb3ee:	bf38      	it	cc
   bb3f0:	2304      	movcc	r3, #4
   bb3f2:	f841 c003 	str.w	ip, [r1, r3]
   bb3f6:	f1bc 0f00 	cmp.w	ip, #0
   bb3fa:	d001      	beq.n	bb400 <__lshift+0xac>
   bb3fc:	f108 0602 	add.w	r6, r8, #2
   bb400:	3e01      	subs	r6, #1
   bb402:	4638      	mov	r0, r7
   bb404:	612e      	str	r6, [r5, #16]
   bb406:	4621      	mov	r1, r4
   bb408:	f7ff fd88 	bl	baf1c <_Bfree>
   bb40c:	4628      	mov	r0, r5
   bb40e:	e8bd 87f0 	ldmia.w	sp!, {r4, r5, r6, r7, r8, r9, sl, pc}
   bb412:	f842 0f04 	str.w	r0, [r2, #4]!
   bb416:	3301      	adds	r3, #1
   bb418:	e7c1      	b.n	bb39e <__lshift+0x4a>
   bb41a:	3904      	subs	r1, #4
   bb41c:	f853 2b04 	ldr.w	r2, [r3], #4
   bb420:	f841 2f04 	str.w	r2, [r1, #4]!
   bb424:	4298      	cmp	r0, r3
   bb426:	d8f9      	bhi.n	bb41c <__lshift+0xc8>
   bb428:	e7ea      	b.n	bb400 <__lshift+0xac>
   bb42a:	bf00      	nop
   bb42c:	000bc560 	.word	0x000bc560
   bb430:	000bc60c 	.word	0x000bc60c

000bb434 <__mcmp>:
   bb434:	b530      	push	{r4, r5, lr}
   bb436:	6902      	ldr	r2, [r0, #16]
   bb438:	690c      	ldr	r4, [r1, #16]
   bb43a:	1b12      	subs	r2, r2, r4
   bb43c:	d10e      	bne.n	bb45c <__mcmp+0x28>
   bb43e:	f100 0314 	add.w	r3, r0, #20
   bb442:	3114      	adds	r1, #20
   bb444:	eb03 0084 	add.w	r0, r3, r4, lsl #2
   bb448:	eb01 0184 	add.w	r1, r1, r4, lsl #2
   bb44c:	f850 5d04 	ldr.w	r5, [r0, #-4]!
   bb450:	f851 4d04 	ldr.w	r4, [r1, #-4]!
   bb454:	42a5      	cmp	r5, r4
   bb456:	d003      	beq.n	bb460 <__mcmp+0x2c>
   bb458:	d305      	bcc.n	bb466 <__mcmp+0x32>
   bb45a:	2201      	movs	r2, #1
   bb45c:	4610      	mov	r0, r2
   bb45e:	bd30      	pop	{r4, r5, pc}
   bb460:	4283      	cmp	r3, r0
   bb462:	d3f3      	bcc.n	bb44c <__mcmp+0x18>
   bb464:	e7fa      	b.n	bb45c <__mcmp+0x28>
   bb466:	f04f 32ff 	mov.w	r2, #4294967295
   bb46a:	e7f7      	b.n	bb45c <__mcmp+0x28>

000bb46c <__mdiff>:
   bb46c:	e92d 4ff8 	stmdb	sp!, {r3, r4, r5, r6, r7, r8, r9, sl, fp, lr}
   bb470:	460c      	mov	r4, r1
   bb472:	4606      	mov	r6, r0
   bb474:	4611      	mov	r1, r2
   bb476:	4620      	mov	r0, r4
   bb478:	4690      	mov	r8, r2
   bb47a:	f7ff ffdb 	bl	bb434 <__mcmp>
   bb47e:	1e05      	subs	r5, r0, #0
   bb480:	d110      	bne.n	bb4a4 <__mdiff+0x38>
   bb482:	4629      	mov	r1, r5
   bb484:	4630      	mov	r0, r6
   bb486:	f7ff fd09 	bl	bae9c <_Balloc>
   bb48a:	b930      	cbnz	r0, bb49a <__mdiff+0x2e>
   bb48c:	4b3a      	ldr	r3, [pc, #232]	; (bb578 <__mdiff+0x10c>)
   bb48e:	4602      	mov	r2, r0
   bb490:	f240 2132 	movw	r1, #562	; 0x232
   bb494:	4839      	ldr	r0, [pc, #228]	; (bb57c <__mdiff+0x110>)
   bb496:	f7fa fb43 	bl	b5b20 <__assert_func>
   bb49a:	2301      	movs	r3, #1
   bb49c:	e9c0 3504 	strd	r3, r5, [r0, #16]
   bb4a0:	e8bd 8ff8 	ldmia.w	sp!, {r3, r4, r5, r6, r7, r8, r9, sl, fp, pc}
   bb4a4:	bfa4      	itt	ge
   bb4a6:	4643      	movge	r3, r8
   bb4a8:	46a0      	movge	r8, r4
   bb4aa:	4630      	mov	r0, r6
   bb4ac:	f8d8 1004 	ldr.w	r1, [r8, #4]
   bb4b0:	bfa6      	itte	ge
   bb4b2:	461c      	movge	r4, r3
   bb4b4:	2500      	movge	r5, #0
   bb4b6:	2501      	movlt	r5, #1
   bb4b8:	f7ff fcf0 	bl	bae9c <_Balloc>
   bb4bc:	b920      	cbnz	r0, bb4c8 <__mdiff+0x5c>
   bb4be:	4b2e      	ldr	r3, [pc, #184]	; (bb578 <__mdiff+0x10c>)
   bb4c0:	4602      	mov	r2, r0
   bb4c2:	f44f 7110 	mov.w	r1, #576	; 0x240
   bb4c6:	e7e5      	b.n	bb494 <__mdiff+0x28>
   bb4c8:	f8d8 7010 	ldr.w	r7, [r8, #16]
   bb4cc:	6926      	ldr	r6, [r4, #16]
   bb4ce:	60c5      	str	r5, [r0, #12]
   bb4d0:	f104 0914 	add.w	r9, r4, #20
   bb4d4:	f108 0514 	add.w	r5, r8, #20
   bb4d8:	f100 0e14 	add.w	lr, r0, #20
   bb4dc:	eb05 0c87 	add.w	ip, r5, r7, lsl #2
   bb4e0:	eb09 0686 	add.w	r6, r9, r6, lsl #2
   bb4e4:	f108 0210 	add.w	r2, r8, #16
   bb4e8:	46f2      	mov	sl, lr
   bb4ea:	2100      	movs	r1, #0
   bb4ec:	f859 3b04 	ldr.w	r3, [r9], #4
   bb4f0:	f852 bf04 	ldr.w	fp, [r2, #4]!
   bb4f4:	fa1f f883 	uxth.w	r8, r3
   bb4f8:	fa11 f18b 	uxtah	r1, r1, fp
   bb4fc:	0c1b      	lsrs	r3, r3, #16
   bb4fe:	eba1 0808 	sub.w	r8, r1, r8
   bb502:	ebc3 431b 	rsb	r3, r3, fp, lsr #16
   bb506:	eb03 4328 	add.w	r3, r3, r8, asr #16
   bb50a:	fa1f f888 	uxth.w	r8, r8
   bb50e:	1419      	asrs	r1, r3, #16
   bb510:	454e      	cmp	r6, r9
   bb512:	ea48 4303 	orr.w	r3, r8, r3, lsl #16
   bb516:	f84a 3b04 	str.w	r3, [sl], #4
   bb51a:	d8e7      	bhi.n	bb4ec <__mdiff+0x80>
   bb51c:	1b33      	subs	r3, r6, r4
   bb51e:	3b15      	subs	r3, #21
   bb520:	f023 0303 	bic.w	r3, r3, #3
   bb524:	3304      	adds	r3, #4
   bb526:	3415      	adds	r4, #21
   bb528:	42a6      	cmp	r6, r4
   bb52a:	bf38      	it	cc
   bb52c:	2304      	movcc	r3, #4
   bb52e:	441d      	add	r5, r3
   bb530:	4473      	add	r3, lr
   bb532:	469e      	mov	lr, r3
   bb534:	462e      	mov	r6, r5
   bb536:	4566      	cmp	r6, ip
   bb538:	d30e      	bcc.n	bb558 <__mdiff+0xec>
   bb53a:	f10c 0203 	add.w	r2, ip, #3
   bb53e:	1b52      	subs	r2, r2, r5
   bb540:	f022 0203 	bic.w	r2, r2, #3
   bb544:	3d03      	subs	r5, #3
   bb546:	45ac      	cmp	ip, r5
   bb548:	bf38      	it	cc
   bb54a:	2200      	movcc	r2, #0
   bb54c:	441a      	add	r2, r3
   bb54e:	f852 3d04 	ldr.w	r3, [r2, #-4]!
   bb552:	b17b      	cbz	r3, bb574 <__mdiff+0x108>
   bb554:	6107      	str	r7, [r0, #16]
   bb556:	e7a3      	b.n	bb4a0 <__mdiff+0x34>
   bb558:	f856 8b04 	ldr.w	r8, [r6], #4
   bb55c:	fa11 f288 	uxtah	r2, r1, r8
   bb560:	1414      	asrs	r4, r2, #16
   bb562:	eb04 4418 	add.w	r4, r4, r8, lsr #16
   bb566:	b292      	uxth	r2, r2
   bb568:	ea42 4204 	orr.w	r2, r2, r4, lsl #16
   bb56c:	f84e 2b04 	str.w	r2, [lr], #4
   bb570:	1421      	asrs	r1, r4, #16
   bb572:	e7e0      	b.n	bb536 <__mdiff+0xca>
   bb574:	3f01      	subs	r7, #1
   bb576:	e7ea      	b.n	bb54e <__mdiff+0xe2>
   bb578:	000bc560 	.word	0x000bc560
   bb57c:	000bc60c 	.word	0x000bc60c

000bb580 <__ulp>:
   bb580:	b082      	sub	sp, #8
   bb582:	ed8d 0b00 	vstr	d0, [sp]
   bb586:	9b01      	ldr	r3, [sp, #4]
   bb588:	4912      	ldr	r1, [pc, #72]	; (bb5d4 <__ulp+0x54>)
   bb58a:	4019      	ands	r1, r3
   bb58c:	f1a1 7150 	sub.w	r1, r1, #54525952	; 0x3400000
   bb590:	2900      	cmp	r1, #0
   bb592:	dd05      	ble.n	bb5a0 <__ulp+0x20>
   bb594:	2200      	movs	r2, #0
   bb596:	460b      	mov	r3, r1
   bb598:	ec43 2b10 	vmov	d0, r2, r3
   bb59c:	b002      	add	sp, #8
   bb59e:	4770      	bx	lr
   bb5a0:	4249      	negs	r1, r1
   bb5a2:	f1b1 7fa0 	cmp.w	r1, #20971520	; 0x1400000
   bb5a6:	ea4f 5021 	mov.w	r0, r1, asr #20
   bb5aa:	f04f 0200 	mov.w	r2, #0
   bb5ae:	f04f 0300 	mov.w	r3, #0
   bb5b2:	da04      	bge.n	bb5be <__ulp+0x3e>
   bb5b4:	f44f 2100 	mov.w	r1, #524288	; 0x80000
   bb5b8:	fa41 f300 	asr.w	r3, r1, r0
   bb5bc:	e7ec      	b.n	bb598 <__ulp+0x18>
   bb5be:	f1a0 0114 	sub.w	r1, r0, #20
   bb5c2:	291e      	cmp	r1, #30
   bb5c4:	bfda      	itte	le
   bb5c6:	f04f 4000 	movle.w	r0, #2147483648	; 0x80000000
   bb5ca:	fa20 f101 	lsrle.w	r1, r0, r1
   bb5ce:	2101      	movgt	r1, #1
   bb5d0:	460a      	mov	r2, r1
   bb5d2:	e7e1      	b.n	bb598 <__ulp+0x18>
   bb5d4:	7ff00000 	.word	0x7ff00000

000bb5d8 <__b2d>:
   bb5d8:	b5f8      	push	{r3, r4, r5, r6, r7, lr}
   bb5da:	6905      	ldr	r5, [r0, #16]
   bb5dc:	f100 0714 	add.w	r7, r0, #20
   bb5e0:	eb07 0585 	add.w	r5, r7, r5, lsl #2
   bb5e4:	1f2e      	subs	r6, r5, #4
   bb5e6:	f855 4c04 	ldr.w	r4, [r5, #-4]
   bb5ea:	4620      	mov	r0, r4
   bb5ec:	f7ff fd48 	bl	bb080 <__hi0bits>
   bb5f0:	f1c0 0320 	rsb	r3, r0, #32
   bb5f4:	280a      	cmp	r0, #10
   bb5f6:	f8df c07c 	ldr.w	ip, [pc, #124]	; bb674 <__b2d+0x9c>
   bb5fa:	600b      	str	r3, [r1, #0]
   bb5fc:	dc14      	bgt.n	bb628 <__b2d+0x50>
   bb5fe:	f1c0 0e0b 	rsb	lr, r0, #11
   bb602:	fa24 f10e 	lsr.w	r1, r4, lr
   bb606:	42b7      	cmp	r7, r6
   bb608:	ea41 030c 	orr.w	r3, r1, ip
   bb60c:	bf34      	ite	cc
   bb60e:	f855 1c08 	ldrcc.w	r1, [r5, #-8]
   bb612:	2100      	movcs	r1, #0
   bb614:	3015      	adds	r0, #21
   bb616:	fa04 f000 	lsl.w	r0, r4, r0
   bb61a:	fa21 f10e 	lsr.w	r1, r1, lr
   bb61e:	ea40 0201 	orr.w	r2, r0, r1
   bb622:	ec43 2b10 	vmov	d0, r2, r3
   bb626:	bdf8      	pop	{r3, r4, r5, r6, r7, pc}
   bb628:	42b7      	cmp	r7, r6
   bb62a:	bf3a      	itte	cc
   bb62c:	f855 1c08 	ldrcc.w	r1, [r5, #-8]
   bb630:	f1a5 0608 	subcc.w	r6, r5, #8
   bb634:	2100      	movcs	r1, #0
   bb636:	380b      	subs	r0, #11
   bb638:	d017      	beq.n	bb66a <__b2d+0x92>
   bb63a:	f1c0 0c20 	rsb	ip, r0, #32
   bb63e:	fa04 f500 	lsl.w	r5, r4, r0
   bb642:	42be      	cmp	r6, r7
   bb644:	fa21 f40c 	lsr.w	r4, r1, ip
   bb648:	ea45 0504 	orr.w	r5, r5, r4
   bb64c:	bf8c      	ite	hi
   bb64e:	f856 4c04 	ldrhi.w	r4, [r6, #-4]
   bb652:	2400      	movls	r4, #0
   bb654:	f045 537f 	orr.w	r3, r5, #1069547520	; 0x3fc00000
   bb658:	fa01 f000 	lsl.w	r0, r1, r0
   bb65c:	fa24 f40c 	lsr.w	r4, r4, ip
   bb660:	f443 1340 	orr.w	r3, r3, #3145728	; 0x300000
   bb664:	ea40 0204 	orr.w	r2, r0, r4
   bb668:	e7db      	b.n	bb622 <__b2d+0x4a>
   bb66a:	ea44 030c 	orr.w	r3, r4, ip
   bb66e:	460a      	mov	r2, r1
   bb670:	e7d7      	b.n	bb622 <__b2d+0x4a>
   bb672:	bf00      	nop
   bb674:	3ff00000 	.word	0x3ff00000

000bb678 <__d2b>:
   bb678:	e92d 43f7 	stmdb	sp!, {r0, r1, r2, r4, r5, r6, r7, r8, r9, lr}
   bb67c:	4689      	mov	r9, r1
   bb67e:	2101      	movs	r1, #1
   bb680:	ec57 6b10 	vmov	r6, r7, d0
   bb684:	4690      	mov	r8, r2
   bb686:	f7ff fc09 	bl	bae9c <_Balloc>
   bb68a:	4604      	mov	r4, r0
   bb68c:	b930      	cbnz	r0, bb69c <__d2b+0x24>
   bb68e:	4602      	mov	r2, r0
   bb690:	4b25      	ldr	r3, [pc, #148]	; (bb728 <__d2b+0xb0>)
   bb692:	4826      	ldr	r0, [pc, #152]	; (bb72c <__d2b+0xb4>)
   bb694:	f240 310a 	movw	r1, #778	; 0x30a
   bb698:	f7fa fa42 	bl	b5b20 <__assert_func>
   bb69c:	f3c7 550a 	ubfx	r5, r7, #20, #11
   bb6a0:	f3c7 0313 	ubfx	r3, r7, #0, #20
   bb6a4:	bb35      	cbnz	r5, bb6f4 <__d2b+0x7c>
   bb6a6:	2e00      	cmp	r6, #0
   bb6a8:	9301      	str	r3, [sp, #4]
   bb6aa:	d028      	beq.n	bb6fe <__d2b+0x86>
   bb6ac:	4668      	mov	r0, sp
   bb6ae:	9600      	str	r6, [sp, #0]
   bb6b0:	f7ff fd06 	bl	bb0c0 <__lo0bits>
   bb6b4:	9900      	ldr	r1, [sp, #0]
   bb6b6:	b300      	cbz	r0, bb6fa <__d2b+0x82>
   bb6b8:	9a01      	ldr	r2, [sp, #4]
   bb6ba:	f1c0 0320 	rsb	r3, r0, #32
   bb6be:	fa02 f303 	lsl.w	r3, r2, r3
   bb6c2:	430b      	orrs	r3, r1
   bb6c4:	40c2      	lsrs	r2, r0
   bb6c6:	6163      	str	r3, [r4, #20]
   bb6c8:	9201      	str	r2, [sp, #4]
   bb6ca:	9b01      	ldr	r3, [sp, #4]
   bb6cc:	61a3      	str	r3, [r4, #24]
   bb6ce:	2b00      	cmp	r3, #0
   bb6d0:	bf14      	ite	ne
   bb6d2:	2202      	movne	r2, #2
   bb6d4:	2201      	moveq	r2, #1
   bb6d6:	6122      	str	r2, [r4, #16]
   bb6d8:	b1d5      	cbz	r5, bb710 <__d2b+0x98>
   bb6da:	f2a5 4533 	subw	r5, r5, #1075	; 0x433
   bb6de:	4405      	add	r5, r0
   bb6e0:	f8c9 5000 	str.w	r5, [r9]
   bb6e4:	f1c0 0035 	rsb	r0, r0, #53	; 0x35
   bb6e8:	f8c8 0000 	str.w	r0, [r8]
   bb6ec:	4620      	mov	r0, r4
   bb6ee:	b003      	add	sp, #12
   bb6f0:	e8bd 83f0 	ldmia.w	sp!, {r4, r5, r6, r7, r8, r9, pc}
   bb6f4:	f443 1380 	orr.w	r3, r3, #1048576	; 0x100000
   bb6f8:	e7d5      	b.n	bb6a6 <__d2b+0x2e>
   bb6fa:	6161      	str	r1, [r4, #20]
   bb6fc:	e7e5      	b.n	bb6ca <__d2b+0x52>
   bb6fe:	a801      	add	r0, sp, #4
   bb700:	f7ff fcde 	bl	bb0c0 <__lo0bits>
   bb704:	9b01      	ldr	r3, [sp, #4]
   bb706:	6163      	str	r3, [r4, #20]
   bb708:	2201      	movs	r2, #1
   bb70a:	6122      	str	r2, [r4, #16]
   bb70c:	3020      	adds	r0, #32
   bb70e:	e7e3      	b.n	bb6d8 <__d2b+0x60>
   bb710:	eb04 0382 	add.w	r3, r4, r2, lsl #2
   bb714:	f2a0 4032 	subw	r0, r0, #1074	; 0x432
   bb718:	f8c9 0000 	str.w	r0, [r9]
   bb71c:	6918      	ldr	r0, [r3, #16]
   bb71e:	f7ff fcaf 	bl	bb080 <__hi0bits>
   bb722:	ebc0 1042 	rsb	r0, r0, r2, lsl #5
   bb726:	e7df      	b.n	bb6e8 <__d2b+0x70>
   bb728:	000bc560 	.word	0x000bc560
   bb72c:	000bc60c 	.word	0x000bc60c

000bb730 <__ratio>:
   bb730:	e92d 4ff7 	stmdb	sp!, {r0, r1, r2, r4, r5, r6, r7, r8, r9, sl, fp, lr}
   bb734:	4688      	mov	r8, r1
   bb736:	4669      	mov	r1, sp
   bb738:	4681      	mov	r9, r0
   bb73a:	f7ff ff4d 	bl	bb5d8 <__b2d>
   bb73e:	a901      	add	r1, sp, #4
   bb740:	4640      	mov	r0, r8
   bb742:	ec55 4b10 	vmov	r4, r5, d0
   bb746:	f7ff ff47 	bl	bb5d8 <__b2d>
   bb74a:	f8d9 3010 	ldr.w	r3, [r9, #16]
   bb74e:	f8d8 2010 	ldr.w	r2, [r8, #16]
   bb752:	eba3 0c02 	sub.w	ip, r3, r2
   bb756:	e9dd 3200 	ldrd	r3, r2, [sp]
   bb75a:	1a9b      	subs	r3, r3, r2
   bb75c:	eb03 134c 	add.w	r3, r3, ip, lsl #5
   bb760:	ec51 0b10 	vmov	r0, r1, d0
   bb764:	2b00      	cmp	r3, #0
   bb766:	bfd6      	itet	le
   bb768:	460a      	movle	r2, r1
   bb76a:	462a      	movgt	r2, r5
   bb76c:	ebc3 3303 	rsble	r3, r3, r3, lsl #12
   bb770:	468b      	mov	fp, r1
   bb772:	462f      	mov	r7, r5
   bb774:	bfd4      	ite	le
   bb776:	eb02 5b03 	addle.w	fp, r2, r3, lsl #20
   bb77a:	eb02 5703 	addgt.w	r7, r2, r3, lsl #20
   bb77e:	4620      	mov	r0, r4
   bb780:	ee10 2a10 	vmov	r2, s0
   bb784:	465b      	mov	r3, fp
   bb786:	4639      	mov	r1, r7
   bb788:	f7fd fdc4 	bl	b9314 <__aeabi_ddiv>
   bb78c:	ec41 0b10 	vmov	d0, r0, r1
   bb790:	b003      	add	sp, #12
   bb792:	e8bd 8ff0 	ldmia.w	sp!, {r4, r5, r6, r7, r8, r9, sl, fp, pc}

000bb796 <__copybits>:
   bb796:	3901      	subs	r1, #1
   bb798:	b570      	push	{r4, r5, r6, lr}
   bb79a:	1149      	asrs	r1, r1, #5
   bb79c:	6914      	ldr	r4, [r2, #16]
   bb79e:	3101      	adds	r1, #1
   bb7a0:	f102 0314 	add.w	r3, r2, #20
   bb7a4:	eb00 0181 	add.w	r1, r0, r1, lsl #2
   bb7a8:	eb03 0484 	add.w	r4, r3, r4, lsl #2
   bb7ac:	1f05      	subs	r5, r0, #4
   bb7ae:	42a3      	cmp	r3, r4
   bb7b0:	d30c      	bcc.n	bb7cc <__copybits+0x36>
   bb7b2:	1aa3      	subs	r3, r4, r2
   bb7b4:	3b11      	subs	r3, #17
   bb7b6:	f023 0303 	bic.w	r3, r3, #3
   bb7ba:	3211      	adds	r2, #17
   bb7bc:	42a2      	cmp	r2, r4
   bb7be:	bf88      	it	hi
   bb7c0:	2300      	movhi	r3, #0
   bb7c2:	4418      	add	r0, r3
   bb7c4:	2300      	movs	r3, #0
   bb7c6:	4288      	cmp	r0, r1
   bb7c8:	d305      	bcc.n	bb7d6 <__copybits+0x40>
   bb7ca:	bd70      	pop	{r4, r5, r6, pc}
   bb7cc:	f853 6b04 	ldr.w	r6, [r3], #4
   bb7d0:	f845 6f04 	str.w	r6, [r5, #4]!
   bb7d4:	e7eb      	b.n	bb7ae <__copybits+0x18>
   bb7d6:	f840 3b04 	str.w	r3, [r0], #4
   bb7da:	e7f4      	b.n	bb7c6 <__copybits+0x30>

000bb7dc <__any_on>:
   bb7dc:	f100 0214 	add.w	r2, r0, #20
   bb7e0:	6900      	ldr	r0, [r0, #16]
   bb7e2:	114b      	asrs	r3, r1, #5
   bb7e4:	4298      	cmp	r0, r3
   bb7e6:	b510      	push	{r4, lr}
   bb7e8:	db11      	blt.n	bb80e <__any_on+0x32>
   bb7ea:	dd0a      	ble.n	bb802 <__any_on+0x26>
   bb7ec:	f011 011f 	ands.w	r1, r1, #31
   bb7f0:	d007      	beq.n	bb802 <__any_on+0x26>
   bb7f2:	f852 4023 	ldr.w	r4, [r2, r3, lsl #2]
   bb7f6:	fa24 f001 	lsr.w	r0, r4, r1
   bb7fa:	fa00 f101 	lsl.w	r1, r0, r1
   bb7fe:	428c      	cmp	r4, r1
   bb800:	d10b      	bne.n	bb81a <__any_on+0x3e>
   bb802:	eb02 0383 	add.w	r3, r2, r3, lsl #2
   bb806:	4293      	cmp	r3, r2
   bb808:	d803      	bhi.n	bb812 <__any_on+0x36>
   bb80a:	2000      	movs	r0, #0
   bb80c:	bd10      	pop	{r4, pc}
   bb80e:	4603      	mov	r3, r0
   bb810:	e7f7      	b.n	bb802 <__any_on+0x26>
   bb812:	f853 1d04 	ldr.w	r1, [r3, #-4]!
   bb816:	2900      	cmp	r1, #0
   bb818:	d0f5      	beq.n	bb806 <__any_on+0x2a>
   bb81a:	2001      	movs	r0, #1
   bb81c:	e7f6      	b.n	bb80c <__any_on+0x30>

000bb81e <_calloc_r>:
   bb81e:	b513      	push	{r0, r1, r4, lr}
   bb820:	434a      	muls	r2, r1
   bb822:	4611      	mov	r1, r2
   bb824:	9201      	str	r2, [sp, #4]
   bb826:	f7fa f96b 	bl	b5b00 <_malloc_r>
   bb82a:	4604      	mov	r4, r0
   bb82c:	b118      	cbz	r0, bb836 <_calloc_r+0x18>
   bb82e:	9a01      	ldr	r2, [sp, #4]
   bb830:	2100      	movs	r1, #0
   bb832:	f7fd ff96 	bl	b9762 <memset>
   bb836:	4620      	mov	r0, r4
   bb838:	b002      	add	sp, #8
   bb83a:	bd10      	pop	{r4, pc}
   bb83c:	0000      	movs	r0, r0
	...

000bb840 <nan>:
   bb840:	ed9f 0b01 	vldr	d0, [pc, #4]	; bb848 <nan+0x8>
   bb844:	4770      	bx	lr
   bb846:	bf00      	nop
   bb848:	00000000 	.word	0x00000000
   bb84c:	7ff80000 	.word	0x7ff80000

000bb850 <__ascii_wctomb>:
   bb850:	b149      	cbz	r1, bb866 <__ascii_wctomb+0x16>
   bb852:	2aff      	cmp	r2, #255	; 0xff
   bb854:	bf85      	ittet	hi
   bb856:	238a      	movhi	r3, #138	; 0x8a
   bb858:	6003      	strhi	r3, [r0, #0]
   bb85a:	700a      	strbls	r2, [r1, #0]
   bb85c:	f04f 30ff 	movhi.w	r0, #4294967295
   bb860:	bf98      	it	ls
   bb862:	2001      	movls	r0, #1
   bb864:	4770      	bx	lr
   bb866:	4608      	mov	r0, r1
   bb868:	4770      	bx	lr
	...

000bb86c <__aeabi_d2lz>:
   bb86c:	b538      	push	{r3, r4, r5, lr}
   bb86e:	2200      	movs	r2, #0
   bb870:	2300      	movs	r3, #0
   bb872:	4604      	mov	r4, r0
   bb874:	460d      	mov	r5, r1
   bb876:	f7fd fe95 	bl	b95a4 <__aeabi_dcmplt>
   bb87a:	b928      	cbnz	r0, bb888 <__aeabi_d2lz+0x1c>
   bb87c:	4620      	mov	r0, r4
   bb87e:	4629      	mov	r1, r5
   bb880:	e8bd 4038 	ldmia.w	sp!, {r3, r4, r5, lr}
   bb884:	f7fd bf0a 	b.w	b969c <__aeabi_d2ulz>
   bb888:	4620      	mov	r0, r4
   bb88a:	f105 4100 	add.w	r1, r5, #2147483648	; 0x80000000
   bb88e:	f7fd ff05 	bl	b969c <__aeabi_d2ulz>
   bb892:	4240      	negs	r0, r0
   bb894:	eb61 0141 	sbc.w	r1, r1, r1, lsl #1
   bb898:	bd38      	pop	{r3, r4, r5, pc}
   bb89a:	bf00      	nop

000bb89c <dynalib_user>:
   bb89c:	4021 000b 405d 000b 4085 000b 4089 000b     !@..]@...@...@..
   bb8ac:	0000 0000 7270 6369 7365 002f 7325 000a     ....prices/.%s..
   bb8bc:	212c 5700 6961 6974 676e 6620 726f 4220     ,!.Waiting for B
   bb8cc:	454c 6c63 6569 746e 6320 6e6f 656e 7463     LEclient connect
   bb8dc:	6f69 2e6e 2e2e 4800 6769 6568 7473 7020     ion....Highest p
   bb8ec:	6972 6563 6f20 2066 6874 2065 6164 3a79     rice of the day:
   bb8fc:	2520 0a66 4c00 776f 7365 2074 7270 6369      %f..Lowest pric
   bb90c:	2065 666f 7420 6568 6420 7961 203a 6625     e of the day: %f
   bb91c:	000a 6f48 7275 2073 666f 7420 6568 6420     ..Hours of the d
   bb92c:	7961 7720 6568 6572 6520 656c 7463 6972     ay where electri
   bb93c:	6963 7974 6920 2073 6977 6874 6e69 6120     city is within a
   bb94c:	6363 7065 6574 2064 6172 676e 3a65 000a     ccepted range:..
   bb95c:	3025 6432 7420 206f 3025 6432 000a 227b     %02d to %02d..{"
   bb96c:	6857 5f72 6f74 6164 2279 5b3a 2c00 5d00     Whr_today":[.,.]
   bb97c:	007d 227b 7270 6369 7365 6579 7473 7265     }.{"pricesyester
   bb98c:	6164 2279 5b3a 2500 322e 666c 7b00 7022     day":[.%.2lf.{"p
   bb99c:	6972 6563 7473 646f 7961 3a22 005b 227b     ricestoday":[.{"
   bb9ac:	7270 6369 7365 6f74 6f6d 7272 776f 3a22     pricestomorrow":
   bb9bc:	005b 227b 4857 5f72 6579 7473 7265 6164     [.{"WHr_yesterda
   bb9cc:	2279 5b3a 7b00 5722 7248 745f 646f 7961     y":[.{"WHr_today
   bb9dc:	3a22 005b 6562 6f66 6572 2520 756c 000a     ":[.before %lu..
   bb9ec:	6146 6c69 6465 7420 206f 6c61 6f6c 6163     Failed to alloca
   bb9fc:	6574 6d20 6d65 726f 2079 6f66 2072 6f63     te memory for co
   bba0c:	7473 795f 7365 6574 6472 7961 000a 6146     st_yesterday..Fa
   bba1c:	6c69 6465 7420 206f 6c61 6f6c 6163 6574     iled to allocate
   bba2c:	6d20 6d65 726f 2079 6f66 2072 6f63 7473      memory for cost
   bba3c:	745f 646f 7961 000a 6146 6c69 6465 7420     _today..Failed t
   bba4c:	206f 6c61 6f6c 6163 6574 6d20 6d65 726f     o allocate memor
   bba5c:	2079 6f66 2072 6f63 7473 745f 6d6f 726f     y for cost_tomor
   bba6c:	6f72 0a77 4d00 6d65 726f 2079 6c61 6f6c     row..Memory allo
   bba7c:	6163 6574 2064 6f66 2072 7270 6369 7365     cated for prices
   bba8c:	203a 6425 6220 7479 7365 6f20 2066 6f64     : %d bytes of do
   bba9c:	6275 656c 0a73 4600 6961 656c 2064 6f74     ubles..Failed to
   bbaac:	6120 6c6c 636f 7461 2065 656d 6f6d 7972      allocate memory
   bbabc:	6620 726f 7720 5f68 6f74 6164 0a79 4600      for wh_today..F
   bbacc:	6961 656c 2064 6f74 6120 6c6c 636f 7461     ailed to allocat
   bbadc:	2065 656d 6f6d 7972 6620 726f 7720 5f68     e memory for wh_
   bbaec:	6579 7473 7265 6164 0a79 4d00 6d65 726f     yesterday..Memor
   bbafc:	2079 6c61 6f6c 6163 6574 2064 6f66 2072     y allocated for 
   bbb0c:	6877 203a 6425 6220 7479 7365 6f20 2066     wh: %d bytes of 
   bbb1c:	6e69 7374 000a 6641 6574 2072 6c25 0a75     ints..After %lu.
   bbb2c:	7000 6972 6563 0073 7543 7272 6e65 2074     .prices.Current 
   bbb3c:	4848 4d3a 3a4d 2520 3230 3a64 3025 6432     HH:MM: %02d:%02d
   bbb4c:	000a 207b 7922 6165 2272 203a 2522 2264     ..{ "year": "%d"
   bbb5c:	202c 6d22 6e6f 6874 3a22 2522 3230 2264     , "month":"%02d"
   bbb6c:	202c 6422 7961 3a22 2220 3025 6432 7d22     , "day": "%02d"}
   bbb7c:	6500 706c 6972 6573 0072 6e49 7720 726f     .elpriser.In wor
   bbb8c:	0a6b 4300 6568 7061 6928 6873 2029 6f68     k..Cheap(ish) ho
   bbb9c:	7275 2073 666f 7420 6568 6420 7961 203a     urs of the day: 
   bbbac:	2500 3230 2064 6f74 2520 3230 2c64 0020     .%02d to %02d, .
   bbbbc:	6f4c 2077 7270 6369 2065 6f68 7275 0073     Low price hours.
   bbbcc:	5352 4953 253d 0064 6547 7474 6e69 2067     RSSI=%d.Getting 
   bbbdc:	7270 6369 2065 6164 6174 6620 726f 7920     price data for y
   bbbec:	7365 6574 6472 7961 000a 6f43 6e75 3174     esterday..Count1
   bbbfc:	3a3d 2520 0a64 4700 7465 6974 676e 7020     =: %d..Getting p
   bbc0c:	6972 6563 6420 7461 2061 6f66 2072 6f74     rice data for to
   bbc1c:	6164 0a79 4300 756f 746e 3d32 203a 6425     day..Count2=: %d
   bbc2c:	000a 6854 2065 7270 6369 7365 6620 726f     ..The prices for
   bbc3c:	7420 6d6f 726f 6f72 2076 6977 6c6c 6220      tomorrov will b
   bbc4c:	2065 7570 6c6c 6465 6120 2074 6425 303a     e pulled at %d:0
   bbc5c:	0a30 5200 6365 6965 6576 2064 6f70 6577     0..Received powe
   bbc6c:	2f72 6567 0a74 7b00 7722 7461 2274 253a     r/get..{"watt":%
   bbc7c:	7d64 6200 656c 635f 6e6f 656e 7463 6465     d}.ble_connected
   bbc8c:	000a 6157 7474 6e20 776f 4400 4b4b 5920     ..Watt now.DKK Y
   bbc9c:	7365 6574 6472 7961 4400 4b4b 5420 646f     esterday.DKK Tod
   bbcac:	7961 4400 4b4b 5420 6d6f 726f 6f72 0077     ay.DKK Tomorrow.
   bbcbc:	6857 2072 6f54 6164 0079 6857 2072 6559     Whr Today.Whr Ye
   bbccc:	7473 7265 6164 0079                         sterday.

000bbcd4 <_ZTV5Timer>:
	...
   bbcdc:	43ed 000b 4431 000b 4121 000b 3462 3532     .C..1D..!A..b425
   bbcec:	3430 3530 662d 3462 2d62 3734 3634 622d     0405-fb4b-4746-b
   bbcfc:	6232 2d30 3339 3066 3665 3131 3232 3663     2b0-93f0e61122c6
   bbd0c:	6200 3234 3035 3034 2d34 6266 6234 342d     .b4250404-fb4b-4
   bbd1c:	3437 2d36 3262 3062 392d 6633 6530 3136     746-b2b0-93f0e61
   bbd2c:	3231 6332 0036 3462 3532 3430 3330 662d     122c6.b4250403-f
   bbd3c:	3462 2d62 3734 3634 622d 6232 2d30 3339     b4b-4746-b2b0-93
   bbd4c:	3066 3665 3131 3232 3663 6200 3234 3035     f0e61122c6.b4250
   bbd5c:	3034 2d32 6266 6234 342d 3437 2d36 3262     402-fb4b-4746-b2
   bbd6c:	3062 392d 6633 6530 3136 3231 6332 0036     b0-93f0e61122c6.
   bbd7c:	3462 3532 3430 3630 662d 3462 2d62 3734     b4250406-fb4b-47
   bbd8c:	3634 622d 6232 2d30 3339 3066 3665 3131     46-b2b0-93f0e611
   bbd9c:	3232 3663 6200 3234 3035 3034 2d31 6266     22c6.b4250401-fb
   bbdac:	6234 342d 3437 2d36 3262 3062 392d 6633     4b-4746-b2b0-93f
   bbdbc:	6530 3136 3231 6332 0036 6633 6131 3531     0e61122c6.3f1a15
   bbdcc:	3639 652d 3765 2d66 3234 6462 382d 6434     96-ee7f-42bd-84d
   bbddc:	2d31 3162 3261 3439 3866 6532 6663 4100     1-b1a294f82ecf.A
   bbdec:	6772 6e6f 4d50 0000                         rgonPM..

000bbdf4 <_ZTVN5spark13EthernetClassE>:
	...
   bbdfc:	5baf 000b 5ba5 000b 5b9b 000b 5b91 000b     .[...[...[...[..
   bbe0c:	5b85 000b 5b79 000b 8859 000b 8861 000b     .[..y[..Y...a...
   bbe1c:	5b6d 000b 5b65 000b 5b5b 000b 5b51 000b     m[..e[..[[..Q[..
   bbe2c:	8891 000b                                   ....

000bbe30 <_ZTV3UDP>:
	...
   bbe38:	6261 000b 6285 000b 5d21 000b 5e49 000b     ab...b..!]..I^..
   bbe48:	5cd9 000b 5d39 000b 5d57 000b 5d71 000b     .\..9]..W]..q]..
   bbe58:	5d95 000b 5e2d 000b 6107 000b 5ecd 000b     .]..-^...a...^..
   bbe68:	6025 000b 5cc1 000b 61f1 000b 5fad 000b     %`...\...a..._..
   bbe78:	5ce1 000b 621f 000b 5e73 000b 5ccf 000b     .\...b..s^...\..
   bbe88:	5f05 000b 5cd5 000b 5d73 000b fff0 ffff     ._...\..s]......
   bbe98:	0000 0000 5d8d 000b 7341 6573 7472 6f69     .....]..Assertio
   bbea8:	466e 6961 756c 6572 6620 6c61 6573 7700     nFailure false.w
   bbeb8:	7269 6e69 2e67 6c62 0065 7453 7261 2074     iring.ble.Start 
   bbec8:	6964 6373 766f 7265 6e69 2067 6573 7672     discovering serv
   bbed8:	6369 7365 002e 7341 6573 7472 6f69 466e     ices..AssertionF
   bbee8:	6961 756c 6572 6820 6c61 625f 656c 735f     ailure hal_ble_s
   bbef8:	6174 6b63 695f 696e 2874 756e 6c6c 7470     tack_init(nullpt
   bbf08:	2972 3d20 203d 5953 5453 4d45 455f 5252     r) == SYSTEM_ERR
   bbf18:	524f 4e5f 4e4f 0045 6550 7265 6420 7665     OR_NONE.Peer dev
   bbf28:	6369 2065 7369 6d20 7369 6973 676e 0021     ice is missing!.
   bbf38:	6146 6c69 6465 7420 206f 7061 6570 646e     Failed to append
   bbf48:	7020 6565 2072 6543 746e 6172 206c 6564      peer Central de
   bbf58:	6976 6563 002e 6f43 6e6e 6365 6574 2064     vice..Connected 
   bbf68:	7962 4320 6e65 7274 6c61 6420 7665 6369     by Central devic
   bbf78:	2e65 4400 7369 6f63 6e6e 6365 6574 2064     e..Disconnected 
   bbf88:	7962 7220 6d65 746f 2065 6564 6976 6563     by remote device
   bbf98:	002e 7544 6c70 6369 7461 6465 6320 6168     ..Duplicated cha
   bbfa8:	6172 7463 7265 7369 6974 2063 6163 6e6e     racteristic cann
   bbfb8:	746f 6220 2065 6461 6564 2e64 4600 6961     ot be added..Fai
   bbfc8:	656c 2064 6f74 6120 7070 6e65 2064 6f6c     led to append lo
   bbfd8:	6163 206c 6863 7261 6361 6574 6972 7473     cal characterist
   bbfe8:	6369 002e                                   ic..

000bbfec <_ZTVSt23_Sp_counted_ptr_inplaceIN8particle21BleCharacteristicImplESaIS1_ELN9__gnu_cxx12_Lock_policyE0EE>:
	...
   bbff4:	64cf 000b 6531 000b 6651 000b 655b 000b     .d..1e..Qf..[e..
   bc004:	64d1 000b                                   .d..

000bc008 <_ZTVSt23_Sp_counted_ptr_inplaceIN8particle14BleServiceImplESaIS1_ELN9__gnu_cxx12_Lock_policyE0EE>:
	...
   bc010:	64cb 000b 653f 000b 64cd 000b 6561 000b     .d..?e...d..ae..
   bc020:	64f1 000b                                   .d..

000bc024 <_ZTVSt23_Sp_counted_ptr_inplaceIN8particle17BlePeerDeviceImplESaIS1_ELN9__gnu_cxx12_Lock_policyE0EE>:
	...
   bc02c:	64c9 000b 654d 000b 6de9 000b 6567 000b     .d..Me...m..ge..
   bc03c:	6511 000b                                   .e..

000bc040 <_ZZNSt19_Sp_make_shared_tag5_S_tiEvE5__tag>:
	...
   bc04c:	0000 34fb 5f9b 0080 8000 1000 0000 0000     ...4._..........
	...

000bc05e <_ZN8particle12_GLOBAL__N_1L29PARTICLE_DEFAULT_BLE_SVC_UUIDE>:
   bc05e:	e37b 7427 f87b ac15 49dd 13a9 0000 f572     {.'t{....I....r.

000bc06e <_ZN8particle7BleUuid9BASE_UUIDE>:
   bc06e:	34fb 5f9b 0080 8000 1000 0000 0000 0000     .4._............
   bc07e:	7061 0070 5925 252d 2d6d 6425 2554 3a48     app.%Y-%m-%dT%H:
   bc08e:	4d25 253a 2553 007a 7361 7463 6d69 0065     %M:%S%z.asctime.
	...

000bc0a0 <_ZTVSt15_Sp_counted_ptrIPN8particle6detail10FutureImplIbNS1_13FutureContextEEELN9__gnu_cxx12_Lock_policyE0EE>:
	...
   bc0a8:	7d09 000b 7d0f 000b 7d4d 000b 7d1d 000b     .}...}..M}...}..
   bc0b8:	7d0b 000b                                   .}..

000bc0bc <_ZTV9IPAddress>:
	...
   bc0c4:	8249 000b 8239 000b 823b 000b               I...9...;...

000bc0d0 <_ZTV9USBSerial>:
	...
   bc0d8:	836b 000b 83d3 000b 83a9 000b 78b9 000b     k............x..
   bc0e8:	839b 000b 836d 000b 837d 000b 83cd 000b     ....m...}.......
   bc0f8:	838d 000b 8365 000b                         ....e...

000bc100 <_ZTV11USARTSerial>:
	...
   bc108:	84bd 000b 8529 000b 8501 000b 78b9 000b     ....)........x..
   bc118:	84d1 000b 84ed 000b 84df 000b 84fb 000b     ................
   bc128:	84bf 000b 84c3 000b                         ........

000bc130 <_ZTV7TwoWire>:
	...
   bc138:	8589 000b 85d3 000b 85ab 000b 858b 000b     ................
   bc148:	85b3 000b 85bb 000b 85c3 000b 85cb 000b     ................

000bc158 <_ZTVN5spark9WiFiClassE>:
	...
   bc160:	868f 000b 8685 000b 867b 000b 8623 000b     ........{...#...
   bc170:	866f 000b 8663 000b 8859 000b 8861 000b     o...c...Y...a...
   bc180:	8657 000b 864f 000b 8645 000b 863b 000b     W...O...E...;...
   bc190:	8891 000b                                   ....

000bc194 <_ZTV10WiFiSignal>:
	...
   bc19c:	861d 000b 862d 000b 861f 000b 8699 000b     ....-...........
   bc1ac:	86cd 000b 86f9 000b 872d 000b               ........-...

000bc1b8 <_ZTVN5spark12NetworkClassE>:
	...
   bc1c0:	8819 000b 8823 000b 882d 000b 8837 000b     ....#...-...7...
   bc1d0:	8841 000b 884d 000b 8859 000b 8861 000b     A...M...Y...a...
   bc1e0:	8869 000b 8875 000b 887d 000b 8887 000b     i...u...}.......
   bc1f0:	8891 000b                                   ....

000bc1f4 <_ZSt7nothrow>:
	...

000bc1f5 <_ZTSSt19_Sp_make_shared_tag>:
   bc1f5:	7453 3931 535f 5f70 616d 656b 735f 6168     St19_Sp_make_sha
   bc205:	6572 5f64 6174 0067 0000                     red_tag....

000bc210 <_ZTISt19_Sp_make_shared_tag>:
   bc210:	c250 000b c1f5 000b                         P.......

000bc218 <_ZTIN10__cxxabiv117__class_type_infoE>:
   bc218:	c2b0 000b c224 000b c2d4 000b               ....$.......

000bc224 <_ZTSN10__cxxabiv117__class_type_infoE>:
   bc224:	314e 5f30 635f 7878 6261 7669 3131 5f37     N10__cxxabiv117_
   bc234:	635f 616c 7373 745f 7079 5f65 6e69 6f66     _class_type_info
   bc244:	0045 0000                                   E...

000bc248 <_ZTVN10__cxxabiv117__class_type_infoE>:
   bc248:	0000 0000 c218 000b 8b71 000b 8b85 000b     ........q.......
   bc258:	8d19 000b 8d19 000b 8bef 000b 8b31 000b     ............1...
   bc268:	8bd7 000b 8b99 000b 8b63 000b               ........c...

000bc274 <_ZTIN10__cxxabiv120__si_class_type_infoE>:
   bc274:	c2b0 000b c280 000b c218 000b               ............

000bc280 <_ZTSN10__cxxabiv120__si_class_type_infoE>:
   bc280:	314e 5f30 635f 7878 6261 7669 3231 5f30     N10__cxxabiv120_
   bc290:	735f 5f69 6c63 7361 5f73 7974 6570 695f     _si_class_type_i
   bc2a0:	666e 456f 0000 0000                         nfoE....

000bc2a8 <_ZTVN10__cxxabiv120__si_class_type_infoE>:
   bc2a8:	0000 0000 c274 000b 8c19 000b 8c2d 000b     ....t.......-...
   bc2b8:	8d19 000b 8d19 000b 8bef 000b 8b31 000b     ............1...
   bc2c8:	8ced 000b 8c79 000b 8c41 000b               ....y...A...

000bc2d4 <_ZTISt9type_info>:
   bc2d4:	c250 000b c2dc 000b                         P.......

000bc2dc <_ZTSSt9type_info>:
   bc2dc:	7453 7439 7079 5f65 6e69 6f66 5200 4545     St9type_info.REE
   bc2ec:	544e 6d20 6c61 6f6c 2063 7573 6363 6565     NT malloc succee
   bc2fc:	6564 0064 6d2f 746e 772f 726f 736b 6170     ded./mnt/workspa
   bc30c:	6563 772f 726f 736b 6170 6563 472f 4343     ce/workspace/GCC
   bc31c:	312d 2d30 6970 6570 696c 656e 6a2f 6e65     -10-pipeline/jen
   bc32c:	696b 736e 472d 4343 312d 2d30 6970 6570     kins-GCC-10-pipe
   bc33c:	696c 656e 342d 5f38 3032 3032 3131 3432     line-48_20201124
   bc34c:	315f 3036 3136 3038 3436 2f31 7273 2f63     _1606180641/src/
   bc35c:	656e 6c77 6269 6e2f 7765 696c 2f62 696c     newlib/newlib/li
   bc36c:	6362 732f 6474 696c 2f62 6172 646e 632e     bc/stdlib/rand.c
   bc37c:	6e00 0066 6e69 7469 0079 6e61 0000 0000     .nf.inity.an....

000bc38c <fpi.1>:
   bc38c:	0035 0000 fbce ffff 03cb 0000 0001 0000     5...............
   bc39c:	0000 0000                                   ....

000bc3a0 <fpinan.0>:
   bc3a0:	0034 0000 fbce ffff 03cb 0000 0001 0000     4...............
	...

000bc3b8 <tinytens>:
   bc3b8:	89bc 97d8 d2b2 3c9c a733 d5a8 f623 3949     .......<3...#.I9
   bc3c8:	a73d 44f4 0ffd 32a5 979d cf8c ba08 255b     =..D...2......[%
   bc3d8:	6f43 64ac 0628 1168 6d2f 746e 772f 726f     Co.d(.h./mnt/wor
   bc3e8:	736b 6170 6563 772f 726f 736b 6170 6563     kspace/workspace
   bc3f8:	472f 4343 312d 2d30 6970 6570 696c 656e     /GCC-10-pipeline
   bc408:	6a2f 6e65 696b 736e 472d 4343 312d 2d30     /jenkins-GCC-10-
   bc418:	6970 6570 696c 656e 342d 5f38 3032 3032     pipeline-48_2020
   bc428:	3131 3432 315f 3036 3136 3038 3436 2f31     1124_1606180641/
   bc438:	7273 2f63 656e 6c77 6269 6e2f 7765 696c     src/newlib/newli
   bc448:	2f62 696c 6362 732f 7274 6e69 2f67 7473     b/libc/string/st
   bc458:	7472 6b6f 632e                               rtok.c.

000bc45f <_ctype_>:
   bc45f:	2000 2020 2020 2020 2020 2828 2828 2028     .         ((((( 
   bc46f:	2020 2020 2020 2020 2020 2020 2020 2020                     
   bc47f:	8820 1010 1010 1010 1010 1010 1010 1010      ...............
   bc48f:	0410 0404 0404 0404 0404 1004 1010 1010     ................
   bc49f:	1010 4141 4141 4141 0101 0101 0101 0101     ..AAAAAA........
   bc4af:	0101 0101 0101 0101 0101 0101 1010 1010     ................
   bc4bf:	1010 4242 4242 4242 0202 0202 0202 0202     ..BBBBBB........
   bc4cf:	0202 0202 0202 0202 0202 0202 1010 1010     ................
   bc4df:	0020 0000 0000 0000 0000 0000 0000 0000      ...............
	...
   bc55f:	4200 6c61 6f6c 2063 7573 6363 6565 6564     .Balloc succeede
   bc56f:	0064 6d2f 746e 772f 726f 736b 6170 6563     d./mnt/workspace
   bc57f:	772f 726f 736b 6170 6563 472f 4343 312d     /workspace/GCC-1
   bc58f:	2d30 6970 6570 696c 656e 6a2f 6e65 696b     0-pipeline/jenki
   bc59f:	736e 472d 4343 312d 2d30 6970 6570 696c     ns-GCC-10-pipeli
   bc5af:	656e 342d 5f38 3032 3032 3131 3432 315f     ne-48_20201124_1
   bc5bf:	3036 3136 3038 3436 2f31 7273 2f63 656e     606180641/src/ne
   bc5cf:	6c77 6269 6e2f 7765 696c 2f62 696c 6362     wlib/newlib/libc
   bc5df:	732f 6474 696c 2f62 6467 6f74 2d61 6567     /stdlib/gdtoa-ge
   bc5ef:	6874 7865 632e 0000                          thex.c...

000bc5f8 <_C_numeric_locale>:
   bc5f8:	b8e1 000b bc5e 000b d9ec 2003 0043 4f50     ....^...... C.PO
   bc608:	4953 0058 6d2f 746e 772f 726f 736b 6170     SIX./mnt/workspa
   bc618:	6563 772f 726f 736b 6170 6563 472f 4343     ce/workspace/GCC
   bc628:	312d 2d30 6970 6570 696c 656e 6a2f 6e65     -10-pipeline/jen
   bc638:	696b 736e 472d 4343 312d 2d30 6970 6570     kins-GCC-10-pipe
   bc648:	696c 656e 342d 5f38 3032 3032 3131 3432     line-48_20201124
   bc658:	315f 3036 3136 3038 3436 2f31 7273 2f63     _1606180641/src/
   bc668:	656e 6c77 6269 6e2f 7765 696c 2f62 696c     newlib/newlib/li
   bc678:	6362 732f 6474 696c 2f62 706d 6572 2e63     bc/stdlib/mprec.
   bc688:	0063 0000 0000 0000                         c.......

000bc690 <__mprec_bigtens>:
   bc690:	8000 37e0 c379 4341 6e17 b505 b8b5 4693     ...7y.AC.n.....F
   bc6a0:	f9f5 e93f 4f03 4d38 1d32 f930 7748 5a82     ..?..O8M2.0.Hw.Z
   bc6b0:	bf3c 7f73 4fdd 7515                         <.s..O.u

000bc6b8 <__mprec_tens>:
   bc6b8:	0000 0000 0000 3ff0 0000 0000 0000 4024     .......?......$@
   bc6c8:	0000 0000 0000 4059 0000 0000 4000 408f     ......Y@.....@.@
   bc6d8:	0000 0000 8800 40c3 0000 0000 6a00 40f8     .......@.....j.@
   bc6e8:	0000 0000 8480 412e 0000 0000 12d0 4163     .......A......cA
   bc6f8:	0000 0000 d784 4197 0000 0000 cd65 41cd     .......A....e..A
   bc708:	0000 2000 a05f 4202 0000 e800 4876 4237     ... _..B....vH7B
   bc718:	0000 a200 1a94 426d 0000 e540 309c 42a2     ......mB..@..0.B
   bc728:	0000 1e90 bcc4 42d6 0000 2634 6bf5 430c     .......B..4&.k.C
   bc738:	8000 37e0 c379 4341 a000 85d8 3457 4376     ...7y.AC....W4vC
   bc748:	c800 674e c16d 43ab 3d00 6091 58e4 43e1     ..Ngm..C.=.`.X.C
   bc758:	8c40 78b5 af1d 4415 ef50 d6e2 1ae4 444b     @..x...DP.....KD
   bc768:	d592 064d f0cf 4480 4af6 c7e1 2d02 44b5     ..M....D.J...-.D
   bc778:	9db4 79d9 7843 44ea                         ...yCx.D

000bc780 <p05.0>:
   bc780:	0005 0000 0019 0000 007d 0000               ........}...

000bc78c <link_const_variable_data_end>:
   bc78c:	000b50b5 	.word	0x000b50b5
   bc790:	000b5449 	.word	0x000b5449
   bc794:	000b5bb9 	.word	0x000b5bb9
   bc798:	000b5c05 	.word	0x000b5c05
   bc79c:	000b78a9 	.word	0x000b78a9
   bc7a0:	000b79d9 	.word	0x000b79d9
   bc7a4:	000b7ba9 	.word	0x000b7ba9
   bc7a8:	000b7bc5 	.word	0x000b7bc5
   bc7ac:	000b8805 	.word	0x000b8805
   bc7b0:	000b8969 	.word	0x000b8969

000bc7b4 <link_constructors_end>:
	...
